
030_SN_CHECKER.elf:     file format elf32-littlearm

Sections:
Idx Name          Size      VMA       LMA       File off  Algn
  0 .isr_vector   000000c0  08000000  08000000  00001000  2**0
                  CONTENTS, ALLOC, LOAD, READONLY, DATA
  1 .text         00007ea0  080000c0  080000c0  000010c0  2**2
                  CONTENTS, ALLOC, LOAD, READONLY, CODE
  2 .rodata       00002cf4  08007f60  08007f60  00008f60  2**2
                  CONTENTS, ALLOC, LOAD, READONLY, DATA
  3 .ARM.extab    00000000  0800ac54  0800ac54  0000c078  2**0
                  CONTENTS
  4 .ARM          00000000  0800ac54  0800ac54  0000c078  2**0
                  CONTENTS
  5 .preinit_array 00000000  0800ac54  0800ac54  0000c078  2**0
                  CONTENTS, ALLOC, LOAD, DATA
  6 .init_array   00000004  0800ac54  0800ac54  0000bc54  2**2
                  CONTENTS, ALLOC, LOAD, READONLY, DATA
  7 .fini_array   00000004  0800ac58  0800ac58  0000bc58  2**2
                  CONTENTS, ALLOC, LOAD, READONLY, DATA
  8 .data         00000078  20000000  0800ac5c  0000c000  2**2
                  CONTENTS, ALLOC, LOAD, DATA
  9 .bss          00000660  20000078  0800acd4  0000c078  2**2
                  ALLOC
 10 ._user_heap_stack 00000600  200006d8  0800acd4  0000c6d8  2**0
                  ALLOC
 11 .ARM.attributes 00000028  00000000  00000000  0000c078  2**0
                  CONTENTS, READONLY
 12 .debug_info   0000bd5c  00000000  00000000  0000c0a0  2**0
                  CONTENTS, READONLY, DEBUGGING, OCTETS
 13 .debug_abbrev 00001dfa  00000000  00000000  00017dfc  2**0
                  CONTENTS, READONLY, DEBUGGING, OCTETS
 14 .debug_aranges 00000a68  00000000  00000000  00019bf8  2**3
                  CONTENTS, READONLY, DEBUGGING, OCTETS
 15 .debug_rnglists 00000827  00000000  00000000  0001a660  2**0
                  CONTENTS, READONLY, DEBUGGING, OCTETS
 16 .debug_macro  000100fe  00000000  00000000  0001ae87  2**0
                  CONTENTS, READONLY, DEBUGGING, OCTETS
 17 .debug_line   0000f355  00000000  00000000  0002af85  2**0
                  CONTENTS, READONLY, DEBUGGING, OCTETS
 18 .debug_str    0005df96  00000000  00000000  0003a2da  2**0
                  CONTENTS, READONLY, DEBUGGING, OCTETS
 19 .comment      00000043  00000000  00000000  00098270  2**0
                  CONTENTS, READONLY
 20 .debug_frame  00002cd0  00000000  00000000  000982b4  2**2
                  CONTENTS, READONLY, DEBUGGING, OCTETS
 21 .debug_line_str 00000043  00000000  00000000  0009af84  2**0
                  CONTENTS, READONLY, DEBUGGING, OCTETS

Disassembly of section .text:

080000c0 <__do_global_dtors_aux>:
 80000c0:	b510      	push	{r4, lr}
 80000c2:	4c06      	ldr	r4, [pc, #24]	@ (80000dc <__do_global_dtors_aux+0x1c>)
 80000c4:	7823      	ldrb	r3, [r4, #0]
 80000c6:	2b00      	cmp	r3, #0
 80000c8:	d107      	bne.n	80000da <__do_global_dtors_aux+0x1a>
 80000ca:	4b05      	ldr	r3, [pc, #20]	@ (80000e0 <__do_global_dtors_aux+0x20>)
 80000cc:	2b00      	cmp	r3, #0
 80000ce:	d002      	beq.n	80000d6 <__do_global_dtors_aux+0x16>
 80000d0:	4804      	ldr	r0, [pc, #16]	@ (80000e4 <__do_global_dtors_aux+0x24>)
 80000d2:	e000      	b.n	80000d6 <__do_global_dtors_aux+0x16>
 80000d4:	bf00      	nop
 80000d6:	2301      	movs	r3, #1
 80000d8:	7023      	strb	r3, [r4, #0]
 80000da:	bd10      	pop	{r4, pc}
 80000dc:	20000078 	.word	0x20000078
 80000e0:	00000000 	.word	0x00000000
 80000e4:	08007f48 	.word	0x08007f48

080000e8 <frame_dummy>:
 80000e8:	4b04      	ldr	r3, [pc, #16]	@ (80000fc <frame_dummy+0x14>)
 80000ea:	b510      	push	{r4, lr}
 80000ec:	2b00      	cmp	r3, #0
 80000ee:	d003      	beq.n	80000f8 <frame_dummy+0x10>
 80000f0:	4903      	ldr	r1, [pc, #12]	@ (8000100 <frame_dummy+0x18>)
 80000f2:	4804      	ldr	r0, [pc, #16]	@ (8000104 <frame_dummy+0x1c>)
 80000f4:	e000      	b.n	80000f8 <frame_dummy+0x10>
 80000f6:	bf00      	nop
 80000f8:	bd10      	pop	{r4, pc}
 80000fa:	46c0      	nop			@ (mov r8, r8)
 80000fc:	00000000 	.word	0x00000000
 8000100:	2000007c 	.word	0x2000007c
 8000104:	08007f48 	.word	0x08007f48

08000108 <__gnu_thumb1_case_shi>:
 8000108:	b403      	push	{r0, r1}
 800010a:	4671      	mov	r1, lr
 800010c:	0849      	lsrs	r1, r1, #1
 800010e:	0040      	lsls	r0, r0, #1
 8000110:	0049      	lsls	r1, r1, #1
 8000112:	5e09      	ldrsh	r1, [r1, r0]
 8000114:	0049      	lsls	r1, r1, #1
 8000116:	448e      	add	lr, r1
 8000118:	bc03      	pop	{r0, r1}
 800011a:	4770      	bx	lr

0800011c <__udivsi3>:
 800011c:	2200      	movs	r2, #0
 800011e:	0843      	lsrs	r3, r0, #1
 8000120:	428b      	cmp	r3, r1
 8000122:	d374      	bcc.n	800020e <__udivsi3+0xf2>
 8000124:	0903      	lsrs	r3, r0, #4
 8000126:	428b      	cmp	r3, r1
 8000128:	d35f      	bcc.n	80001ea <__udivsi3+0xce>
 800012a:	0a03      	lsrs	r3, r0, #8
 800012c:	428b      	cmp	r3, r1
 800012e:	d344      	bcc.n	80001ba <__udivsi3+0x9e>
 8000130:	0b03      	lsrs	r3, r0, #12
 8000132:	428b      	cmp	r3, r1
 8000134:	d328      	bcc.n	8000188 <__udivsi3+0x6c>
 8000136:	0c03      	lsrs	r3, r0, #16
 8000138:	428b      	cmp	r3, r1
 800013a:	d30d      	bcc.n	8000158 <__udivsi3+0x3c>
 800013c:	22ff      	movs	r2, #255	@ 0xff
 800013e:	0209      	lsls	r1, r1, #8
 8000140:	ba12      	rev	r2, r2
 8000142:	0c03      	lsrs	r3, r0, #16
 8000144:	428b      	cmp	r3, r1
 8000146:	d302      	bcc.n	800014e <__udivsi3+0x32>
 8000148:	1212      	asrs	r2, r2, #8
 800014a:	0209      	lsls	r1, r1, #8
 800014c:	d065      	beq.n	800021a <__udivsi3+0xfe>
 800014e:	0b03      	lsrs	r3, r0, #12
 8000150:	428b      	cmp	r3, r1
 8000152:	d319      	bcc.n	8000188 <__udivsi3+0x6c>
 8000154:	e000      	b.n	8000158 <__udivsi3+0x3c>
 8000156:	0a09      	lsrs	r1, r1, #8
 8000158:	0bc3      	lsrs	r3, r0, #15
 800015a:	428b      	cmp	r3, r1
 800015c:	d301      	bcc.n	8000162 <__udivsi3+0x46>
 800015e:	03cb      	lsls	r3, r1, #15
 8000160:	1ac0      	subs	r0, r0, r3
 8000162:	4152      	adcs	r2, r2
 8000164:	0b83      	lsrs	r3, r0, #14
 8000166:	428b      	cmp	r3, r1
 8000168:	d301      	bcc.n	800016e <__udivsi3+0x52>
 800016a:	038b      	lsls	r3, r1, #14
 800016c:	1ac0      	subs	r0, r0, r3
 800016e:	4152      	adcs	r2, r2
 8000170:	0b43      	lsrs	r3, r0, #13
 8000172:	428b      	cmp	r3, r1
 8000174:	d301      	bcc.n	800017a <__udivsi3+0x5e>
 8000176:	034b      	lsls	r3, r1, #13
 8000178:	1ac0      	subs	r0, r0, r3
 800017a:	4152      	adcs	r2, r2
 800017c:	0b03      	lsrs	r3, r0, #12
 800017e:	428b      	cmp	r3, r1
 8000180:	d301      	bcc.n	8000186 <__udivsi3+0x6a>
 8000182:	030b      	lsls	r3, r1, #12
 8000184:	1ac0      	subs	r0, r0, r3
 8000186:	4152      	adcs	r2, r2
 8000188:	0ac3      	lsrs	r3, r0, #11
 800018a:	428b      	cmp	r3, r1
 800018c:	d301      	bcc.n	8000192 <__udivsi3+0x76>
 800018e:	02cb      	lsls	r3, r1, #11
 8000190:	1ac0      	subs	r0, r0, r3
 8000192:	4152      	adcs	r2, r2
 8000194:	0a83      	lsrs	r3, r0, #10
 8000196:	428b      	cmp	r3, r1
 8000198:	d301      	bcc.n	800019e <__udivsi3+0x82>
 800019a:	028b      	lsls	r3, r1, #10
 800019c:	1ac0      	subs	r0, r0, r3
 800019e:	4152      	adcs	r2, r2
 80001a0:	0a43      	lsrs	r3, r0, #9
 80001a2:	428b      	cmp	r3, r1
 80001a4:	d301      	bcc.n	80001aa <__udivsi3+0x8e>
 80001a6:	024b      	lsls	r3, r1, #9
 80001a8:	1ac0      	subs	r0, r0, r3
 80001aa:	4152      	adcs	r2, r2
 80001ac:	0a03      	lsrs	r3, r0, #8
 80001ae:	428b      	cmp	r3, r1
 80001b0:	d301      	bcc.n	80001b6 <__udivsi3+0x9a>
 80001b2:	020b      	lsls	r3, r1, #8
 80001b4:	1ac0      	subs	r0, r0, r3
 80001b6:	4152      	adcs	r2, r2
 80001b8:	d2cd      	bcs.n	8000156 <__udivsi3+0x3a>
 80001ba:	09c3      	lsrs	r3, r0, #7
 80001bc:	428b      	cmp	r3, r1
 80001be:	d301      	bcc.n	80001c4 <__udivsi3+0xa8>
 80001c0:	01cb      	lsls	r3, r1, #7
 80001c2:	1ac0      	subs	r0, r0, r3
 80001c4:	4152      	adcs	r2, r2
 80001c6:	0983      	lsrs	r3, r0, #6
 80001c8:	428b      	cmp	r3, r1
 80001ca:	d301      	bcc.n	80001d0 <__udivsi3+0xb4>
 80001cc:	018b      	lsls	r3, r1, #6
 80001ce:	1ac0      	subs	r0, r0, r3
 80001d0:	4152      	adcs	r2, r2
 80001d2:	0943      	lsrs	r3, r0, #5
 80001d4:	428b      	cmp	r3, r1
 80001d6:	d301      	bcc.n	80001dc <__udivsi3+0xc0>
 80001d8:	014b      	lsls	r3, r1, #5
 80001da:	1ac0      	subs	r0, r0, r3
 80001dc:	4152      	adcs	r2, r2
 80001de:	0903      	lsrs	r3, r0, #4
 80001e0:	428b      	cmp	r3, r1
 80001e2:	d301      	bcc.n	80001e8 <__udivsi3+0xcc>
 80001e4:	010b      	lsls	r3, r1, #4
 80001e6:	1ac0      	subs	r0, r0, r3
 80001e8:	4152      	adcs	r2, r2
 80001ea:	08c3      	lsrs	r3, r0, #3
 80001ec:	428b      	cmp	r3, r1
 80001ee:	d301      	bcc.n	80001f4 <__udivsi3+0xd8>
 80001f0:	00cb      	lsls	r3, r1, #3
 80001f2:	1ac0      	subs	r0, r0, r3
 80001f4:	4152      	adcs	r2, r2
 80001f6:	0883      	lsrs	r3, r0, #2
 80001f8:	428b      	cmp	r3, r1
 80001fa:	d301      	bcc.n	8000200 <__udivsi3+0xe4>
 80001fc:	008b      	lsls	r3, r1, #2
 80001fe:	1ac0      	subs	r0, r0, r3
 8000200:	4152      	adcs	r2, r2
 8000202:	0843      	lsrs	r3, r0, #1
 8000204:	428b      	cmp	r3, r1
 8000206:	d301      	bcc.n	800020c <__udivsi3+0xf0>
 8000208:	004b      	lsls	r3, r1, #1
 800020a:	1ac0      	subs	r0, r0, r3
 800020c:	4152      	adcs	r2, r2
 800020e:	1a41      	subs	r1, r0, r1
 8000210:	d200      	bcs.n	8000214 <__udivsi3+0xf8>
 8000212:	4601      	mov	r1, r0
 8000214:	4152      	adcs	r2, r2
 8000216:	4610      	mov	r0, r2
 8000218:	4770      	bx	lr
 800021a:	e7ff      	b.n	800021c <__udivsi3+0x100>
 800021c:	b501      	push	{r0, lr}
 800021e:	2000      	movs	r0, #0
 8000220:	f000 f806 	bl	8000230 <__aeabi_idiv0>
 8000224:	bd02      	pop	{r1, pc}
 8000226:	46c0      	nop			@ (mov r8, r8)

08000228 <__aeabi_uidivmod>:
 8000228:	2900      	cmp	r1, #0
 800022a:	d0f7      	beq.n	800021c <__udivsi3+0x100>
 800022c:	e776      	b.n	800011c <__udivsi3>
 800022e:	4770      	bx	lr

08000230 <__aeabi_idiv0>:
 8000230:	4770      	bx	lr
 8000232:	46c0      	nop			@ (mov r8, r8)

08000234 <__aeabi_d2uiz>:
 8000234:	b570      	push	{r4, r5, r6, lr}
 8000236:	2200      	movs	r2, #0
 8000238:	4b0c      	ldr	r3, [pc, #48]	@ (800026c <__aeabi_d2uiz+0x38>)
 800023a:	0004      	movs	r4, r0
 800023c:	000d      	movs	r5, r1
 800023e:	f001 fd97 	bl	8001d70 <__aeabi_dcmpge>
 8000242:	2800      	cmp	r0, #0
 8000244:	d104      	bne.n	8000250 <__aeabi_d2uiz+0x1c>
 8000246:	0020      	movs	r0, r4
 8000248:	0029      	movs	r1, r5
 800024a:	f001 fcf3 	bl	8001c34 <__aeabi_d2iz>
 800024e:	bd70      	pop	{r4, r5, r6, pc}
 8000250:	4b06      	ldr	r3, [pc, #24]	@ (800026c <__aeabi_d2uiz+0x38>)
 8000252:	2200      	movs	r2, #0
 8000254:	0020      	movs	r0, r4
 8000256:	0029      	movs	r1, r5
 8000258:	f001 f950 	bl	80014fc <__aeabi_dsub>
 800025c:	f001 fcea 	bl	8001c34 <__aeabi_d2iz>
 8000260:	2380      	movs	r3, #128	@ 0x80
 8000262:	061b      	lsls	r3, r3, #24
 8000264:	469c      	mov	ip, r3
 8000266:	4460      	add	r0, ip
 8000268:	e7f1      	b.n	800024e <__aeabi_d2uiz+0x1a>
 800026a:	46c0      	nop			@ (mov r8, r8)
 800026c:	41e00000 	.word	0x41e00000

08000270 <__aeabi_dadd>:
 8000270:	b5f0      	push	{r4, r5, r6, r7, lr}
 8000272:	4657      	mov	r7, sl
 8000274:	464e      	mov	r6, r9
 8000276:	4645      	mov	r5, r8
 8000278:	46de      	mov	lr, fp
 800027a:	b5e0      	push	{r5, r6, r7, lr}
 800027c:	b083      	sub	sp, #12
 800027e:	9000      	str	r0, [sp, #0]
 8000280:	9101      	str	r1, [sp, #4]
 8000282:	030c      	lsls	r4, r1, #12
 8000284:	004f      	lsls	r7, r1, #1
 8000286:	0fce      	lsrs	r6, r1, #31
 8000288:	0a61      	lsrs	r1, r4, #9
 800028a:	9c00      	ldr	r4, [sp, #0]
 800028c:	031d      	lsls	r5, r3, #12
 800028e:	0f64      	lsrs	r4, r4, #29
 8000290:	430c      	orrs	r4, r1
 8000292:	9900      	ldr	r1, [sp, #0]
 8000294:	9200      	str	r2, [sp, #0]
 8000296:	9301      	str	r3, [sp, #4]
 8000298:	00c8      	lsls	r0, r1, #3
 800029a:	0059      	lsls	r1, r3, #1
 800029c:	0d4b      	lsrs	r3, r1, #21
 800029e:	4699      	mov	r9, r3
 80002a0:	9a00      	ldr	r2, [sp, #0]
 80002a2:	9b01      	ldr	r3, [sp, #4]
 80002a4:	0a6d      	lsrs	r5, r5, #9
 80002a6:	0fd9      	lsrs	r1, r3, #31
 80002a8:	0f53      	lsrs	r3, r2, #29
 80002aa:	432b      	orrs	r3, r5
 80002ac:	469a      	mov	sl, r3
 80002ae:	9b00      	ldr	r3, [sp, #0]
 80002b0:	0d7f      	lsrs	r7, r7, #21
 80002b2:	00da      	lsls	r2, r3, #3
 80002b4:	4694      	mov	ip, r2
 80002b6:	464a      	mov	r2, r9
 80002b8:	46b0      	mov	r8, r6
 80002ba:	1aba      	subs	r2, r7, r2
 80002bc:	428e      	cmp	r6, r1
 80002be:	d100      	bne.n	80002c2 <__aeabi_dadd+0x52>
 80002c0:	e0b0      	b.n	8000424 <__aeabi_dadd+0x1b4>
 80002c2:	2a00      	cmp	r2, #0
 80002c4:	dc00      	bgt.n	80002c8 <__aeabi_dadd+0x58>
 80002c6:	e078      	b.n	80003ba <__aeabi_dadd+0x14a>
 80002c8:	4649      	mov	r1, r9
 80002ca:	2900      	cmp	r1, #0
 80002cc:	d100      	bne.n	80002d0 <__aeabi_dadd+0x60>
 80002ce:	e0e9      	b.n	80004a4 <__aeabi_dadd+0x234>
 80002d0:	49c9      	ldr	r1, [pc, #804]	@ (80005f8 <__aeabi_dadd+0x388>)
 80002d2:	428f      	cmp	r7, r1
 80002d4:	d100      	bne.n	80002d8 <__aeabi_dadd+0x68>
 80002d6:	e195      	b.n	8000604 <__aeabi_dadd+0x394>
 80002d8:	2501      	movs	r5, #1
 80002da:	2a38      	cmp	r2, #56	@ 0x38
 80002dc:	dc16      	bgt.n	800030c <__aeabi_dadd+0x9c>
 80002de:	2180      	movs	r1, #128	@ 0x80
 80002e0:	4653      	mov	r3, sl
 80002e2:	0409      	lsls	r1, r1, #16
 80002e4:	430b      	orrs	r3, r1
 80002e6:	469a      	mov	sl, r3
 80002e8:	2a1f      	cmp	r2, #31
 80002ea:	dd00      	ble.n	80002ee <__aeabi_dadd+0x7e>
 80002ec:	e1e7      	b.n	80006be <__aeabi_dadd+0x44e>
 80002ee:	2120      	movs	r1, #32
 80002f0:	4655      	mov	r5, sl
 80002f2:	1a8b      	subs	r3, r1, r2
 80002f4:	4661      	mov	r1, ip
 80002f6:	409d      	lsls	r5, r3
 80002f8:	40d1      	lsrs	r1, r2
 80002fa:	430d      	orrs	r5, r1
 80002fc:	4661      	mov	r1, ip
 80002fe:	4099      	lsls	r1, r3
 8000300:	1e4b      	subs	r3, r1, #1
 8000302:	4199      	sbcs	r1, r3
 8000304:	4653      	mov	r3, sl
 8000306:	40d3      	lsrs	r3, r2
 8000308:	430d      	orrs	r5, r1
 800030a:	1ae4      	subs	r4, r4, r3
 800030c:	1b45      	subs	r5, r0, r5
 800030e:	42a8      	cmp	r0, r5
 8000310:	4180      	sbcs	r0, r0
 8000312:	4240      	negs	r0, r0
 8000314:	1a24      	subs	r4, r4, r0
 8000316:	0223      	lsls	r3, r4, #8
 8000318:	d400      	bmi.n	800031c <__aeabi_dadd+0xac>
 800031a:	e10f      	b.n	800053c <__aeabi_dadd+0x2cc>
 800031c:	0264      	lsls	r4, r4, #9
 800031e:	0a64      	lsrs	r4, r4, #9
 8000320:	2c00      	cmp	r4, #0
 8000322:	d100      	bne.n	8000326 <__aeabi_dadd+0xb6>
 8000324:	e139      	b.n	800059a <__aeabi_dadd+0x32a>
 8000326:	0020      	movs	r0, r4
 8000328:	f001 fd2c 	bl	8001d84 <__clzsi2>
 800032c:	0003      	movs	r3, r0
 800032e:	3b08      	subs	r3, #8
 8000330:	2120      	movs	r1, #32
 8000332:	0028      	movs	r0, r5
 8000334:	1aca      	subs	r2, r1, r3
 8000336:	40d0      	lsrs	r0, r2
 8000338:	409c      	lsls	r4, r3
 800033a:	0002      	movs	r2, r0
 800033c:	409d      	lsls	r5, r3
 800033e:	4322      	orrs	r2, r4
 8000340:	429f      	cmp	r7, r3
 8000342:	dd00      	ble.n	8000346 <__aeabi_dadd+0xd6>
 8000344:	e173      	b.n	800062e <__aeabi_dadd+0x3be>
 8000346:	1bd8      	subs	r0, r3, r7
 8000348:	3001      	adds	r0, #1
 800034a:	1a09      	subs	r1, r1, r0
 800034c:	002c      	movs	r4, r5
 800034e:	408d      	lsls	r5, r1
 8000350:	40c4      	lsrs	r4, r0
 8000352:	1e6b      	subs	r3, r5, #1
 8000354:	419d      	sbcs	r5, r3
 8000356:	0013      	movs	r3, r2
 8000358:	40c2      	lsrs	r2, r0
 800035a:	408b      	lsls	r3, r1
 800035c:	4325      	orrs	r5, r4
 800035e:	2700      	movs	r7, #0
 8000360:	0014      	movs	r4, r2
 8000362:	431d      	orrs	r5, r3
 8000364:	076b      	lsls	r3, r5, #29
 8000366:	d009      	beq.n	800037c <__aeabi_dadd+0x10c>
 8000368:	230f      	movs	r3, #15
 800036a:	402b      	ands	r3, r5
 800036c:	2b04      	cmp	r3, #4
 800036e:	d005      	beq.n	800037c <__aeabi_dadd+0x10c>
 8000370:	1d2b      	adds	r3, r5, #4
 8000372:	42ab      	cmp	r3, r5
 8000374:	41ad      	sbcs	r5, r5
 8000376:	426d      	negs	r5, r5
 8000378:	1964      	adds	r4, r4, r5
 800037a:	001d      	movs	r5, r3
 800037c:	0223      	lsls	r3, r4, #8
 800037e:	d400      	bmi.n	8000382 <__aeabi_dadd+0x112>
 8000380:	e12d      	b.n	80005de <__aeabi_dadd+0x36e>
 8000382:	4a9d      	ldr	r2, [pc, #628]	@ (80005f8 <__aeabi_dadd+0x388>)
 8000384:	3701      	adds	r7, #1
 8000386:	4297      	cmp	r7, r2
 8000388:	d100      	bne.n	800038c <__aeabi_dadd+0x11c>
 800038a:	e0d3      	b.n	8000534 <__aeabi_dadd+0x2c4>
 800038c:	4646      	mov	r6, r8
 800038e:	499b      	ldr	r1, [pc, #620]	@ (80005fc <__aeabi_dadd+0x38c>)
 8000390:	08ed      	lsrs	r5, r5, #3
 8000392:	4021      	ands	r1, r4
 8000394:	074a      	lsls	r2, r1, #29
 8000396:	432a      	orrs	r2, r5
 8000398:	057c      	lsls	r4, r7, #21
 800039a:	024d      	lsls	r5, r1, #9
 800039c:	0b2d      	lsrs	r5, r5, #12
 800039e:	0d64      	lsrs	r4, r4, #21
 80003a0:	0524      	lsls	r4, r4, #20
 80003a2:	432c      	orrs	r4, r5
 80003a4:	07f6      	lsls	r6, r6, #31
 80003a6:	4334      	orrs	r4, r6
 80003a8:	0010      	movs	r0, r2
 80003aa:	0021      	movs	r1, r4
 80003ac:	b003      	add	sp, #12
 80003ae:	bcf0      	pop	{r4, r5, r6, r7}
 80003b0:	46bb      	mov	fp, r7
 80003b2:	46b2      	mov	sl, r6
 80003b4:	46a9      	mov	r9, r5
 80003b6:	46a0      	mov	r8, r4
 80003b8:	bdf0      	pop	{r4, r5, r6, r7, pc}
 80003ba:	2a00      	cmp	r2, #0
 80003bc:	d100      	bne.n	80003c0 <__aeabi_dadd+0x150>
 80003be:	e084      	b.n	80004ca <__aeabi_dadd+0x25a>
 80003c0:	464a      	mov	r2, r9
 80003c2:	1bd2      	subs	r2, r2, r7
 80003c4:	2f00      	cmp	r7, #0
 80003c6:	d000      	beq.n	80003ca <__aeabi_dadd+0x15a>
 80003c8:	e16d      	b.n	80006a6 <__aeabi_dadd+0x436>
 80003ca:	0025      	movs	r5, r4
 80003cc:	4305      	orrs	r5, r0
 80003ce:	d100      	bne.n	80003d2 <__aeabi_dadd+0x162>
 80003d0:	e127      	b.n	8000622 <__aeabi_dadd+0x3b2>
 80003d2:	1e56      	subs	r6, r2, #1
 80003d4:	2a01      	cmp	r2, #1
 80003d6:	d100      	bne.n	80003da <__aeabi_dadd+0x16a>
 80003d8:	e23b      	b.n	8000852 <__aeabi_dadd+0x5e2>
 80003da:	4d87      	ldr	r5, [pc, #540]	@ (80005f8 <__aeabi_dadd+0x388>)
 80003dc:	42aa      	cmp	r2, r5
 80003de:	d100      	bne.n	80003e2 <__aeabi_dadd+0x172>
 80003e0:	e26a      	b.n	80008b8 <__aeabi_dadd+0x648>
 80003e2:	2501      	movs	r5, #1
 80003e4:	2e38      	cmp	r6, #56	@ 0x38
 80003e6:	dc12      	bgt.n	800040e <__aeabi_dadd+0x19e>
 80003e8:	0032      	movs	r2, r6
 80003ea:	2a1f      	cmp	r2, #31
 80003ec:	dd00      	ble.n	80003f0 <__aeabi_dadd+0x180>
 80003ee:	e1f8      	b.n	80007e2 <__aeabi_dadd+0x572>
 80003f0:	2620      	movs	r6, #32
 80003f2:	0025      	movs	r5, r4
 80003f4:	1ab6      	subs	r6, r6, r2
 80003f6:	0007      	movs	r7, r0
 80003f8:	4653      	mov	r3, sl
 80003fa:	40b0      	lsls	r0, r6
 80003fc:	40d4      	lsrs	r4, r2
 80003fe:	40b5      	lsls	r5, r6
 8000400:	40d7      	lsrs	r7, r2
 8000402:	1e46      	subs	r6, r0, #1
 8000404:	41b0      	sbcs	r0, r6
 8000406:	1b1b      	subs	r3, r3, r4
 8000408:	469a      	mov	sl, r3
 800040a:	433d      	orrs	r5, r7
 800040c:	4305      	orrs	r5, r0
 800040e:	4662      	mov	r2, ip
 8000410:	1b55      	subs	r5, r2, r5
 8000412:	45ac      	cmp	ip, r5
 8000414:	4192      	sbcs	r2, r2
 8000416:	4653      	mov	r3, sl
 8000418:	4252      	negs	r2, r2
 800041a:	000e      	movs	r6, r1
 800041c:	464f      	mov	r7, r9
 800041e:	4688      	mov	r8, r1
 8000420:	1a9c      	subs	r4, r3, r2
 8000422:	e778      	b.n	8000316 <__aeabi_dadd+0xa6>
 8000424:	2a00      	cmp	r2, #0
 8000426:	dc00      	bgt.n	800042a <__aeabi_dadd+0x1ba>
 8000428:	e08e      	b.n	8000548 <__aeabi_dadd+0x2d8>
 800042a:	4649      	mov	r1, r9
 800042c:	2900      	cmp	r1, #0
 800042e:	d175      	bne.n	800051c <__aeabi_dadd+0x2ac>
 8000430:	4661      	mov	r1, ip
 8000432:	4653      	mov	r3, sl
 8000434:	4319      	orrs	r1, r3
 8000436:	d100      	bne.n	800043a <__aeabi_dadd+0x1ca>
 8000438:	e0f6      	b.n	8000628 <__aeabi_dadd+0x3b8>
 800043a:	1e51      	subs	r1, r2, #1
 800043c:	2a01      	cmp	r2, #1
 800043e:	d100      	bne.n	8000442 <__aeabi_dadd+0x1d2>
 8000440:	e191      	b.n	8000766 <__aeabi_dadd+0x4f6>
 8000442:	4d6d      	ldr	r5, [pc, #436]	@ (80005f8 <__aeabi_dadd+0x388>)
 8000444:	42aa      	cmp	r2, r5
 8000446:	d100      	bne.n	800044a <__aeabi_dadd+0x1da>
 8000448:	e0dc      	b.n	8000604 <__aeabi_dadd+0x394>
 800044a:	2501      	movs	r5, #1
 800044c:	2938      	cmp	r1, #56	@ 0x38
 800044e:	dc14      	bgt.n	800047a <__aeabi_dadd+0x20a>
 8000450:	000a      	movs	r2, r1
 8000452:	2a1f      	cmp	r2, #31
 8000454:	dd00      	ble.n	8000458 <__aeabi_dadd+0x1e8>
 8000456:	e1a2      	b.n	800079e <__aeabi_dadd+0x52e>
 8000458:	2120      	movs	r1, #32
 800045a:	4653      	mov	r3, sl
 800045c:	1a89      	subs	r1, r1, r2
 800045e:	408b      	lsls	r3, r1
 8000460:	001d      	movs	r5, r3
 8000462:	4663      	mov	r3, ip
 8000464:	40d3      	lsrs	r3, r2
 8000466:	431d      	orrs	r5, r3
 8000468:	4663      	mov	r3, ip
 800046a:	408b      	lsls	r3, r1
 800046c:	0019      	movs	r1, r3
 800046e:	1e4b      	subs	r3, r1, #1
 8000470:	4199      	sbcs	r1, r3
 8000472:	4653      	mov	r3, sl
 8000474:	40d3      	lsrs	r3, r2
 8000476:	430d      	orrs	r5, r1
 8000478:	18e4      	adds	r4, r4, r3
 800047a:	182d      	adds	r5, r5, r0
 800047c:	4285      	cmp	r5, r0
 800047e:	4180      	sbcs	r0, r0
 8000480:	4240      	negs	r0, r0
 8000482:	1824      	adds	r4, r4, r0
 8000484:	0223      	lsls	r3, r4, #8
 8000486:	d559      	bpl.n	800053c <__aeabi_dadd+0x2cc>
 8000488:	4b5b      	ldr	r3, [pc, #364]	@ (80005f8 <__aeabi_dadd+0x388>)
 800048a:	3701      	adds	r7, #1
 800048c:	429f      	cmp	r7, r3
 800048e:	d051      	beq.n	8000534 <__aeabi_dadd+0x2c4>
 8000490:	2101      	movs	r1, #1
 8000492:	4b5a      	ldr	r3, [pc, #360]	@ (80005fc <__aeabi_dadd+0x38c>)
 8000494:	086a      	lsrs	r2, r5, #1
 8000496:	401c      	ands	r4, r3
 8000498:	4029      	ands	r1, r5
 800049a:	430a      	orrs	r2, r1
 800049c:	07e5      	lsls	r5, r4, #31
 800049e:	4315      	orrs	r5, r2
 80004a0:	0864      	lsrs	r4, r4, #1
 80004a2:	e75f      	b.n	8000364 <__aeabi_dadd+0xf4>
 80004a4:	4661      	mov	r1, ip
 80004a6:	4653      	mov	r3, sl
 80004a8:	4319      	orrs	r1, r3
 80004aa:	d100      	bne.n	80004ae <__aeabi_dadd+0x23e>
 80004ac:	e0bc      	b.n	8000628 <__aeabi_dadd+0x3b8>
 80004ae:	1e51      	subs	r1, r2, #1
 80004b0:	2a01      	cmp	r2, #1
 80004b2:	d100      	bne.n	80004b6 <__aeabi_dadd+0x246>
 80004b4:	e164      	b.n	8000780 <__aeabi_dadd+0x510>
 80004b6:	4d50      	ldr	r5, [pc, #320]	@ (80005f8 <__aeabi_dadd+0x388>)
 80004b8:	42aa      	cmp	r2, r5
 80004ba:	d100      	bne.n	80004be <__aeabi_dadd+0x24e>
 80004bc:	e16a      	b.n	8000794 <__aeabi_dadd+0x524>
 80004be:	2501      	movs	r5, #1
 80004c0:	2938      	cmp	r1, #56	@ 0x38
 80004c2:	dd00      	ble.n	80004c6 <__aeabi_dadd+0x256>
 80004c4:	e722      	b.n	800030c <__aeabi_dadd+0x9c>
 80004c6:	000a      	movs	r2, r1
 80004c8:	e70e      	b.n	80002e8 <__aeabi_dadd+0x78>
 80004ca:	4a4d      	ldr	r2, [pc, #308]	@ (8000600 <__aeabi_dadd+0x390>)
 80004cc:	1c7d      	adds	r5, r7, #1
 80004ce:	4215      	tst	r5, r2
 80004d0:	d000      	beq.n	80004d4 <__aeabi_dadd+0x264>
 80004d2:	e0d0      	b.n	8000676 <__aeabi_dadd+0x406>
 80004d4:	0025      	movs	r5, r4
 80004d6:	4662      	mov	r2, ip
 80004d8:	4653      	mov	r3, sl
 80004da:	4305      	orrs	r5, r0
 80004dc:	431a      	orrs	r2, r3
 80004de:	2f00      	cmp	r7, #0
 80004e0:	d000      	beq.n	80004e4 <__aeabi_dadd+0x274>
 80004e2:	e137      	b.n	8000754 <__aeabi_dadd+0x4e4>
 80004e4:	2d00      	cmp	r5, #0
 80004e6:	d100      	bne.n	80004ea <__aeabi_dadd+0x27a>
 80004e8:	e1a8      	b.n	800083c <__aeabi_dadd+0x5cc>
 80004ea:	2a00      	cmp	r2, #0
 80004ec:	d100      	bne.n	80004f0 <__aeabi_dadd+0x280>
 80004ee:	e16a      	b.n	80007c6 <__aeabi_dadd+0x556>
 80004f0:	4663      	mov	r3, ip
 80004f2:	1ac5      	subs	r5, r0, r3
 80004f4:	4653      	mov	r3, sl
 80004f6:	1ae2      	subs	r2, r4, r3
 80004f8:	42a8      	cmp	r0, r5
 80004fa:	419b      	sbcs	r3, r3
 80004fc:	425b      	negs	r3, r3
 80004fe:	1ad3      	subs	r3, r2, r3
 8000500:	021a      	lsls	r2, r3, #8
 8000502:	d400      	bmi.n	8000506 <__aeabi_dadd+0x296>
 8000504:	e203      	b.n	800090e <__aeabi_dadd+0x69e>
 8000506:	4663      	mov	r3, ip
 8000508:	1a1d      	subs	r5, r3, r0
 800050a:	45ac      	cmp	ip, r5
 800050c:	4192      	sbcs	r2, r2
 800050e:	4653      	mov	r3, sl
 8000510:	4252      	negs	r2, r2
 8000512:	1b1c      	subs	r4, r3, r4
 8000514:	000e      	movs	r6, r1
 8000516:	4688      	mov	r8, r1
 8000518:	1aa4      	subs	r4, r4, r2
 800051a:	e723      	b.n	8000364 <__aeabi_dadd+0xf4>
 800051c:	4936      	ldr	r1, [pc, #216]	@ (80005f8 <__aeabi_dadd+0x388>)
 800051e:	428f      	cmp	r7, r1
 8000520:	d070      	beq.n	8000604 <__aeabi_dadd+0x394>
 8000522:	2501      	movs	r5, #1
 8000524:	2a38      	cmp	r2, #56	@ 0x38
 8000526:	dca8      	bgt.n	800047a <__aeabi_dadd+0x20a>
 8000528:	2180      	movs	r1, #128	@ 0x80
 800052a:	4653      	mov	r3, sl
 800052c:	0409      	lsls	r1, r1, #16
 800052e:	430b      	orrs	r3, r1
 8000530:	469a      	mov	sl, r3
 8000532:	e78e      	b.n	8000452 <__aeabi_dadd+0x1e2>
 8000534:	003c      	movs	r4, r7
 8000536:	2500      	movs	r5, #0
 8000538:	2200      	movs	r2, #0
 800053a:	e731      	b.n	80003a0 <__aeabi_dadd+0x130>
 800053c:	2307      	movs	r3, #7
 800053e:	402b      	ands	r3, r5
 8000540:	2b00      	cmp	r3, #0
 8000542:	d000      	beq.n	8000546 <__aeabi_dadd+0x2d6>
 8000544:	e710      	b.n	8000368 <__aeabi_dadd+0xf8>
 8000546:	e093      	b.n	8000670 <__aeabi_dadd+0x400>
 8000548:	2a00      	cmp	r2, #0
 800054a:	d074      	beq.n	8000636 <__aeabi_dadd+0x3c6>
 800054c:	464a      	mov	r2, r9
 800054e:	1bd2      	subs	r2, r2, r7
 8000550:	2f00      	cmp	r7, #0
 8000552:	d100      	bne.n	8000556 <__aeabi_dadd+0x2e6>
 8000554:	e0c7      	b.n	80006e6 <__aeabi_dadd+0x476>
 8000556:	4928      	ldr	r1, [pc, #160]	@ (80005f8 <__aeabi_dadd+0x388>)
 8000558:	4589      	cmp	r9, r1
 800055a:	d100      	bne.n	800055e <__aeabi_dadd+0x2ee>
 800055c:	e185      	b.n	800086a <__aeabi_dadd+0x5fa>
 800055e:	2501      	movs	r5, #1
 8000560:	2a38      	cmp	r2, #56	@ 0x38
 8000562:	dc12      	bgt.n	800058a <__aeabi_dadd+0x31a>
 8000564:	2180      	movs	r1, #128	@ 0x80
 8000566:	0409      	lsls	r1, r1, #16
 8000568:	430c      	orrs	r4, r1
 800056a:	2a1f      	cmp	r2, #31
 800056c:	dd00      	ble.n	8000570 <__aeabi_dadd+0x300>
 800056e:	e1ab      	b.n	80008c8 <__aeabi_dadd+0x658>
 8000570:	2120      	movs	r1, #32
 8000572:	0025      	movs	r5, r4
 8000574:	1a89      	subs	r1, r1, r2
 8000576:	0007      	movs	r7, r0
 8000578:	4088      	lsls	r0, r1
 800057a:	408d      	lsls	r5, r1
 800057c:	40d7      	lsrs	r7, r2
 800057e:	1e41      	subs	r1, r0, #1
 8000580:	4188      	sbcs	r0, r1
 8000582:	40d4      	lsrs	r4, r2
 8000584:	433d      	orrs	r5, r7
 8000586:	4305      	orrs	r5, r0
 8000588:	44a2      	add	sl, r4
 800058a:	4465      	add	r5, ip
 800058c:	4565      	cmp	r5, ip
 800058e:	4192      	sbcs	r2, r2
 8000590:	4252      	negs	r2, r2
 8000592:	4452      	add	r2, sl
 8000594:	0014      	movs	r4, r2
 8000596:	464f      	mov	r7, r9
 8000598:	e774      	b.n	8000484 <__aeabi_dadd+0x214>
 800059a:	0028      	movs	r0, r5
 800059c:	f001 fbf2 	bl	8001d84 <__clzsi2>
 80005a0:	0003      	movs	r3, r0
 80005a2:	3318      	adds	r3, #24
 80005a4:	2b1f      	cmp	r3, #31
 80005a6:	dc00      	bgt.n	80005aa <__aeabi_dadd+0x33a>
 80005a8:	e6c2      	b.n	8000330 <__aeabi_dadd+0xc0>
 80005aa:	002a      	movs	r2, r5
 80005ac:	3808      	subs	r0, #8
 80005ae:	4082      	lsls	r2, r0
 80005b0:	429f      	cmp	r7, r3
 80005b2:	dd00      	ble.n	80005b6 <__aeabi_dadd+0x346>
 80005b4:	e0a9      	b.n	800070a <__aeabi_dadd+0x49a>
 80005b6:	1bdb      	subs	r3, r3, r7
 80005b8:	1c58      	adds	r0, r3, #1
 80005ba:	281f      	cmp	r0, #31
 80005bc:	dc00      	bgt.n	80005c0 <__aeabi_dadd+0x350>
 80005be:	e1ac      	b.n	800091a <__aeabi_dadd+0x6aa>
 80005c0:	0015      	movs	r5, r2
 80005c2:	3b1f      	subs	r3, #31
 80005c4:	40dd      	lsrs	r5, r3
 80005c6:	2820      	cmp	r0, #32
 80005c8:	d005      	beq.n	80005d6 <__aeabi_dadd+0x366>
 80005ca:	2340      	movs	r3, #64	@ 0x40
 80005cc:	1a1b      	subs	r3, r3, r0
 80005ce:	409a      	lsls	r2, r3
 80005d0:	1e53      	subs	r3, r2, #1
 80005d2:	419a      	sbcs	r2, r3
 80005d4:	4315      	orrs	r5, r2
 80005d6:	2307      	movs	r3, #7
 80005d8:	2700      	movs	r7, #0
 80005da:	402b      	ands	r3, r5
 80005dc:	e7b0      	b.n	8000540 <__aeabi_dadd+0x2d0>
 80005de:	08ed      	lsrs	r5, r5, #3
 80005e0:	4b05      	ldr	r3, [pc, #20]	@ (80005f8 <__aeabi_dadd+0x388>)
 80005e2:	0762      	lsls	r2, r4, #29
 80005e4:	432a      	orrs	r2, r5
 80005e6:	08e4      	lsrs	r4, r4, #3
 80005e8:	429f      	cmp	r7, r3
 80005ea:	d00f      	beq.n	800060c <__aeabi_dadd+0x39c>
 80005ec:	0324      	lsls	r4, r4, #12
 80005ee:	0b25      	lsrs	r5, r4, #12
 80005f0:	057c      	lsls	r4, r7, #21
 80005f2:	0d64      	lsrs	r4, r4, #21
 80005f4:	e6d4      	b.n	80003a0 <__aeabi_dadd+0x130>
 80005f6:	46c0      	nop			@ (mov r8, r8)
 80005f8:	000007ff 	.word	0x000007ff
 80005fc:	ff7fffff 	.word	0xff7fffff
 8000600:	000007fe 	.word	0x000007fe
 8000604:	08c0      	lsrs	r0, r0, #3
 8000606:	0762      	lsls	r2, r4, #29
 8000608:	4302      	orrs	r2, r0
 800060a:	08e4      	lsrs	r4, r4, #3
 800060c:	0013      	movs	r3, r2
 800060e:	4323      	orrs	r3, r4
 8000610:	d100      	bne.n	8000614 <__aeabi_dadd+0x3a4>
 8000612:	e186      	b.n	8000922 <__aeabi_dadd+0x6b2>
 8000614:	2580      	movs	r5, #128	@ 0x80
 8000616:	032d      	lsls	r5, r5, #12
 8000618:	4325      	orrs	r5, r4
 800061a:	032d      	lsls	r5, r5, #12
 800061c:	4cc3      	ldr	r4, [pc, #780]	@ (800092c <__aeabi_dadd+0x6bc>)
 800061e:	0b2d      	lsrs	r5, r5, #12
 8000620:	e6be      	b.n	80003a0 <__aeabi_dadd+0x130>
 8000622:	4660      	mov	r0, ip
 8000624:	4654      	mov	r4, sl
 8000626:	000e      	movs	r6, r1
 8000628:	0017      	movs	r7, r2
 800062a:	08c5      	lsrs	r5, r0, #3
 800062c:	e7d8      	b.n	80005e0 <__aeabi_dadd+0x370>
 800062e:	4cc0      	ldr	r4, [pc, #768]	@ (8000930 <__aeabi_dadd+0x6c0>)
 8000630:	1aff      	subs	r7, r7, r3
 8000632:	4014      	ands	r4, r2
 8000634:	e696      	b.n	8000364 <__aeabi_dadd+0xf4>
 8000636:	4abf      	ldr	r2, [pc, #764]	@ (8000934 <__aeabi_dadd+0x6c4>)
 8000638:	1c79      	adds	r1, r7, #1
 800063a:	4211      	tst	r1, r2
 800063c:	d16b      	bne.n	8000716 <__aeabi_dadd+0x4a6>
 800063e:	0022      	movs	r2, r4
 8000640:	4302      	orrs	r2, r0
 8000642:	2f00      	cmp	r7, #0
 8000644:	d000      	beq.n	8000648 <__aeabi_dadd+0x3d8>
 8000646:	e0db      	b.n	8000800 <__aeabi_dadd+0x590>
 8000648:	2a00      	cmp	r2, #0
 800064a:	d100      	bne.n	800064e <__aeabi_dadd+0x3de>
 800064c:	e12d      	b.n	80008aa <__aeabi_dadd+0x63a>
 800064e:	4662      	mov	r2, ip
 8000650:	4653      	mov	r3, sl
 8000652:	431a      	orrs	r2, r3
 8000654:	d100      	bne.n	8000658 <__aeabi_dadd+0x3e8>
 8000656:	e0b6      	b.n	80007c6 <__aeabi_dadd+0x556>
 8000658:	4663      	mov	r3, ip
 800065a:	18c5      	adds	r5, r0, r3
 800065c:	4285      	cmp	r5, r0
 800065e:	4180      	sbcs	r0, r0
 8000660:	4454      	add	r4, sl
 8000662:	4240      	negs	r0, r0
 8000664:	1824      	adds	r4, r4, r0
 8000666:	0223      	lsls	r3, r4, #8
 8000668:	d502      	bpl.n	8000670 <__aeabi_dadd+0x400>
 800066a:	000f      	movs	r7, r1
 800066c:	4bb0      	ldr	r3, [pc, #704]	@ (8000930 <__aeabi_dadd+0x6c0>)
 800066e:	401c      	ands	r4, r3
 8000670:	003a      	movs	r2, r7
 8000672:	0028      	movs	r0, r5
 8000674:	e7d8      	b.n	8000628 <__aeabi_dadd+0x3b8>
 8000676:	4662      	mov	r2, ip
 8000678:	1a85      	subs	r5, r0, r2
 800067a:	42a8      	cmp	r0, r5
 800067c:	4192      	sbcs	r2, r2
 800067e:	4653      	mov	r3, sl
 8000680:	4252      	negs	r2, r2
 8000682:	4691      	mov	r9, r2
 8000684:	1ae3      	subs	r3, r4, r3
 8000686:	001a      	movs	r2, r3
 8000688:	464b      	mov	r3, r9
 800068a:	1ad2      	subs	r2, r2, r3
 800068c:	0013      	movs	r3, r2
 800068e:	4691      	mov	r9, r2
 8000690:	021a      	lsls	r2, r3, #8
 8000692:	d454      	bmi.n	800073e <__aeabi_dadd+0x4ce>
 8000694:	464a      	mov	r2, r9
 8000696:	464c      	mov	r4, r9
 8000698:	432a      	orrs	r2, r5
 800069a:	d000      	beq.n	800069e <__aeabi_dadd+0x42e>
 800069c:	e640      	b.n	8000320 <__aeabi_dadd+0xb0>
 800069e:	2600      	movs	r6, #0
 80006a0:	2400      	movs	r4, #0
 80006a2:	2500      	movs	r5, #0
 80006a4:	e67c      	b.n	80003a0 <__aeabi_dadd+0x130>
 80006a6:	4da1      	ldr	r5, [pc, #644]	@ (800092c <__aeabi_dadd+0x6bc>)
 80006a8:	45a9      	cmp	r9, r5
 80006aa:	d100      	bne.n	80006ae <__aeabi_dadd+0x43e>
 80006ac:	e090      	b.n	80007d0 <__aeabi_dadd+0x560>
 80006ae:	2501      	movs	r5, #1
 80006b0:	2a38      	cmp	r2, #56	@ 0x38
 80006b2:	dd00      	ble.n	80006b6 <__aeabi_dadd+0x446>
 80006b4:	e6ab      	b.n	800040e <__aeabi_dadd+0x19e>
 80006b6:	2580      	movs	r5, #128	@ 0x80
 80006b8:	042d      	lsls	r5, r5, #16
 80006ba:	432c      	orrs	r4, r5
 80006bc:	e695      	b.n	80003ea <__aeabi_dadd+0x17a>
 80006be:	0011      	movs	r1, r2
 80006c0:	4655      	mov	r5, sl
 80006c2:	3920      	subs	r1, #32
 80006c4:	40cd      	lsrs	r5, r1
 80006c6:	46a9      	mov	r9, r5
 80006c8:	2a20      	cmp	r2, #32
 80006ca:	d006      	beq.n	80006da <__aeabi_dadd+0x46a>
 80006cc:	2140      	movs	r1, #64	@ 0x40
 80006ce:	4653      	mov	r3, sl
 80006d0:	1a8a      	subs	r2, r1, r2
 80006d2:	4093      	lsls	r3, r2
 80006d4:	4662      	mov	r2, ip
 80006d6:	431a      	orrs	r2, r3
 80006d8:	4694      	mov	ip, r2
 80006da:	4665      	mov	r5, ip
 80006dc:	1e6b      	subs	r3, r5, #1
 80006de:	419d      	sbcs	r5, r3
 80006e0:	464b      	mov	r3, r9
 80006e2:	431d      	orrs	r5, r3
 80006e4:	e612      	b.n	800030c <__aeabi_dadd+0x9c>
 80006e6:	0021      	movs	r1, r4
 80006e8:	4301      	orrs	r1, r0
 80006ea:	d100      	bne.n	80006ee <__aeabi_dadd+0x47e>
 80006ec:	e0c4      	b.n	8000878 <__aeabi_dadd+0x608>
 80006ee:	1e51      	subs	r1, r2, #1
 80006f0:	2a01      	cmp	r2, #1
 80006f2:	d100      	bne.n	80006f6 <__aeabi_dadd+0x486>
 80006f4:	e0fb      	b.n	80008ee <__aeabi_dadd+0x67e>
 80006f6:	4d8d      	ldr	r5, [pc, #564]	@ (800092c <__aeabi_dadd+0x6bc>)
 80006f8:	42aa      	cmp	r2, r5
 80006fa:	d100      	bne.n	80006fe <__aeabi_dadd+0x48e>
 80006fc:	e0b5      	b.n	800086a <__aeabi_dadd+0x5fa>
 80006fe:	2501      	movs	r5, #1
 8000700:	2938      	cmp	r1, #56	@ 0x38
 8000702:	dd00      	ble.n	8000706 <__aeabi_dadd+0x496>
 8000704:	e741      	b.n	800058a <__aeabi_dadd+0x31a>
 8000706:	000a      	movs	r2, r1
 8000708:	e72f      	b.n	800056a <__aeabi_dadd+0x2fa>
 800070a:	4c89      	ldr	r4, [pc, #548]	@ (8000930 <__aeabi_dadd+0x6c0>)
 800070c:	1aff      	subs	r7, r7, r3
 800070e:	4014      	ands	r4, r2
 8000710:	0762      	lsls	r2, r4, #29
 8000712:	08e4      	lsrs	r4, r4, #3
 8000714:	e76a      	b.n	80005ec <__aeabi_dadd+0x37c>
 8000716:	4a85      	ldr	r2, [pc, #532]	@ (800092c <__aeabi_dadd+0x6bc>)
 8000718:	4291      	cmp	r1, r2
 800071a:	d100      	bne.n	800071e <__aeabi_dadd+0x4ae>
 800071c:	e0e3      	b.n	80008e6 <__aeabi_dadd+0x676>
 800071e:	4663      	mov	r3, ip
 8000720:	18c2      	adds	r2, r0, r3
 8000722:	4282      	cmp	r2, r0
 8000724:	4180      	sbcs	r0, r0
 8000726:	0023      	movs	r3, r4
 8000728:	4240      	negs	r0, r0
 800072a:	4453      	add	r3, sl
 800072c:	181b      	adds	r3, r3, r0
 800072e:	07dd      	lsls	r5, r3, #31
 8000730:	085c      	lsrs	r4, r3, #1
 8000732:	2307      	movs	r3, #7
 8000734:	0852      	lsrs	r2, r2, #1
 8000736:	4315      	orrs	r5, r2
 8000738:	000f      	movs	r7, r1
 800073a:	402b      	ands	r3, r5
 800073c:	e700      	b.n	8000540 <__aeabi_dadd+0x2d0>
 800073e:	4663      	mov	r3, ip
 8000740:	1a1d      	subs	r5, r3, r0
 8000742:	45ac      	cmp	ip, r5
 8000744:	4192      	sbcs	r2, r2
 8000746:	4653      	mov	r3, sl
 8000748:	4252      	negs	r2, r2
 800074a:	1b1c      	subs	r4, r3, r4
 800074c:	000e      	movs	r6, r1
 800074e:	4688      	mov	r8, r1
 8000750:	1aa4      	subs	r4, r4, r2
 8000752:	e5e5      	b.n	8000320 <__aeabi_dadd+0xb0>
 8000754:	2d00      	cmp	r5, #0
 8000756:	d000      	beq.n	800075a <__aeabi_dadd+0x4ea>
 8000758:	e091      	b.n	800087e <__aeabi_dadd+0x60e>
 800075a:	2a00      	cmp	r2, #0
 800075c:	d138      	bne.n	80007d0 <__aeabi_dadd+0x560>
 800075e:	2480      	movs	r4, #128	@ 0x80
 8000760:	2600      	movs	r6, #0
 8000762:	0324      	lsls	r4, r4, #12
 8000764:	e756      	b.n	8000614 <__aeabi_dadd+0x3a4>
 8000766:	4663      	mov	r3, ip
 8000768:	18c5      	adds	r5, r0, r3
 800076a:	4285      	cmp	r5, r0
 800076c:	4180      	sbcs	r0, r0
 800076e:	4454      	add	r4, sl
 8000770:	4240      	negs	r0, r0
 8000772:	1824      	adds	r4, r4, r0
 8000774:	2701      	movs	r7, #1
 8000776:	0223      	lsls	r3, r4, #8
 8000778:	d400      	bmi.n	800077c <__aeabi_dadd+0x50c>
 800077a:	e6df      	b.n	800053c <__aeabi_dadd+0x2cc>
 800077c:	2702      	movs	r7, #2
 800077e:	e687      	b.n	8000490 <__aeabi_dadd+0x220>
 8000780:	4663      	mov	r3, ip
 8000782:	1ac5      	subs	r5, r0, r3
 8000784:	42a8      	cmp	r0, r5
 8000786:	4180      	sbcs	r0, r0
 8000788:	4653      	mov	r3, sl
 800078a:	4240      	negs	r0, r0
 800078c:	1ae4      	subs	r4, r4, r3
 800078e:	2701      	movs	r7, #1
 8000790:	1a24      	subs	r4, r4, r0
 8000792:	e5c0      	b.n	8000316 <__aeabi_dadd+0xa6>
 8000794:	0762      	lsls	r2, r4, #29
 8000796:	08c0      	lsrs	r0, r0, #3
 8000798:	4302      	orrs	r2, r0
 800079a:	08e4      	lsrs	r4, r4, #3
 800079c:	e736      	b.n	800060c <__aeabi_dadd+0x39c>
 800079e:	0011      	movs	r1, r2
 80007a0:	4653      	mov	r3, sl
 80007a2:	3920      	subs	r1, #32
 80007a4:	40cb      	lsrs	r3, r1
 80007a6:	4699      	mov	r9, r3
 80007a8:	2a20      	cmp	r2, #32
 80007aa:	d006      	beq.n	80007ba <__aeabi_dadd+0x54a>
 80007ac:	2140      	movs	r1, #64	@ 0x40
 80007ae:	4653      	mov	r3, sl
 80007b0:	1a8a      	subs	r2, r1, r2
 80007b2:	4093      	lsls	r3, r2
 80007b4:	4662      	mov	r2, ip
 80007b6:	431a      	orrs	r2, r3
 80007b8:	4694      	mov	ip, r2
 80007ba:	4665      	mov	r5, ip
 80007bc:	1e6b      	subs	r3, r5, #1
 80007be:	419d      	sbcs	r5, r3
 80007c0:	464b      	mov	r3, r9
 80007c2:	431d      	orrs	r5, r3
 80007c4:	e659      	b.n	800047a <__aeabi_dadd+0x20a>
 80007c6:	0762      	lsls	r2, r4, #29
 80007c8:	08c0      	lsrs	r0, r0, #3
 80007ca:	4302      	orrs	r2, r0
 80007cc:	08e4      	lsrs	r4, r4, #3
 80007ce:	e70d      	b.n	80005ec <__aeabi_dadd+0x37c>
 80007d0:	4653      	mov	r3, sl
 80007d2:	075a      	lsls	r2, r3, #29
 80007d4:	4663      	mov	r3, ip
 80007d6:	08d8      	lsrs	r0, r3, #3
 80007d8:	4653      	mov	r3, sl
 80007da:	000e      	movs	r6, r1
 80007dc:	4302      	orrs	r2, r0
 80007de:	08dc      	lsrs	r4, r3, #3
 80007e0:	e714      	b.n	800060c <__aeabi_dadd+0x39c>
 80007e2:	0015      	movs	r5, r2
 80007e4:	0026      	movs	r6, r4
 80007e6:	3d20      	subs	r5, #32
 80007e8:	40ee      	lsrs	r6, r5
 80007ea:	2a20      	cmp	r2, #32
 80007ec:	d003      	beq.n	80007f6 <__aeabi_dadd+0x586>
 80007ee:	2540      	movs	r5, #64	@ 0x40
 80007f0:	1aaa      	subs	r2, r5, r2
 80007f2:	4094      	lsls	r4, r2
 80007f4:	4320      	orrs	r0, r4
 80007f6:	1e42      	subs	r2, r0, #1
 80007f8:	4190      	sbcs	r0, r2
 80007fa:	0005      	movs	r5, r0
 80007fc:	4335      	orrs	r5, r6
 80007fe:	e606      	b.n	800040e <__aeabi_dadd+0x19e>
 8000800:	2a00      	cmp	r2, #0
 8000802:	d07c      	beq.n	80008fe <__aeabi_dadd+0x68e>
 8000804:	4662      	mov	r2, ip
 8000806:	4653      	mov	r3, sl
 8000808:	08c0      	lsrs	r0, r0, #3
 800080a:	431a      	orrs	r2, r3
 800080c:	d100      	bne.n	8000810 <__aeabi_dadd+0x5a0>
 800080e:	e6fa      	b.n	8000606 <__aeabi_dadd+0x396>
 8000810:	0762      	lsls	r2, r4, #29
 8000812:	4310      	orrs	r0, r2
 8000814:	2280      	movs	r2, #128	@ 0x80
 8000816:	08e4      	lsrs	r4, r4, #3
 8000818:	0312      	lsls	r2, r2, #12
 800081a:	4214      	tst	r4, r2
 800081c:	d008      	beq.n	8000830 <__aeabi_dadd+0x5c0>
 800081e:	08d9      	lsrs	r1, r3, #3
 8000820:	4211      	tst	r1, r2
 8000822:	d105      	bne.n	8000830 <__aeabi_dadd+0x5c0>
 8000824:	4663      	mov	r3, ip
 8000826:	08d8      	lsrs	r0, r3, #3
 8000828:	4653      	mov	r3, sl
 800082a:	000c      	movs	r4, r1
 800082c:	075b      	lsls	r3, r3, #29
 800082e:	4318      	orrs	r0, r3
 8000830:	0f42      	lsrs	r2, r0, #29
 8000832:	00c0      	lsls	r0, r0, #3
 8000834:	08c0      	lsrs	r0, r0, #3
 8000836:	0752      	lsls	r2, r2, #29
 8000838:	4302      	orrs	r2, r0
 800083a:	e6e7      	b.n	800060c <__aeabi_dadd+0x39c>
 800083c:	2a00      	cmp	r2, #0
 800083e:	d100      	bne.n	8000842 <__aeabi_dadd+0x5d2>
 8000840:	e72d      	b.n	800069e <__aeabi_dadd+0x42e>
 8000842:	4663      	mov	r3, ip
 8000844:	08d8      	lsrs	r0, r3, #3
 8000846:	4653      	mov	r3, sl
 8000848:	075a      	lsls	r2, r3, #29
 800084a:	000e      	movs	r6, r1
 800084c:	4302      	orrs	r2, r0
 800084e:	08dc      	lsrs	r4, r3, #3
 8000850:	e6cc      	b.n	80005ec <__aeabi_dadd+0x37c>
 8000852:	4663      	mov	r3, ip
 8000854:	1a1d      	subs	r5, r3, r0
 8000856:	45ac      	cmp	ip, r5
 8000858:	4192      	sbcs	r2, r2
 800085a:	4653      	mov	r3, sl
 800085c:	4252      	negs	r2, r2
 800085e:	1b1c      	subs	r4, r3, r4
 8000860:	000e      	movs	r6, r1
 8000862:	4688      	mov	r8, r1
 8000864:	1aa4      	subs	r4, r4, r2
 8000866:	3701      	adds	r7, #1
 8000868:	e555      	b.n	8000316 <__aeabi_dadd+0xa6>
 800086a:	4663      	mov	r3, ip
 800086c:	08d9      	lsrs	r1, r3, #3
 800086e:	4653      	mov	r3, sl
 8000870:	075a      	lsls	r2, r3, #29
 8000872:	430a      	orrs	r2, r1
 8000874:	08dc      	lsrs	r4, r3, #3
 8000876:	e6c9      	b.n	800060c <__aeabi_dadd+0x39c>
 8000878:	4660      	mov	r0, ip
 800087a:	4654      	mov	r4, sl
 800087c:	e6d4      	b.n	8000628 <__aeabi_dadd+0x3b8>
 800087e:	08c0      	lsrs	r0, r0, #3
 8000880:	2a00      	cmp	r2, #0
 8000882:	d100      	bne.n	8000886 <__aeabi_dadd+0x616>
 8000884:	e6bf      	b.n	8000606 <__aeabi_dadd+0x396>
 8000886:	0762      	lsls	r2, r4, #29
 8000888:	4310      	orrs	r0, r2
 800088a:	2280      	movs	r2, #128	@ 0x80
 800088c:	08e4      	lsrs	r4, r4, #3
 800088e:	0312      	lsls	r2, r2, #12
 8000890:	4214      	tst	r4, r2
 8000892:	d0cd      	beq.n	8000830 <__aeabi_dadd+0x5c0>
 8000894:	08dd      	lsrs	r5, r3, #3
 8000896:	4215      	tst	r5, r2
 8000898:	d1ca      	bne.n	8000830 <__aeabi_dadd+0x5c0>
 800089a:	4663      	mov	r3, ip
 800089c:	08d8      	lsrs	r0, r3, #3
 800089e:	4653      	mov	r3, sl
 80008a0:	075b      	lsls	r3, r3, #29
 80008a2:	000e      	movs	r6, r1
 80008a4:	002c      	movs	r4, r5
 80008a6:	4318      	orrs	r0, r3
 80008a8:	e7c2      	b.n	8000830 <__aeabi_dadd+0x5c0>
 80008aa:	4663      	mov	r3, ip
 80008ac:	08d9      	lsrs	r1, r3, #3
 80008ae:	4653      	mov	r3, sl
 80008b0:	075a      	lsls	r2, r3, #29
 80008b2:	430a      	orrs	r2, r1
 80008b4:	08dc      	lsrs	r4, r3, #3
 80008b6:	e699      	b.n	80005ec <__aeabi_dadd+0x37c>
 80008b8:	4663      	mov	r3, ip
 80008ba:	08d8      	lsrs	r0, r3, #3
 80008bc:	4653      	mov	r3, sl
 80008be:	075a      	lsls	r2, r3, #29
 80008c0:	000e      	movs	r6, r1
 80008c2:	4302      	orrs	r2, r0
 80008c4:	08dc      	lsrs	r4, r3, #3
 80008c6:	e6a1      	b.n	800060c <__aeabi_dadd+0x39c>
 80008c8:	0011      	movs	r1, r2
 80008ca:	0027      	movs	r7, r4
 80008cc:	3920      	subs	r1, #32
 80008ce:	40cf      	lsrs	r7, r1
 80008d0:	2a20      	cmp	r2, #32
 80008d2:	d003      	beq.n	80008dc <__aeabi_dadd+0x66c>
 80008d4:	2140      	movs	r1, #64	@ 0x40
 80008d6:	1a8a      	subs	r2, r1, r2
 80008d8:	4094      	lsls	r4, r2
 80008da:	4320      	orrs	r0, r4
 80008dc:	1e42      	subs	r2, r0, #1
 80008de:	4190      	sbcs	r0, r2
 80008e0:	0005      	movs	r5, r0
 80008e2:	433d      	orrs	r5, r7
 80008e4:	e651      	b.n	800058a <__aeabi_dadd+0x31a>
 80008e6:	000c      	movs	r4, r1
 80008e8:	2500      	movs	r5, #0
 80008ea:	2200      	movs	r2, #0
 80008ec:	e558      	b.n	80003a0 <__aeabi_dadd+0x130>
 80008ee:	4460      	add	r0, ip
 80008f0:	4560      	cmp	r0, ip
 80008f2:	4192      	sbcs	r2, r2
 80008f4:	4454      	add	r4, sl
 80008f6:	4252      	negs	r2, r2
 80008f8:	0005      	movs	r5, r0
 80008fa:	18a4      	adds	r4, r4, r2
 80008fc:	e73a      	b.n	8000774 <__aeabi_dadd+0x504>
 80008fe:	4653      	mov	r3, sl
 8000900:	075a      	lsls	r2, r3, #29
 8000902:	4663      	mov	r3, ip
 8000904:	08d9      	lsrs	r1, r3, #3
 8000906:	4653      	mov	r3, sl
 8000908:	430a      	orrs	r2, r1
 800090a:	08dc      	lsrs	r4, r3, #3
 800090c:	e67e      	b.n	800060c <__aeabi_dadd+0x39c>
 800090e:	001a      	movs	r2, r3
 8000910:	001c      	movs	r4, r3
 8000912:	432a      	orrs	r2, r5
 8000914:	d000      	beq.n	8000918 <__aeabi_dadd+0x6a8>
 8000916:	e6ab      	b.n	8000670 <__aeabi_dadd+0x400>
 8000918:	e6c1      	b.n	800069e <__aeabi_dadd+0x42e>
 800091a:	2120      	movs	r1, #32
 800091c:	2500      	movs	r5, #0
 800091e:	1a09      	subs	r1, r1, r0
 8000920:	e519      	b.n	8000356 <__aeabi_dadd+0xe6>
 8000922:	2200      	movs	r2, #0
 8000924:	2500      	movs	r5, #0
 8000926:	4c01      	ldr	r4, [pc, #4]	@ (800092c <__aeabi_dadd+0x6bc>)
 8000928:	e53a      	b.n	80003a0 <__aeabi_dadd+0x130>
 800092a:	46c0      	nop			@ (mov r8, r8)
 800092c:	000007ff 	.word	0x000007ff
 8000930:	ff7fffff 	.word	0xff7fffff
 8000934:	000007fe 	.word	0x000007fe

08000938 <__aeabi_ddiv>:
 8000938:	b5f0      	push	{r4, r5, r6, r7, lr}
 800093a:	46de      	mov	lr, fp
 800093c:	4645      	mov	r5, r8
 800093e:	4657      	mov	r7, sl
 8000940:	464e      	mov	r6, r9
 8000942:	b5e0      	push	{r5, r6, r7, lr}
 8000944:	b087      	sub	sp, #28
 8000946:	9200      	str	r2, [sp, #0]
 8000948:	9301      	str	r3, [sp, #4]
 800094a:	030b      	lsls	r3, r1, #12
 800094c:	0b1b      	lsrs	r3, r3, #12
 800094e:	469b      	mov	fp, r3
 8000950:	0fca      	lsrs	r2, r1, #31
 8000952:	004b      	lsls	r3, r1, #1
 8000954:	0004      	movs	r4, r0
 8000956:	4680      	mov	r8, r0
 8000958:	0d5b      	lsrs	r3, r3, #21
 800095a:	9202      	str	r2, [sp, #8]
 800095c:	d100      	bne.n	8000960 <__aeabi_ddiv+0x28>
 800095e:	e16a      	b.n	8000c36 <__aeabi_ddiv+0x2fe>
 8000960:	4ad4      	ldr	r2, [pc, #848]	@ (8000cb4 <__aeabi_ddiv+0x37c>)
 8000962:	4293      	cmp	r3, r2
 8000964:	d100      	bne.n	8000968 <__aeabi_ddiv+0x30>
 8000966:	e18c      	b.n	8000c82 <__aeabi_ddiv+0x34a>
 8000968:	4659      	mov	r1, fp
 800096a:	0f42      	lsrs	r2, r0, #29
 800096c:	00c9      	lsls	r1, r1, #3
 800096e:	430a      	orrs	r2, r1
 8000970:	2180      	movs	r1, #128	@ 0x80
 8000972:	0409      	lsls	r1, r1, #16
 8000974:	4311      	orrs	r1, r2
 8000976:	00c2      	lsls	r2, r0, #3
 8000978:	4690      	mov	r8, r2
 800097a:	4acf      	ldr	r2, [pc, #828]	@ (8000cb8 <__aeabi_ddiv+0x380>)
 800097c:	4689      	mov	r9, r1
 800097e:	4692      	mov	sl, r2
 8000980:	449a      	add	sl, r3
 8000982:	2300      	movs	r3, #0
 8000984:	2400      	movs	r4, #0
 8000986:	9303      	str	r3, [sp, #12]
 8000988:	9e00      	ldr	r6, [sp, #0]
 800098a:	9f01      	ldr	r7, [sp, #4]
 800098c:	033b      	lsls	r3, r7, #12
 800098e:	0b1b      	lsrs	r3, r3, #12
 8000990:	469b      	mov	fp, r3
 8000992:	007b      	lsls	r3, r7, #1
 8000994:	0030      	movs	r0, r6
 8000996:	0d5b      	lsrs	r3, r3, #21
 8000998:	0ffd      	lsrs	r5, r7, #31
 800099a:	2b00      	cmp	r3, #0
 800099c:	d100      	bne.n	80009a0 <__aeabi_ddiv+0x68>
 800099e:	e128      	b.n	8000bf2 <__aeabi_ddiv+0x2ba>
 80009a0:	4ac4      	ldr	r2, [pc, #784]	@ (8000cb4 <__aeabi_ddiv+0x37c>)
 80009a2:	4293      	cmp	r3, r2
 80009a4:	d100      	bne.n	80009a8 <__aeabi_ddiv+0x70>
 80009a6:	e177      	b.n	8000c98 <__aeabi_ddiv+0x360>
 80009a8:	4659      	mov	r1, fp
 80009aa:	0f72      	lsrs	r2, r6, #29
 80009ac:	00c9      	lsls	r1, r1, #3
 80009ae:	430a      	orrs	r2, r1
 80009b0:	2180      	movs	r1, #128	@ 0x80
 80009b2:	0409      	lsls	r1, r1, #16
 80009b4:	4311      	orrs	r1, r2
 80009b6:	468b      	mov	fp, r1
 80009b8:	49bf      	ldr	r1, [pc, #764]	@ (8000cb8 <__aeabi_ddiv+0x380>)
 80009ba:	00f2      	lsls	r2, r6, #3
 80009bc:	468c      	mov	ip, r1
 80009be:	4651      	mov	r1, sl
 80009c0:	4463      	add	r3, ip
 80009c2:	1acb      	subs	r3, r1, r3
 80009c4:	469a      	mov	sl, r3
 80009c6:	2300      	movs	r3, #0
 80009c8:	9e02      	ldr	r6, [sp, #8]
 80009ca:	406e      	eors	r6, r5
 80009cc:	2c0f      	cmp	r4, #15
 80009ce:	d827      	bhi.n	8000a20 <__aeabi_ddiv+0xe8>
 80009d0:	49ba      	ldr	r1, [pc, #744]	@ (8000cbc <__aeabi_ddiv+0x384>)
 80009d2:	00a4      	lsls	r4, r4, #2
 80009d4:	5909      	ldr	r1, [r1, r4]
 80009d6:	468f      	mov	pc, r1
 80009d8:	46cb      	mov	fp, r9
 80009da:	4642      	mov	r2, r8
 80009dc:	9e02      	ldr	r6, [sp, #8]
 80009de:	9b03      	ldr	r3, [sp, #12]
 80009e0:	2b02      	cmp	r3, #2
 80009e2:	d016      	beq.n	8000a12 <__aeabi_ddiv+0xda>
 80009e4:	2b03      	cmp	r3, #3
 80009e6:	d100      	bne.n	80009ea <__aeabi_ddiv+0xb2>
 80009e8:	e2a6      	b.n	8000f38 <__aeabi_ddiv+0x600>
 80009ea:	2b01      	cmp	r3, #1
 80009ec:	d000      	beq.n	80009f0 <__aeabi_ddiv+0xb8>
 80009ee:	e0df      	b.n	8000bb0 <__aeabi_ddiv+0x278>
 80009f0:	2200      	movs	r2, #0
 80009f2:	2300      	movs	r3, #0
 80009f4:	2400      	movs	r4, #0
 80009f6:	4690      	mov	r8, r2
 80009f8:	051b      	lsls	r3, r3, #20
 80009fa:	4323      	orrs	r3, r4
 80009fc:	07f6      	lsls	r6, r6, #31
 80009fe:	4333      	orrs	r3, r6
 8000a00:	4640      	mov	r0, r8
 8000a02:	0019      	movs	r1, r3
 8000a04:	b007      	add	sp, #28
 8000a06:	bcf0      	pop	{r4, r5, r6, r7}
 8000a08:	46bb      	mov	fp, r7
 8000a0a:	46b2      	mov	sl, r6
 8000a0c:	46a9      	mov	r9, r5
 8000a0e:	46a0      	mov	r8, r4
 8000a10:	bdf0      	pop	{r4, r5, r6, r7, pc}
 8000a12:	2200      	movs	r2, #0
 8000a14:	2400      	movs	r4, #0
 8000a16:	4690      	mov	r8, r2
 8000a18:	4ba6      	ldr	r3, [pc, #664]	@ (8000cb4 <__aeabi_ddiv+0x37c>)
 8000a1a:	e7ed      	b.n	80009f8 <__aeabi_ddiv+0xc0>
 8000a1c:	002e      	movs	r6, r5
 8000a1e:	e7df      	b.n	80009e0 <__aeabi_ddiv+0xa8>
 8000a20:	45cb      	cmp	fp, r9
 8000a22:	d200      	bcs.n	8000a26 <__aeabi_ddiv+0xee>
 8000a24:	e1d4      	b.n	8000dd0 <__aeabi_ddiv+0x498>
 8000a26:	d100      	bne.n	8000a2a <__aeabi_ddiv+0xf2>
 8000a28:	e1cf      	b.n	8000dca <__aeabi_ddiv+0x492>
 8000a2a:	2301      	movs	r3, #1
 8000a2c:	425b      	negs	r3, r3
 8000a2e:	469c      	mov	ip, r3
 8000a30:	4644      	mov	r4, r8
 8000a32:	4648      	mov	r0, r9
 8000a34:	2700      	movs	r7, #0
 8000a36:	44e2      	add	sl, ip
 8000a38:	465b      	mov	r3, fp
 8000a3a:	0e15      	lsrs	r5, r2, #24
 8000a3c:	021b      	lsls	r3, r3, #8
 8000a3e:	431d      	orrs	r5, r3
 8000a40:	0c19      	lsrs	r1, r3, #16
 8000a42:	042b      	lsls	r3, r5, #16
 8000a44:	0212      	lsls	r2, r2, #8
 8000a46:	9500      	str	r5, [sp, #0]
 8000a48:	0c1d      	lsrs	r5, r3, #16
 8000a4a:	4691      	mov	r9, r2
 8000a4c:	9102      	str	r1, [sp, #8]
 8000a4e:	9503      	str	r5, [sp, #12]
 8000a50:	f7ff fbea 	bl	8000228 <__aeabi_uidivmod>
 8000a54:	0002      	movs	r2, r0
 8000a56:	436a      	muls	r2, r5
 8000a58:	040b      	lsls	r3, r1, #16
 8000a5a:	0c21      	lsrs	r1, r4, #16
 8000a5c:	4680      	mov	r8, r0
 8000a5e:	4319      	orrs	r1, r3
 8000a60:	428a      	cmp	r2, r1
 8000a62:	d909      	bls.n	8000a78 <__aeabi_ddiv+0x140>
 8000a64:	9d00      	ldr	r5, [sp, #0]
 8000a66:	2301      	movs	r3, #1
 8000a68:	46ac      	mov	ip, r5
 8000a6a:	425b      	negs	r3, r3
 8000a6c:	4461      	add	r1, ip
 8000a6e:	469c      	mov	ip, r3
 8000a70:	44e0      	add	r8, ip
 8000a72:	428d      	cmp	r5, r1
 8000a74:	d800      	bhi.n	8000a78 <__aeabi_ddiv+0x140>
 8000a76:	e1fb      	b.n	8000e70 <__aeabi_ddiv+0x538>
 8000a78:	1a88      	subs	r0, r1, r2
 8000a7a:	9902      	ldr	r1, [sp, #8]
 8000a7c:	f7ff fbd4 	bl	8000228 <__aeabi_uidivmod>
 8000a80:	9a03      	ldr	r2, [sp, #12]
 8000a82:	0424      	lsls	r4, r4, #16
 8000a84:	4342      	muls	r2, r0
 8000a86:	0409      	lsls	r1, r1, #16
 8000a88:	0c24      	lsrs	r4, r4, #16
 8000a8a:	0003      	movs	r3, r0
 8000a8c:	430c      	orrs	r4, r1
 8000a8e:	42a2      	cmp	r2, r4
 8000a90:	d906      	bls.n	8000aa0 <__aeabi_ddiv+0x168>
 8000a92:	9900      	ldr	r1, [sp, #0]
 8000a94:	3b01      	subs	r3, #1
 8000a96:	468c      	mov	ip, r1
 8000a98:	4464      	add	r4, ip
 8000a9a:	42a1      	cmp	r1, r4
 8000a9c:	d800      	bhi.n	8000aa0 <__aeabi_ddiv+0x168>
 8000a9e:	e1e1      	b.n	8000e64 <__aeabi_ddiv+0x52c>
 8000aa0:	1aa0      	subs	r0, r4, r2
 8000aa2:	4642      	mov	r2, r8
 8000aa4:	0412      	lsls	r2, r2, #16
 8000aa6:	431a      	orrs	r2, r3
 8000aa8:	4693      	mov	fp, r2
 8000aaa:	464b      	mov	r3, r9
 8000aac:	4659      	mov	r1, fp
 8000aae:	0c1b      	lsrs	r3, r3, #16
 8000ab0:	001d      	movs	r5, r3
 8000ab2:	9304      	str	r3, [sp, #16]
 8000ab4:	040b      	lsls	r3, r1, #16
 8000ab6:	4649      	mov	r1, r9
 8000ab8:	0409      	lsls	r1, r1, #16
 8000aba:	0c09      	lsrs	r1, r1, #16
 8000abc:	000c      	movs	r4, r1
 8000abe:	0c1b      	lsrs	r3, r3, #16
 8000ac0:	435c      	muls	r4, r3
 8000ac2:	0c12      	lsrs	r2, r2, #16
 8000ac4:	436b      	muls	r3, r5
 8000ac6:	4688      	mov	r8, r1
 8000ac8:	4351      	muls	r1, r2
 8000aca:	436a      	muls	r2, r5
 8000acc:	0c25      	lsrs	r5, r4, #16
 8000ace:	46ac      	mov	ip, r5
 8000ad0:	185b      	adds	r3, r3, r1
 8000ad2:	4463      	add	r3, ip
 8000ad4:	4299      	cmp	r1, r3
 8000ad6:	d903      	bls.n	8000ae0 <__aeabi_ddiv+0x1a8>
 8000ad8:	2180      	movs	r1, #128	@ 0x80
 8000ada:	0249      	lsls	r1, r1, #9
 8000adc:	468c      	mov	ip, r1
 8000ade:	4462      	add	r2, ip
 8000ae0:	0c19      	lsrs	r1, r3, #16
 8000ae2:	0424      	lsls	r4, r4, #16
 8000ae4:	041b      	lsls	r3, r3, #16
 8000ae6:	0c24      	lsrs	r4, r4, #16
 8000ae8:	188a      	adds	r2, r1, r2
 8000aea:	191c      	adds	r4, r3, r4
 8000aec:	4290      	cmp	r0, r2
 8000aee:	d302      	bcc.n	8000af6 <__aeabi_ddiv+0x1be>
 8000af0:	d116      	bne.n	8000b20 <__aeabi_ddiv+0x1e8>
 8000af2:	42a7      	cmp	r7, r4
 8000af4:	d214      	bcs.n	8000b20 <__aeabi_ddiv+0x1e8>
 8000af6:	465b      	mov	r3, fp
 8000af8:	9d00      	ldr	r5, [sp, #0]
 8000afa:	3b01      	subs	r3, #1
 8000afc:	444f      	add	r7, r9
 8000afe:	9305      	str	r3, [sp, #20]
 8000b00:	454f      	cmp	r7, r9
 8000b02:	419b      	sbcs	r3, r3
 8000b04:	46ac      	mov	ip, r5
 8000b06:	425b      	negs	r3, r3
 8000b08:	4463      	add	r3, ip
 8000b0a:	18c0      	adds	r0, r0, r3
 8000b0c:	4285      	cmp	r5, r0
 8000b0e:	d300      	bcc.n	8000b12 <__aeabi_ddiv+0x1da>
 8000b10:	e1a1      	b.n	8000e56 <__aeabi_ddiv+0x51e>
 8000b12:	4282      	cmp	r2, r0
 8000b14:	d900      	bls.n	8000b18 <__aeabi_ddiv+0x1e0>
 8000b16:	e1f6      	b.n	8000f06 <__aeabi_ddiv+0x5ce>
 8000b18:	d100      	bne.n	8000b1c <__aeabi_ddiv+0x1e4>
 8000b1a:	e1f1      	b.n	8000f00 <__aeabi_ddiv+0x5c8>
 8000b1c:	9b05      	ldr	r3, [sp, #20]
 8000b1e:	469b      	mov	fp, r3
 8000b20:	1b3c      	subs	r4, r7, r4
 8000b22:	42a7      	cmp	r7, r4
 8000b24:	41bf      	sbcs	r7, r7
 8000b26:	9d00      	ldr	r5, [sp, #0]
 8000b28:	1a80      	subs	r0, r0, r2
 8000b2a:	427f      	negs	r7, r7
 8000b2c:	1bc0      	subs	r0, r0, r7
 8000b2e:	4285      	cmp	r5, r0
 8000b30:	d100      	bne.n	8000b34 <__aeabi_ddiv+0x1fc>
 8000b32:	e1d0      	b.n	8000ed6 <__aeabi_ddiv+0x59e>
 8000b34:	9902      	ldr	r1, [sp, #8]
 8000b36:	f7ff fb77 	bl	8000228 <__aeabi_uidivmod>
 8000b3a:	9a03      	ldr	r2, [sp, #12]
 8000b3c:	040b      	lsls	r3, r1, #16
 8000b3e:	4342      	muls	r2, r0
 8000b40:	0c21      	lsrs	r1, r4, #16
 8000b42:	0007      	movs	r7, r0
 8000b44:	4319      	orrs	r1, r3
 8000b46:	428a      	cmp	r2, r1
 8000b48:	d900      	bls.n	8000b4c <__aeabi_ddiv+0x214>
 8000b4a:	e178      	b.n	8000e3e <__aeabi_ddiv+0x506>
 8000b4c:	1a88      	subs	r0, r1, r2
 8000b4e:	9902      	ldr	r1, [sp, #8]
 8000b50:	f7ff fb6a 	bl	8000228 <__aeabi_uidivmod>
 8000b54:	9a03      	ldr	r2, [sp, #12]
 8000b56:	0424      	lsls	r4, r4, #16
 8000b58:	4342      	muls	r2, r0
 8000b5a:	0409      	lsls	r1, r1, #16
 8000b5c:	0c24      	lsrs	r4, r4, #16
 8000b5e:	0003      	movs	r3, r0
 8000b60:	430c      	orrs	r4, r1
 8000b62:	42a2      	cmp	r2, r4
 8000b64:	d900      	bls.n	8000b68 <__aeabi_ddiv+0x230>
 8000b66:	e15d      	b.n	8000e24 <__aeabi_ddiv+0x4ec>
 8000b68:	4641      	mov	r1, r8
 8000b6a:	1aa4      	subs	r4, r4, r2
 8000b6c:	043a      	lsls	r2, r7, #16
 8000b6e:	431a      	orrs	r2, r3
 8000b70:	9d04      	ldr	r5, [sp, #16]
 8000b72:	0413      	lsls	r3, r2, #16
 8000b74:	0c1b      	lsrs	r3, r3, #16
 8000b76:	4359      	muls	r1, r3
 8000b78:	4647      	mov	r7, r8
 8000b7a:	436b      	muls	r3, r5
 8000b7c:	469c      	mov	ip, r3
 8000b7e:	0c10      	lsrs	r0, r2, #16
 8000b80:	4347      	muls	r7, r0
 8000b82:	0c0b      	lsrs	r3, r1, #16
 8000b84:	44bc      	add	ip, r7
 8000b86:	4463      	add	r3, ip
 8000b88:	4368      	muls	r0, r5
 8000b8a:	429f      	cmp	r7, r3
 8000b8c:	d903      	bls.n	8000b96 <__aeabi_ddiv+0x25e>
 8000b8e:	2580      	movs	r5, #128	@ 0x80
 8000b90:	026d      	lsls	r5, r5, #9
 8000b92:	46ac      	mov	ip, r5
 8000b94:	4460      	add	r0, ip
 8000b96:	0c1f      	lsrs	r7, r3, #16
 8000b98:	0409      	lsls	r1, r1, #16
 8000b9a:	041b      	lsls	r3, r3, #16
 8000b9c:	0c09      	lsrs	r1, r1, #16
 8000b9e:	183f      	adds	r7, r7, r0
 8000ba0:	185b      	adds	r3, r3, r1
 8000ba2:	42bc      	cmp	r4, r7
 8000ba4:	d200      	bcs.n	8000ba8 <__aeabi_ddiv+0x270>
 8000ba6:	e102      	b.n	8000dae <__aeabi_ddiv+0x476>
 8000ba8:	d100      	bne.n	8000bac <__aeabi_ddiv+0x274>
 8000baa:	e0fd      	b.n	8000da8 <__aeabi_ddiv+0x470>
 8000bac:	2301      	movs	r3, #1
 8000bae:	431a      	orrs	r2, r3
 8000bb0:	4b43      	ldr	r3, [pc, #268]	@ (8000cc0 <__aeabi_ddiv+0x388>)
 8000bb2:	4453      	add	r3, sl
 8000bb4:	2b00      	cmp	r3, #0
 8000bb6:	dc00      	bgt.n	8000bba <__aeabi_ddiv+0x282>
 8000bb8:	e0ae      	b.n	8000d18 <__aeabi_ddiv+0x3e0>
 8000bba:	0751      	lsls	r1, r2, #29
 8000bbc:	d000      	beq.n	8000bc0 <__aeabi_ddiv+0x288>
 8000bbe:	e198      	b.n	8000ef2 <__aeabi_ddiv+0x5ba>
 8000bc0:	4659      	mov	r1, fp
 8000bc2:	01c9      	lsls	r1, r1, #7
 8000bc4:	d506      	bpl.n	8000bd4 <__aeabi_ddiv+0x29c>
 8000bc6:	4659      	mov	r1, fp
 8000bc8:	4b3e      	ldr	r3, [pc, #248]	@ (8000cc4 <__aeabi_ddiv+0x38c>)
 8000bca:	4019      	ands	r1, r3
 8000bcc:	2380      	movs	r3, #128	@ 0x80
 8000bce:	468b      	mov	fp, r1
 8000bd0:	00db      	lsls	r3, r3, #3
 8000bd2:	4453      	add	r3, sl
 8000bd4:	493c      	ldr	r1, [pc, #240]	@ (8000cc8 <__aeabi_ddiv+0x390>)
 8000bd6:	428b      	cmp	r3, r1
 8000bd8:	dd00      	ble.n	8000bdc <__aeabi_ddiv+0x2a4>
 8000bda:	e71a      	b.n	8000a12 <__aeabi_ddiv+0xda>
 8000bdc:	4659      	mov	r1, fp
 8000bde:	08d2      	lsrs	r2, r2, #3
 8000be0:	0749      	lsls	r1, r1, #29
 8000be2:	4311      	orrs	r1, r2
 8000be4:	465a      	mov	r2, fp
 8000be6:	055b      	lsls	r3, r3, #21
 8000be8:	0254      	lsls	r4, r2, #9
 8000bea:	4688      	mov	r8, r1
 8000bec:	0b24      	lsrs	r4, r4, #12
 8000bee:	0d5b      	lsrs	r3, r3, #21
 8000bf0:	e702      	b.n	80009f8 <__aeabi_ddiv+0xc0>
 8000bf2:	465a      	mov	r2, fp
 8000bf4:	9b00      	ldr	r3, [sp, #0]
 8000bf6:	431a      	orrs	r2, r3
 8000bf8:	d100      	bne.n	8000bfc <__aeabi_ddiv+0x2c4>
 8000bfa:	e07e      	b.n	8000cfa <__aeabi_ddiv+0x3c2>
 8000bfc:	465b      	mov	r3, fp
 8000bfe:	2b00      	cmp	r3, #0
 8000c00:	d100      	bne.n	8000c04 <__aeabi_ddiv+0x2cc>
 8000c02:	e100      	b.n	8000e06 <__aeabi_ddiv+0x4ce>
 8000c04:	4658      	mov	r0, fp
 8000c06:	f001 f8bd 	bl	8001d84 <__clzsi2>
 8000c0a:	0002      	movs	r2, r0
 8000c0c:	0003      	movs	r3, r0
 8000c0e:	3a0b      	subs	r2, #11
 8000c10:	271d      	movs	r7, #29
 8000c12:	9e00      	ldr	r6, [sp, #0]
 8000c14:	1aba      	subs	r2, r7, r2
 8000c16:	0019      	movs	r1, r3
 8000c18:	4658      	mov	r0, fp
 8000c1a:	40d6      	lsrs	r6, r2
 8000c1c:	3908      	subs	r1, #8
 8000c1e:	4088      	lsls	r0, r1
 8000c20:	0032      	movs	r2, r6
 8000c22:	4302      	orrs	r2, r0
 8000c24:	4693      	mov	fp, r2
 8000c26:	9a00      	ldr	r2, [sp, #0]
 8000c28:	408a      	lsls	r2, r1
 8000c2a:	4928      	ldr	r1, [pc, #160]	@ (8000ccc <__aeabi_ddiv+0x394>)
 8000c2c:	4453      	add	r3, sl
 8000c2e:	468a      	mov	sl, r1
 8000c30:	449a      	add	sl, r3
 8000c32:	2300      	movs	r3, #0
 8000c34:	e6c8      	b.n	80009c8 <__aeabi_ddiv+0x90>
 8000c36:	465b      	mov	r3, fp
 8000c38:	4303      	orrs	r3, r0
 8000c3a:	4699      	mov	r9, r3
 8000c3c:	d056      	beq.n	8000cec <__aeabi_ddiv+0x3b4>
 8000c3e:	465b      	mov	r3, fp
 8000c40:	2b00      	cmp	r3, #0
 8000c42:	d100      	bne.n	8000c46 <__aeabi_ddiv+0x30e>
 8000c44:	e0cd      	b.n	8000de2 <__aeabi_ddiv+0x4aa>
 8000c46:	4658      	mov	r0, fp
 8000c48:	f001 f89c 	bl	8001d84 <__clzsi2>
 8000c4c:	230b      	movs	r3, #11
 8000c4e:	425b      	negs	r3, r3
 8000c50:	469c      	mov	ip, r3
 8000c52:	0002      	movs	r2, r0
 8000c54:	4484      	add	ip, r0
 8000c56:	4666      	mov	r6, ip
 8000c58:	231d      	movs	r3, #29
 8000c5a:	1b9b      	subs	r3, r3, r6
 8000c5c:	0026      	movs	r6, r4
 8000c5e:	0011      	movs	r1, r2
 8000c60:	4658      	mov	r0, fp
 8000c62:	40de      	lsrs	r6, r3
 8000c64:	3908      	subs	r1, #8
 8000c66:	4088      	lsls	r0, r1
 8000c68:	0033      	movs	r3, r6
 8000c6a:	4303      	orrs	r3, r0
 8000c6c:	4699      	mov	r9, r3
 8000c6e:	0023      	movs	r3, r4
 8000c70:	408b      	lsls	r3, r1
 8000c72:	4698      	mov	r8, r3
 8000c74:	4b16      	ldr	r3, [pc, #88]	@ (8000cd0 <__aeabi_ddiv+0x398>)
 8000c76:	2400      	movs	r4, #0
 8000c78:	1a9b      	subs	r3, r3, r2
 8000c7a:	469a      	mov	sl, r3
 8000c7c:	2300      	movs	r3, #0
 8000c7e:	9303      	str	r3, [sp, #12]
 8000c80:	e682      	b.n	8000988 <__aeabi_ddiv+0x50>
 8000c82:	465a      	mov	r2, fp
 8000c84:	4302      	orrs	r2, r0
 8000c86:	4691      	mov	r9, r2
 8000c88:	d12a      	bne.n	8000ce0 <__aeabi_ddiv+0x3a8>
 8000c8a:	2200      	movs	r2, #0
 8000c8c:	469a      	mov	sl, r3
 8000c8e:	2302      	movs	r3, #2
 8000c90:	4690      	mov	r8, r2
 8000c92:	2408      	movs	r4, #8
 8000c94:	9303      	str	r3, [sp, #12]
 8000c96:	e677      	b.n	8000988 <__aeabi_ddiv+0x50>
 8000c98:	465a      	mov	r2, fp
 8000c9a:	9b00      	ldr	r3, [sp, #0]
 8000c9c:	431a      	orrs	r2, r3
 8000c9e:	4b0d      	ldr	r3, [pc, #52]	@ (8000cd4 <__aeabi_ddiv+0x39c>)
 8000ca0:	469c      	mov	ip, r3
 8000ca2:	44e2      	add	sl, ip
 8000ca4:	2a00      	cmp	r2, #0
 8000ca6:	d117      	bne.n	8000cd8 <__aeabi_ddiv+0x3a0>
 8000ca8:	2302      	movs	r3, #2
 8000caa:	431c      	orrs	r4, r3
 8000cac:	2300      	movs	r3, #0
 8000cae:	469b      	mov	fp, r3
 8000cb0:	3302      	adds	r3, #2
 8000cb2:	e689      	b.n	80009c8 <__aeabi_ddiv+0x90>
 8000cb4:	000007ff 	.word	0x000007ff
 8000cb8:	fffffc01 	.word	0xfffffc01
 8000cbc:	08008294 	.word	0x08008294
 8000cc0:	000003ff 	.word	0x000003ff
 8000cc4:	feffffff 	.word	0xfeffffff
 8000cc8:	000007fe 	.word	0x000007fe
 8000ccc:	000003f3 	.word	0x000003f3
 8000cd0:	fffffc0d 	.word	0xfffffc0d
 8000cd4:	fffff801 	.word	0xfffff801
 8000cd8:	2303      	movs	r3, #3
 8000cda:	0032      	movs	r2, r6
 8000cdc:	431c      	orrs	r4, r3
 8000cde:	e673      	b.n	80009c8 <__aeabi_ddiv+0x90>
 8000ce0:	469a      	mov	sl, r3
 8000ce2:	2303      	movs	r3, #3
 8000ce4:	46d9      	mov	r9, fp
 8000ce6:	240c      	movs	r4, #12
 8000ce8:	9303      	str	r3, [sp, #12]
 8000cea:	e64d      	b.n	8000988 <__aeabi_ddiv+0x50>
 8000cec:	2300      	movs	r3, #0
 8000cee:	4698      	mov	r8, r3
 8000cf0:	469a      	mov	sl, r3
 8000cf2:	3301      	adds	r3, #1
 8000cf4:	2404      	movs	r4, #4
 8000cf6:	9303      	str	r3, [sp, #12]
 8000cf8:	e646      	b.n	8000988 <__aeabi_ddiv+0x50>
 8000cfa:	2301      	movs	r3, #1
 8000cfc:	431c      	orrs	r4, r3
 8000cfe:	2300      	movs	r3, #0
 8000d00:	469b      	mov	fp, r3
 8000d02:	3301      	adds	r3, #1
 8000d04:	e660      	b.n	80009c8 <__aeabi_ddiv+0x90>
 8000d06:	2300      	movs	r3, #0
 8000d08:	2480      	movs	r4, #128	@ 0x80
 8000d0a:	4698      	mov	r8, r3
 8000d0c:	2600      	movs	r6, #0
 8000d0e:	4b92      	ldr	r3, [pc, #584]	@ (8000f58 <__aeabi_ddiv+0x620>)
 8000d10:	0324      	lsls	r4, r4, #12
 8000d12:	e671      	b.n	80009f8 <__aeabi_ddiv+0xc0>
 8000d14:	2201      	movs	r2, #1
 8000d16:	4252      	negs	r2, r2
 8000d18:	2101      	movs	r1, #1
 8000d1a:	1ac9      	subs	r1, r1, r3
 8000d1c:	2938      	cmp	r1, #56	@ 0x38
 8000d1e:	dd00      	ble.n	8000d22 <__aeabi_ddiv+0x3ea>
 8000d20:	e666      	b.n	80009f0 <__aeabi_ddiv+0xb8>
 8000d22:	291f      	cmp	r1, #31
 8000d24:	dc00      	bgt.n	8000d28 <__aeabi_ddiv+0x3f0>
 8000d26:	e0ab      	b.n	8000e80 <__aeabi_ddiv+0x548>
 8000d28:	201f      	movs	r0, #31
 8000d2a:	4240      	negs	r0, r0
 8000d2c:	1ac3      	subs	r3, r0, r3
 8000d2e:	4658      	mov	r0, fp
 8000d30:	40d8      	lsrs	r0, r3
 8000d32:	0003      	movs	r3, r0
 8000d34:	2920      	cmp	r1, #32
 8000d36:	d004      	beq.n	8000d42 <__aeabi_ddiv+0x40a>
 8000d38:	4658      	mov	r0, fp
 8000d3a:	4988      	ldr	r1, [pc, #544]	@ (8000f5c <__aeabi_ddiv+0x624>)
 8000d3c:	4451      	add	r1, sl
 8000d3e:	4088      	lsls	r0, r1
 8000d40:	4302      	orrs	r2, r0
 8000d42:	1e51      	subs	r1, r2, #1
 8000d44:	418a      	sbcs	r2, r1
 8000d46:	431a      	orrs	r2, r3
 8000d48:	2307      	movs	r3, #7
 8000d4a:	0019      	movs	r1, r3
 8000d4c:	2400      	movs	r4, #0
 8000d4e:	4011      	ands	r1, r2
 8000d50:	4213      	tst	r3, r2
 8000d52:	d00c      	beq.n	8000d6e <__aeabi_ddiv+0x436>
 8000d54:	230f      	movs	r3, #15
 8000d56:	4013      	ands	r3, r2
 8000d58:	2b04      	cmp	r3, #4
 8000d5a:	d100      	bne.n	8000d5e <__aeabi_ddiv+0x426>
 8000d5c:	e0f9      	b.n	8000f52 <__aeabi_ddiv+0x61a>
 8000d5e:	1d11      	adds	r1, r2, #4
 8000d60:	4291      	cmp	r1, r2
 8000d62:	419b      	sbcs	r3, r3
 8000d64:	000a      	movs	r2, r1
 8000d66:	425b      	negs	r3, r3
 8000d68:	0759      	lsls	r1, r3, #29
 8000d6a:	025b      	lsls	r3, r3, #9
 8000d6c:	0b1c      	lsrs	r4, r3, #12
 8000d6e:	08d2      	lsrs	r2, r2, #3
 8000d70:	430a      	orrs	r2, r1
 8000d72:	4690      	mov	r8, r2
 8000d74:	2300      	movs	r3, #0
 8000d76:	e63f      	b.n	80009f8 <__aeabi_ddiv+0xc0>
 8000d78:	2480      	movs	r4, #128	@ 0x80
 8000d7a:	464b      	mov	r3, r9
 8000d7c:	0324      	lsls	r4, r4, #12
 8000d7e:	4223      	tst	r3, r4
 8000d80:	d009      	beq.n	8000d96 <__aeabi_ddiv+0x45e>
 8000d82:	465b      	mov	r3, fp
 8000d84:	4223      	tst	r3, r4
 8000d86:	d106      	bne.n	8000d96 <__aeabi_ddiv+0x45e>
 8000d88:	431c      	orrs	r4, r3
 8000d8a:	0324      	lsls	r4, r4, #12
 8000d8c:	002e      	movs	r6, r5
 8000d8e:	4690      	mov	r8, r2
 8000d90:	4b71      	ldr	r3, [pc, #452]	@ (8000f58 <__aeabi_ddiv+0x620>)
 8000d92:	0b24      	lsrs	r4, r4, #12
 8000d94:	e630      	b.n	80009f8 <__aeabi_ddiv+0xc0>
 8000d96:	2480      	movs	r4, #128	@ 0x80
 8000d98:	464b      	mov	r3, r9
 8000d9a:	0324      	lsls	r4, r4, #12
 8000d9c:	431c      	orrs	r4, r3
 8000d9e:	0324      	lsls	r4, r4, #12
 8000da0:	9e02      	ldr	r6, [sp, #8]
 8000da2:	4b6d      	ldr	r3, [pc, #436]	@ (8000f58 <__aeabi_ddiv+0x620>)
 8000da4:	0b24      	lsrs	r4, r4, #12
 8000da6:	e627      	b.n	80009f8 <__aeabi_ddiv+0xc0>
 8000da8:	2b00      	cmp	r3, #0
 8000daa:	d100      	bne.n	8000dae <__aeabi_ddiv+0x476>
 8000dac:	e700      	b.n	8000bb0 <__aeabi_ddiv+0x278>
 8000dae:	9800      	ldr	r0, [sp, #0]
 8000db0:	1e51      	subs	r1, r2, #1
 8000db2:	4684      	mov	ip, r0
 8000db4:	4464      	add	r4, ip
 8000db6:	4284      	cmp	r4, r0
 8000db8:	d200      	bcs.n	8000dbc <__aeabi_ddiv+0x484>
 8000dba:	e084      	b.n	8000ec6 <__aeabi_ddiv+0x58e>
 8000dbc:	42bc      	cmp	r4, r7
 8000dbe:	d200      	bcs.n	8000dc2 <__aeabi_ddiv+0x48a>
 8000dc0:	e0ae      	b.n	8000f20 <__aeabi_ddiv+0x5e8>
 8000dc2:	d100      	bne.n	8000dc6 <__aeabi_ddiv+0x48e>
 8000dc4:	e0c1      	b.n	8000f4a <__aeabi_ddiv+0x612>
 8000dc6:	000a      	movs	r2, r1
 8000dc8:	e6f0      	b.n	8000bac <__aeabi_ddiv+0x274>
 8000dca:	4542      	cmp	r2, r8
 8000dcc:	d900      	bls.n	8000dd0 <__aeabi_ddiv+0x498>
 8000dce:	e62c      	b.n	8000a2a <__aeabi_ddiv+0xf2>
 8000dd0:	464b      	mov	r3, r9
 8000dd2:	07dc      	lsls	r4, r3, #31
 8000dd4:	0858      	lsrs	r0, r3, #1
 8000dd6:	4643      	mov	r3, r8
 8000dd8:	085b      	lsrs	r3, r3, #1
 8000dda:	431c      	orrs	r4, r3
 8000ddc:	4643      	mov	r3, r8
 8000dde:	07df      	lsls	r7, r3, #31
 8000de0:	e62a      	b.n	8000a38 <__aeabi_ddiv+0x100>
 8000de2:	f000 ffcf 	bl	8001d84 <__clzsi2>
 8000de6:	2315      	movs	r3, #21
 8000de8:	469c      	mov	ip, r3
 8000dea:	4484      	add	ip, r0
 8000dec:	0002      	movs	r2, r0
 8000dee:	4663      	mov	r3, ip
 8000df0:	3220      	adds	r2, #32
 8000df2:	2b1c      	cmp	r3, #28
 8000df4:	dc00      	bgt.n	8000df8 <__aeabi_ddiv+0x4c0>
 8000df6:	e72e      	b.n	8000c56 <__aeabi_ddiv+0x31e>
 8000df8:	0023      	movs	r3, r4
 8000dfa:	3808      	subs	r0, #8
 8000dfc:	4083      	lsls	r3, r0
 8000dfe:	4699      	mov	r9, r3
 8000e00:	2300      	movs	r3, #0
 8000e02:	4698      	mov	r8, r3
 8000e04:	e736      	b.n	8000c74 <__aeabi_ddiv+0x33c>
 8000e06:	f000 ffbd 	bl	8001d84 <__clzsi2>
 8000e0a:	0002      	movs	r2, r0
 8000e0c:	0003      	movs	r3, r0
 8000e0e:	3215      	adds	r2, #21
 8000e10:	3320      	adds	r3, #32
 8000e12:	2a1c      	cmp	r2, #28
 8000e14:	dc00      	bgt.n	8000e18 <__aeabi_ddiv+0x4e0>
 8000e16:	e6fb      	b.n	8000c10 <__aeabi_ddiv+0x2d8>
 8000e18:	9900      	ldr	r1, [sp, #0]
 8000e1a:	3808      	subs	r0, #8
 8000e1c:	4081      	lsls	r1, r0
 8000e1e:	2200      	movs	r2, #0
 8000e20:	468b      	mov	fp, r1
 8000e22:	e702      	b.n	8000c2a <__aeabi_ddiv+0x2f2>
 8000e24:	9900      	ldr	r1, [sp, #0]
 8000e26:	3b01      	subs	r3, #1
 8000e28:	468c      	mov	ip, r1
 8000e2a:	4464      	add	r4, ip
 8000e2c:	42a1      	cmp	r1, r4
 8000e2e:	d900      	bls.n	8000e32 <__aeabi_ddiv+0x4fa>
 8000e30:	e69a      	b.n	8000b68 <__aeabi_ddiv+0x230>
 8000e32:	42a2      	cmp	r2, r4
 8000e34:	d800      	bhi.n	8000e38 <__aeabi_ddiv+0x500>
 8000e36:	e697      	b.n	8000b68 <__aeabi_ddiv+0x230>
 8000e38:	1e83      	subs	r3, r0, #2
 8000e3a:	4464      	add	r4, ip
 8000e3c:	e694      	b.n	8000b68 <__aeabi_ddiv+0x230>
 8000e3e:	46ac      	mov	ip, r5
 8000e40:	4461      	add	r1, ip
 8000e42:	3f01      	subs	r7, #1
 8000e44:	428d      	cmp	r5, r1
 8000e46:	d900      	bls.n	8000e4a <__aeabi_ddiv+0x512>
 8000e48:	e680      	b.n	8000b4c <__aeabi_ddiv+0x214>
 8000e4a:	428a      	cmp	r2, r1
 8000e4c:	d800      	bhi.n	8000e50 <__aeabi_ddiv+0x518>
 8000e4e:	e67d      	b.n	8000b4c <__aeabi_ddiv+0x214>
 8000e50:	1e87      	subs	r7, r0, #2
 8000e52:	4461      	add	r1, ip
 8000e54:	e67a      	b.n	8000b4c <__aeabi_ddiv+0x214>
 8000e56:	4285      	cmp	r5, r0
 8000e58:	d000      	beq.n	8000e5c <__aeabi_ddiv+0x524>
 8000e5a:	e65f      	b.n	8000b1c <__aeabi_ddiv+0x1e4>
 8000e5c:	45b9      	cmp	r9, r7
 8000e5e:	d900      	bls.n	8000e62 <__aeabi_ddiv+0x52a>
 8000e60:	e65c      	b.n	8000b1c <__aeabi_ddiv+0x1e4>
 8000e62:	e656      	b.n	8000b12 <__aeabi_ddiv+0x1da>
 8000e64:	42a2      	cmp	r2, r4
 8000e66:	d800      	bhi.n	8000e6a <__aeabi_ddiv+0x532>
 8000e68:	e61a      	b.n	8000aa0 <__aeabi_ddiv+0x168>
 8000e6a:	1e83      	subs	r3, r0, #2
 8000e6c:	4464      	add	r4, ip
 8000e6e:	e617      	b.n	8000aa0 <__aeabi_ddiv+0x168>
 8000e70:	428a      	cmp	r2, r1
 8000e72:	d800      	bhi.n	8000e76 <__aeabi_ddiv+0x53e>
 8000e74:	e600      	b.n	8000a78 <__aeabi_ddiv+0x140>
 8000e76:	46ac      	mov	ip, r5
 8000e78:	1e83      	subs	r3, r0, #2
 8000e7a:	4698      	mov	r8, r3
 8000e7c:	4461      	add	r1, ip
 8000e7e:	e5fb      	b.n	8000a78 <__aeabi_ddiv+0x140>
 8000e80:	4837      	ldr	r0, [pc, #220]	@ (8000f60 <__aeabi_ddiv+0x628>)
 8000e82:	0014      	movs	r4, r2
 8000e84:	4450      	add	r0, sl
 8000e86:	4082      	lsls	r2, r0
 8000e88:	465b      	mov	r3, fp
 8000e8a:	0017      	movs	r7, r2
 8000e8c:	4083      	lsls	r3, r0
 8000e8e:	40cc      	lsrs	r4, r1
 8000e90:	1e7a      	subs	r2, r7, #1
 8000e92:	4197      	sbcs	r7, r2
 8000e94:	4323      	orrs	r3, r4
 8000e96:	433b      	orrs	r3, r7
 8000e98:	001a      	movs	r2, r3
 8000e9a:	465b      	mov	r3, fp
 8000e9c:	40cb      	lsrs	r3, r1
 8000e9e:	0751      	lsls	r1, r2, #29
 8000ea0:	d009      	beq.n	8000eb6 <__aeabi_ddiv+0x57e>
 8000ea2:	210f      	movs	r1, #15
 8000ea4:	4011      	ands	r1, r2
 8000ea6:	2904      	cmp	r1, #4
 8000ea8:	d005      	beq.n	8000eb6 <__aeabi_ddiv+0x57e>
 8000eaa:	1d11      	adds	r1, r2, #4
 8000eac:	4291      	cmp	r1, r2
 8000eae:	4192      	sbcs	r2, r2
 8000eb0:	4252      	negs	r2, r2
 8000eb2:	189b      	adds	r3, r3, r2
 8000eb4:	000a      	movs	r2, r1
 8000eb6:	0219      	lsls	r1, r3, #8
 8000eb8:	d400      	bmi.n	8000ebc <__aeabi_ddiv+0x584>
 8000eba:	e755      	b.n	8000d68 <__aeabi_ddiv+0x430>
 8000ebc:	2200      	movs	r2, #0
 8000ebe:	2301      	movs	r3, #1
 8000ec0:	2400      	movs	r4, #0
 8000ec2:	4690      	mov	r8, r2
 8000ec4:	e598      	b.n	80009f8 <__aeabi_ddiv+0xc0>
 8000ec6:	000a      	movs	r2, r1
 8000ec8:	42bc      	cmp	r4, r7
 8000eca:	d000      	beq.n	8000ece <__aeabi_ddiv+0x596>
 8000ecc:	e66e      	b.n	8000bac <__aeabi_ddiv+0x274>
 8000ece:	454b      	cmp	r3, r9
 8000ed0:	d000      	beq.n	8000ed4 <__aeabi_ddiv+0x59c>
 8000ed2:	e66b      	b.n	8000bac <__aeabi_ddiv+0x274>
 8000ed4:	e66c      	b.n	8000bb0 <__aeabi_ddiv+0x278>
 8000ed6:	4b23      	ldr	r3, [pc, #140]	@ (8000f64 <__aeabi_ddiv+0x62c>)
 8000ed8:	4a23      	ldr	r2, [pc, #140]	@ (8000f68 <__aeabi_ddiv+0x630>)
 8000eda:	4453      	add	r3, sl
 8000edc:	4592      	cmp	sl, r2
 8000ede:	da00      	bge.n	8000ee2 <__aeabi_ddiv+0x5aa>
 8000ee0:	e718      	b.n	8000d14 <__aeabi_ddiv+0x3dc>
 8000ee2:	2101      	movs	r1, #1
 8000ee4:	4249      	negs	r1, r1
 8000ee6:	1d0a      	adds	r2, r1, #4
 8000ee8:	428a      	cmp	r2, r1
 8000eea:	4189      	sbcs	r1, r1
 8000eec:	4249      	negs	r1, r1
 8000eee:	448b      	add	fp, r1
 8000ef0:	e666      	b.n	8000bc0 <__aeabi_ddiv+0x288>
 8000ef2:	210f      	movs	r1, #15
 8000ef4:	4011      	ands	r1, r2
 8000ef6:	2904      	cmp	r1, #4
 8000ef8:	d100      	bne.n	8000efc <__aeabi_ddiv+0x5c4>
 8000efa:	e661      	b.n	8000bc0 <__aeabi_ddiv+0x288>
 8000efc:	0011      	movs	r1, r2
 8000efe:	e7f2      	b.n	8000ee6 <__aeabi_ddiv+0x5ae>
 8000f00:	42bc      	cmp	r4, r7
 8000f02:	d800      	bhi.n	8000f06 <__aeabi_ddiv+0x5ce>
 8000f04:	e60a      	b.n	8000b1c <__aeabi_ddiv+0x1e4>
 8000f06:	2302      	movs	r3, #2
 8000f08:	425b      	negs	r3, r3
 8000f0a:	469c      	mov	ip, r3
 8000f0c:	9900      	ldr	r1, [sp, #0]
 8000f0e:	444f      	add	r7, r9
 8000f10:	454f      	cmp	r7, r9
 8000f12:	419b      	sbcs	r3, r3
 8000f14:	44e3      	add	fp, ip
 8000f16:	468c      	mov	ip, r1
 8000f18:	425b      	negs	r3, r3
 8000f1a:	4463      	add	r3, ip
 8000f1c:	18c0      	adds	r0, r0, r3
 8000f1e:	e5ff      	b.n	8000b20 <__aeabi_ddiv+0x1e8>
 8000f20:	4649      	mov	r1, r9
 8000f22:	9d00      	ldr	r5, [sp, #0]
 8000f24:	0048      	lsls	r0, r1, #1
 8000f26:	4548      	cmp	r0, r9
 8000f28:	4189      	sbcs	r1, r1
 8000f2a:	46ac      	mov	ip, r5
 8000f2c:	4249      	negs	r1, r1
 8000f2e:	4461      	add	r1, ip
 8000f30:	4681      	mov	r9, r0
 8000f32:	3a02      	subs	r2, #2
 8000f34:	1864      	adds	r4, r4, r1
 8000f36:	e7c7      	b.n	8000ec8 <__aeabi_ddiv+0x590>
 8000f38:	2480      	movs	r4, #128	@ 0x80
 8000f3a:	465b      	mov	r3, fp
 8000f3c:	0324      	lsls	r4, r4, #12
 8000f3e:	431c      	orrs	r4, r3
 8000f40:	0324      	lsls	r4, r4, #12
 8000f42:	4690      	mov	r8, r2
 8000f44:	4b04      	ldr	r3, [pc, #16]	@ (8000f58 <__aeabi_ddiv+0x620>)
 8000f46:	0b24      	lsrs	r4, r4, #12
 8000f48:	e556      	b.n	80009f8 <__aeabi_ddiv+0xc0>
 8000f4a:	4599      	cmp	r9, r3
 8000f4c:	d3e8      	bcc.n	8000f20 <__aeabi_ddiv+0x5e8>
 8000f4e:	000a      	movs	r2, r1
 8000f50:	e7bd      	b.n	8000ece <__aeabi_ddiv+0x596>
 8000f52:	2300      	movs	r3, #0
 8000f54:	e708      	b.n	8000d68 <__aeabi_ddiv+0x430>
 8000f56:	46c0      	nop			@ (mov r8, r8)
 8000f58:	000007ff 	.word	0x000007ff
 8000f5c:	0000043e 	.word	0x0000043e
 8000f60:	0000041e 	.word	0x0000041e
 8000f64:	000003ff 	.word	0x000003ff
 8000f68:	fffffc02 	.word	0xfffffc02

08000f6c <__aeabi_dmul>:
 8000f6c:	b5f0      	push	{r4, r5, r6, r7, lr}
 8000f6e:	4657      	mov	r7, sl
 8000f70:	46de      	mov	lr, fp
 8000f72:	464e      	mov	r6, r9
 8000f74:	4645      	mov	r5, r8
 8000f76:	b5e0      	push	{r5, r6, r7, lr}
 8000f78:	001f      	movs	r7, r3
 8000f7a:	030b      	lsls	r3, r1, #12
 8000f7c:	0b1b      	lsrs	r3, r3, #12
 8000f7e:	0016      	movs	r6, r2
 8000f80:	469a      	mov	sl, r3
 8000f82:	0fca      	lsrs	r2, r1, #31
 8000f84:	004b      	lsls	r3, r1, #1
 8000f86:	0004      	movs	r4, r0
 8000f88:	4693      	mov	fp, r2
 8000f8a:	b087      	sub	sp, #28
 8000f8c:	0d5b      	lsrs	r3, r3, #21
 8000f8e:	d100      	bne.n	8000f92 <__aeabi_dmul+0x26>
 8000f90:	e0d5      	b.n	800113e <__aeabi_dmul+0x1d2>
 8000f92:	4abb      	ldr	r2, [pc, #748]	@ (8001280 <__aeabi_dmul+0x314>)
 8000f94:	4293      	cmp	r3, r2
 8000f96:	d100      	bne.n	8000f9a <__aeabi_dmul+0x2e>
 8000f98:	e0f8      	b.n	800118c <__aeabi_dmul+0x220>
 8000f9a:	4651      	mov	r1, sl
 8000f9c:	0f42      	lsrs	r2, r0, #29
 8000f9e:	00c9      	lsls	r1, r1, #3
 8000fa0:	430a      	orrs	r2, r1
 8000fa2:	2180      	movs	r1, #128	@ 0x80
 8000fa4:	0409      	lsls	r1, r1, #16
 8000fa6:	4311      	orrs	r1, r2
 8000fa8:	00c2      	lsls	r2, r0, #3
 8000faa:	4691      	mov	r9, r2
 8000fac:	4ab5      	ldr	r2, [pc, #724]	@ (8001284 <__aeabi_dmul+0x318>)
 8000fae:	468a      	mov	sl, r1
 8000fb0:	189d      	adds	r5, r3, r2
 8000fb2:	2300      	movs	r3, #0
 8000fb4:	4698      	mov	r8, r3
 8000fb6:	9302      	str	r3, [sp, #8]
 8000fb8:	033c      	lsls	r4, r7, #12
 8000fba:	007b      	lsls	r3, r7, #1
 8000fbc:	0ffa      	lsrs	r2, r7, #31
 8000fbe:	0030      	movs	r0, r6
 8000fc0:	0b24      	lsrs	r4, r4, #12
 8000fc2:	0d5b      	lsrs	r3, r3, #21
 8000fc4:	9200      	str	r2, [sp, #0]
 8000fc6:	d100      	bne.n	8000fca <__aeabi_dmul+0x5e>
 8000fc8:	e096      	b.n	80010f8 <__aeabi_dmul+0x18c>
 8000fca:	4aad      	ldr	r2, [pc, #692]	@ (8001280 <__aeabi_dmul+0x314>)
 8000fcc:	4293      	cmp	r3, r2
 8000fce:	d031      	beq.n	8001034 <__aeabi_dmul+0xc8>
 8000fd0:	0f72      	lsrs	r2, r6, #29
 8000fd2:	00e4      	lsls	r4, r4, #3
 8000fd4:	4322      	orrs	r2, r4
 8000fd6:	2480      	movs	r4, #128	@ 0x80
 8000fd8:	0424      	lsls	r4, r4, #16
 8000fda:	4314      	orrs	r4, r2
 8000fdc:	4aa9      	ldr	r2, [pc, #676]	@ (8001284 <__aeabi_dmul+0x318>)
 8000fde:	00f0      	lsls	r0, r6, #3
 8000fe0:	4694      	mov	ip, r2
 8000fe2:	4463      	add	r3, ip
 8000fe4:	195b      	adds	r3, r3, r5
 8000fe6:	1c5a      	adds	r2, r3, #1
 8000fe8:	9201      	str	r2, [sp, #4]
 8000fea:	4642      	mov	r2, r8
 8000fec:	2600      	movs	r6, #0
 8000fee:	2a0a      	cmp	r2, #10
 8000ff0:	dc42      	bgt.n	8001078 <__aeabi_dmul+0x10c>
 8000ff2:	465a      	mov	r2, fp
 8000ff4:	9900      	ldr	r1, [sp, #0]
 8000ff6:	404a      	eors	r2, r1
 8000ff8:	4693      	mov	fp, r2
 8000ffa:	4642      	mov	r2, r8
 8000ffc:	2a02      	cmp	r2, #2
 8000ffe:	dc32      	bgt.n	8001066 <__aeabi_dmul+0xfa>
 8001000:	3a01      	subs	r2, #1
 8001002:	2a01      	cmp	r2, #1
 8001004:	d900      	bls.n	8001008 <__aeabi_dmul+0x9c>
 8001006:	e149      	b.n	800129c <__aeabi_dmul+0x330>
 8001008:	2e02      	cmp	r6, #2
 800100a:	d100      	bne.n	800100e <__aeabi_dmul+0xa2>
 800100c:	e0ca      	b.n	80011a4 <__aeabi_dmul+0x238>
 800100e:	2e01      	cmp	r6, #1
 8001010:	d13d      	bne.n	800108e <__aeabi_dmul+0x122>
 8001012:	2300      	movs	r3, #0
 8001014:	2400      	movs	r4, #0
 8001016:	2200      	movs	r2, #0
 8001018:	0010      	movs	r0, r2
 800101a:	465a      	mov	r2, fp
 800101c:	051b      	lsls	r3, r3, #20
 800101e:	4323      	orrs	r3, r4
 8001020:	07d2      	lsls	r2, r2, #31
 8001022:	4313      	orrs	r3, r2
 8001024:	0019      	movs	r1, r3
 8001026:	b007      	add	sp, #28
 8001028:	bcf0      	pop	{r4, r5, r6, r7}
 800102a:	46bb      	mov	fp, r7
 800102c:	46b2      	mov	sl, r6
 800102e:	46a9      	mov	r9, r5
 8001030:	46a0      	mov	r8, r4
 8001032:	bdf0      	pop	{r4, r5, r6, r7, pc}
 8001034:	4b92      	ldr	r3, [pc, #584]	@ (8001280 <__aeabi_dmul+0x314>)
 8001036:	4326      	orrs	r6, r4
 8001038:	18eb      	adds	r3, r5, r3
 800103a:	2e00      	cmp	r6, #0
 800103c:	d100      	bne.n	8001040 <__aeabi_dmul+0xd4>
 800103e:	e0bb      	b.n	80011b8 <__aeabi_dmul+0x24c>
 8001040:	2203      	movs	r2, #3
 8001042:	4641      	mov	r1, r8
 8001044:	4311      	orrs	r1, r2
 8001046:	465a      	mov	r2, fp
 8001048:	4688      	mov	r8, r1
 800104a:	9900      	ldr	r1, [sp, #0]
 800104c:	404a      	eors	r2, r1
 800104e:	2180      	movs	r1, #128	@ 0x80
 8001050:	0109      	lsls	r1, r1, #4
 8001052:	468c      	mov	ip, r1
 8001054:	0029      	movs	r1, r5
 8001056:	4461      	add	r1, ip
 8001058:	9101      	str	r1, [sp, #4]
 800105a:	4641      	mov	r1, r8
 800105c:	290a      	cmp	r1, #10
 800105e:	dd00      	ble.n	8001062 <__aeabi_dmul+0xf6>
 8001060:	e233      	b.n	80014ca <__aeabi_dmul+0x55e>
 8001062:	4693      	mov	fp, r2
 8001064:	2603      	movs	r6, #3
 8001066:	4642      	mov	r2, r8
 8001068:	2701      	movs	r7, #1
 800106a:	4097      	lsls	r7, r2
 800106c:	21a6      	movs	r1, #166	@ 0xa6
 800106e:	003a      	movs	r2, r7
 8001070:	00c9      	lsls	r1, r1, #3
 8001072:	400a      	ands	r2, r1
 8001074:	420f      	tst	r7, r1
 8001076:	d031      	beq.n	80010dc <__aeabi_dmul+0x170>
 8001078:	9e02      	ldr	r6, [sp, #8]
 800107a:	2e02      	cmp	r6, #2
 800107c:	d100      	bne.n	8001080 <__aeabi_dmul+0x114>
 800107e:	e235      	b.n	80014ec <__aeabi_dmul+0x580>
 8001080:	2e03      	cmp	r6, #3
 8001082:	d100      	bne.n	8001086 <__aeabi_dmul+0x11a>
 8001084:	e1d2      	b.n	800142c <__aeabi_dmul+0x4c0>
 8001086:	4654      	mov	r4, sl
 8001088:	4648      	mov	r0, r9
 800108a:	2e01      	cmp	r6, #1
 800108c:	d0c1      	beq.n	8001012 <__aeabi_dmul+0xa6>
 800108e:	9a01      	ldr	r2, [sp, #4]
 8001090:	4b7d      	ldr	r3, [pc, #500]	@ (8001288 <__aeabi_dmul+0x31c>)
 8001092:	4694      	mov	ip, r2
 8001094:	4463      	add	r3, ip
 8001096:	2b00      	cmp	r3, #0
 8001098:	dc00      	bgt.n	800109c <__aeabi_dmul+0x130>
 800109a:	e0c0      	b.n	800121e <__aeabi_dmul+0x2b2>
 800109c:	0742      	lsls	r2, r0, #29
 800109e:	d009      	beq.n	80010b4 <__aeabi_dmul+0x148>
 80010a0:	220f      	movs	r2, #15
 80010a2:	4002      	ands	r2, r0
 80010a4:	2a04      	cmp	r2, #4
 80010a6:	d005      	beq.n	80010b4 <__aeabi_dmul+0x148>
 80010a8:	1d02      	adds	r2, r0, #4
 80010aa:	4282      	cmp	r2, r0
 80010ac:	4180      	sbcs	r0, r0
 80010ae:	4240      	negs	r0, r0
 80010b0:	1824      	adds	r4, r4, r0
 80010b2:	0010      	movs	r0, r2
 80010b4:	01e2      	lsls	r2, r4, #7
 80010b6:	d506      	bpl.n	80010c6 <__aeabi_dmul+0x15a>
 80010b8:	4b74      	ldr	r3, [pc, #464]	@ (800128c <__aeabi_dmul+0x320>)
 80010ba:	9a01      	ldr	r2, [sp, #4]
 80010bc:	401c      	ands	r4, r3
 80010be:	2380      	movs	r3, #128	@ 0x80
 80010c0:	4694      	mov	ip, r2
 80010c2:	00db      	lsls	r3, r3, #3
 80010c4:	4463      	add	r3, ip
 80010c6:	4a72      	ldr	r2, [pc, #456]	@ (8001290 <__aeabi_dmul+0x324>)
 80010c8:	4293      	cmp	r3, r2
 80010ca:	dc6b      	bgt.n	80011a4 <__aeabi_dmul+0x238>
 80010cc:	0762      	lsls	r2, r4, #29
 80010ce:	08c0      	lsrs	r0, r0, #3
 80010d0:	0264      	lsls	r4, r4, #9
 80010d2:	055b      	lsls	r3, r3, #21
 80010d4:	4302      	orrs	r2, r0
 80010d6:	0b24      	lsrs	r4, r4, #12
 80010d8:	0d5b      	lsrs	r3, r3, #21
 80010da:	e79d      	b.n	8001018 <__aeabi_dmul+0xac>
 80010dc:	2190      	movs	r1, #144	@ 0x90
 80010de:	0089      	lsls	r1, r1, #2
 80010e0:	420f      	tst	r7, r1
 80010e2:	d163      	bne.n	80011ac <__aeabi_dmul+0x240>
 80010e4:	2288      	movs	r2, #136	@ 0x88
 80010e6:	423a      	tst	r2, r7
 80010e8:	d100      	bne.n	80010ec <__aeabi_dmul+0x180>
 80010ea:	e0d7      	b.n	800129c <__aeabi_dmul+0x330>
 80010ec:	9b00      	ldr	r3, [sp, #0]
 80010ee:	46a2      	mov	sl, r4
 80010f0:	469b      	mov	fp, r3
 80010f2:	4681      	mov	r9, r0
 80010f4:	9602      	str	r6, [sp, #8]
 80010f6:	e7bf      	b.n	8001078 <__aeabi_dmul+0x10c>
 80010f8:	0023      	movs	r3, r4
 80010fa:	4333      	orrs	r3, r6
 80010fc:	d100      	bne.n	8001100 <__aeabi_dmul+0x194>
 80010fe:	e07f      	b.n	8001200 <__aeabi_dmul+0x294>
 8001100:	2c00      	cmp	r4, #0
 8001102:	d100      	bne.n	8001106 <__aeabi_dmul+0x19a>
 8001104:	e1ad      	b.n	8001462 <__aeabi_dmul+0x4f6>
 8001106:	0020      	movs	r0, r4
 8001108:	f000 fe3c 	bl	8001d84 <__clzsi2>
 800110c:	0002      	movs	r2, r0
 800110e:	0003      	movs	r3, r0
 8001110:	3a0b      	subs	r2, #11
 8001112:	201d      	movs	r0, #29
 8001114:	0019      	movs	r1, r3
 8001116:	1a82      	subs	r2, r0, r2
 8001118:	0030      	movs	r0, r6
 800111a:	3908      	subs	r1, #8
 800111c:	40d0      	lsrs	r0, r2
 800111e:	408c      	lsls	r4, r1
 8001120:	4304      	orrs	r4, r0
 8001122:	0030      	movs	r0, r6
 8001124:	4088      	lsls	r0, r1
 8001126:	4a5b      	ldr	r2, [pc, #364]	@ (8001294 <__aeabi_dmul+0x328>)
 8001128:	1aeb      	subs	r3, r5, r3
 800112a:	4694      	mov	ip, r2
 800112c:	4463      	add	r3, ip
 800112e:	1c5a      	adds	r2, r3, #1
 8001130:	9201      	str	r2, [sp, #4]
 8001132:	4642      	mov	r2, r8
 8001134:	2600      	movs	r6, #0
 8001136:	2a0a      	cmp	r2, #10
 8001138:	dc00      	bgt.n	800113c <__aeabi_dmul+0x1d0>
 800113a:	e75a      	b.n	8000ff2 <__aeabi_dmul+0x86>
 800113c:	e79c      	b.n	8001078 <__aeabi_dmul+0x10c>
 800113e:	4653      	mov	r3, sl
 8001140:	4303      	orrs	r3, r0
 8001142:	4699      	mov	r9, r3
 8001144:	d054      	beq.n	80011f0 <__aeabi_dmul+0x284>
 8001146:	4653      	mov	r3, sl
 8001148:	2b00      	cmp	r3, #0
 800114a:	d100      	bne.n	800114e <__aeabi_dmul+0x1e2>
 800114c:	e177      	b.n	800143e <__aeabi_dmul+0x4d2>
 800114e:	4650      	mov	r0, sl
 8001150:	f000 fe18 	bl	8001d84 <__clzsi2>
 8001154:	230b      	movs	r3, #11
 8001156:	425b      	negs	r3, r3
 8001158:	469c      	mov	ip, r3
 800115a:	0002      	movs	r2, r0
 800115c:	4484      	add	ip, r0
 800115e:	0011      	movs	r1, r2
 8001160:	4650      	mov	r0, sl
 8001162:	3908      	subs	r1, #8
 8001164:	4088      	lsls	r0, r1
 8001166:	231d      	movs	r3, #29
 8001168:	4680      	mov	r8, r0
 800116a:	4660      	mov	r0, ip
 800116c:	1a1b      	subs	r3, r3, r0
 800116e:	0020      	movs	r0, r4
 8001170:	40d8      	lsrs	r0, r3
 8001172:	0003      	movs	r3, r0
 8001174:	4640      	mov	r0, r8
 8001176:	4303      	orrs	r3, r0
 8001178:	469a      	mov	sl, r3
 800117a:	0023      	movs	r3, r4
 800117c:	408b      	lsls	r3, r1
 800117e:	4699      	mov	r9, r3
 8001180:	2300      	movs	r3, #0
 8001182:	4d44      	ldr	r5, [pc, #272]	@ (8001294 <__aeabi_dmul+0x328>)
 8001184:	4698      	mov	r8, r3
 8001186:	1aad      	subs	r5, r5, r2
 8001188:	9302      	str	r3, [sp, #8]
 800118a:	e715      	b.n	8000fb8 <__aeabi_dmul+0x4c>
 800118c:	4652      	mov	r2, sl
 800118e:	4302      	orrs	r2, r0
 8001190:	4691      	mov	r9, r2
 8001192:	d126      	bne.n	80011e2 <__aeabi_dmul+0x276>
 8001194:	2200      	movs	r2, #0
 8001196:	001d      	movs	r5, r3
 8001198:	2302      	movs	r3, #2
 800119a:	4692      	mov	sl, r2
 800119c:	3208      	adds	r2, #8
 800119e:	4690      	mov	r8, r2
 80011a0:	9302      	str	r3, [sp, #8]
 80011a2:	e709      	b.n	8000fb8 <__aeabi_dmul+0x4c>
 80011a4:	2400      	movs	r4, #0
 80011a6:	2200      	movs	r2, #0
 80011a8:	4b35      	ldr	r3, [pc, #212]	@ (8001280 <__aeabi_dmul+0x314>)
 80011aa:	e735      	b.n	8001018 <__aeabi_dmul+0xac>
 80011ac:	2300      	movs	r3, #0
 80011ae:	2480      	movs	r4, #128	@ 0x80
 80011b0:	469b      	mov	fp, r3
 80011b2:	0324      	lsls	r4, r4, #12
 80011b4:	4b32      	ldr	r3, [pc, #200]	@ (8001280 <__aeabi_dmul+0x314>)
 80011b6:	e72f      	b.n	8001018 <__aeabi_dmul+0xac>
 80011b8:	2202      	movs	r2, #2
 80011ba:	4641      	mov	r1, r8
 80011bc:	4311      	orrs	r1, r2
 80011be:	2280      	movs	r2, #128	@ 0x80
 80011c0:	0112      	lsls	r2, r2, #4
 80011c2:	4694      	mov	ip, r2
 80011c4:	002a      	movs	r2, r5
 80011c6:	4462      	add	r2, ip
 80011c8:	4688      	mov	r8, r1
 80011ca:	9201      	str	r2, [sp, #4]
 80011cc:	290a      	cmp	r1, #10
 80011ce:	dd00      	ble.n	80011d2 <__aeabi_dmul+0x266>
 80011d0:	e752      	b.n	8001078 <__aeabi_dmul+0x10c>
 80011d2:	465a      	mov	r2, fp
 80011d4:	2000      	movs	r0, #0
 80011d6:	9900      	ldr	r1, [sp, #0]
 80011d8:	0004      	movs	r4, r0
 80011da:	404a      	eors	r2, r1
 80011dc:	4693      	mov	fp, r2
 80011de:	2602      	movs	r6, #2
 80011e0:	e70b      	b.n	8000ffa <__aeabi_dmul+0x8e>
 80011e2:	220c      	movs	r2, #12
 80011e4:	001d      	movs	r5, r3
 80011e6:	2303      	movs	r3, #3
 80011e8:	4681      	mov	r9, r0
 80011ea:	4690      	mov	r8, r2
 80011ec:	9302      	str	r3, [sp, #8]
 80011ee:	e6e3      	b.n	8000fb8 <__aeabi_dmul+0x4c>
 80011f0:	2300      	movs	r3, #0
 80011f2:	469a      	mov	sl, r3
 80011f4:	3304      	adds	r3, #4
 80011f6:	4698      	mov	r8, r3
 80011f8:	3b03      	subs	r3, #3
 80011fa:	2500      	movs	r5, #0
 80011fc:	9302      	str	r3, [sp, #8]
 80011fe:	e6db      	b.n	8000fb8 <__aeabi_dmul+0x4c>
 8001200:	4642      	mov	r2, r8
 8001202:	3301      	adds	r3, #1
 8001204:	431a      	orrs	r2, r3
 8001206:	002b      	movs	r3, r5
 8001208:	4690      	mov	r8, r2
 800120a:	1c5a      	adds	r2, r3, #1
 800120c:	9201      	str	r2, [sp, #4]
 800120e:	4642      	mov	r2, r8
 8001210:	2400      	movs	r4, #0
 8001212:	2000      	movs	r0, #0
 8001214:	2601      	movs	r6, #1
 8001216:	2a0a      	cmp	r2, #10
 8001218:	dc00      	bgt.n	800121c <__aeabi_dmul+0x2b0>
 800121a:	e6ea      	b.n	8000ff2 <__aeabi_dmul+0x86>
 800121c:	e72c      	b.n	8001078 <__aeabi_dmul+0x10c>
 800121e:	2201      	movs	r2, #1
 8001220:	1ad2      	subs	r2, r2, r3
 8001222:	2a38      	cmp	r2, #56	@ 0x38
 8001224:	dd00      	ble.n	8001228 <__aeabi_dmul+0x2bc>
 8001226:	e6f4      	b.n	8001012 <__aeabi_dmul+0xa6>
 8001228:	2a1f      	cmp	r2, #31
 800122a:	dc00      	bgt.n	800122e <__aeabi_dmul+0x2c2>
 800122c:	e12a      	b.n	8001484 <__aeabi_dmul+0x518>
 800122e:	211f      	movs	r1, #31
 8001230:	4249      	negs	r1, r1
 8001232:	1acb      	subs	r3, r1, r3
 8001234:	0021      	movs	r1, r4
 8001236:	40d9      	lsrs	r1, r3
 8001238:	000b      	movs	r3, r1
 800123a:	2a20      	cmp	r2, #32
 800123c:	d005      	beq.n	800124a <__aeabi_dmul+0x2de>
 800123e:	4a16      	ldr	r2, [pc, #88]	@ (8001298 <__aeabi_dmul+0x32c>)
 8001240:	9d01      	ldr	r5, [sp, #4]
 8001242:	4694      	mov	ip, r2
 8001244:	4465      	add	r5, ip
 8001246:	40ac      	lsls	r4, r5
 8001248:	4320      	orrs	r0, r4
 800124a:	1e42      	subs	r2, r0, #1
 800124c:	4190      	sbcs	r0, r2
 800124e:	4318      	orrs	r0, r3
 8001250:	2307      	movs	r3, #7
 8001252:	0019      	movs	r1, r3
 8001254:	2400      	movs	r4, #0
 8001256:	4001      	ands	r1, r0
 8001258:	4203      	tst	r3, r0
 800125a:	d00c      	beq.n	8001276 <__aeabi_dmul+0x30a>
 800125c:	230f      	movs	r3, #15
 800125e:	4003      	ands	r3, r0
 8001260:	2b04      	cmp	r3, #4
 8001262:	d100      	bne.n	8001266 <__aeabi_dmul+0x2fa>
 8001264:	e140      	b.n	80014e8 <__aeabi_dmul+0x57c>
 8001266:	1d03      	adds	r3, r0, #4
 8001268:	4283      	cmp	r3, r0
 800126a:	41a4      	sbcs	r4, r4
 800126c:	0018      	movs	r0, r3
 800126e:	4264      	negs	r4, r4
 8001270:	0761      	lsls	r1, r4, #29
 8001272:	0264      	lsls	r4, r4, #9
 8001274:	0b24      	lsrs	r4, r4, #12
 8001276:	08c2      	lsrs	r2, r0, #3
 8001278:	2300      	movs	r3, #0
 800127a:	430a      	orrs	r2, r1
 800127c:	e6cc      	b.n	8001018 <__aeabi_dmul+0xac>
 800127e:	46c0      	nop			@ (mov r8, r8)
 8001280:	000007ff 	.word	0x000007ff
 8001284:	fffffc01 	.word	0xfffffc01
 8001288:	000003ff 	.word	0x000003ff
 800128c:	feffffff 	.word	0xfeffffff
 8001290:	000007fe 	.word	0x000007fe
 8001294:	fffffc0d 	.word	0xfffffc0d
 8001298:	0000043e 	.word	0x0000043e
 800129c:	4649      	mov	r1, r9
 800129e:	464a      	mov	r2, r9
 80012a0:	0409      	lsls	r1, r1, #16
 80012a2:	0c09      	lsrs	r1, r1, #16
 80012a4:	000d      	movs	r5, r1
 80012a6:	0c16      	lsrs	r6, r2, #16
 80012a8:	0c02      	lsrs	r2, r0, #16
 80012aa:	0400      	lsls	r0, r0, #16
 80012ac:	0c00      	lsrs	r0, r0, #16
 80012ae:	4345      	muls	r5, r0
 80012b0:	46ac      	mov	ip, r5
 80012b2:	0005      	movs	r5, r0
 80012b4:	4375      	muls	r5, r6
 80012b6:	46a8      	mov	r8, r5
 80012b8:	0015      	movs	r5, r2
 80012ba:	000f      	movs	r7, r1
 80012bc:	4375      	muls	r5, r6
 80012be:	9200      	str	r2, [sp, #0]
 80012c0:	9502      	str	r5, [sp, #8]
 80012c2:	002a      	movs	r2, r5
 80012c4:	9d00      	ldr	r5, [sp, #0]
 80012c6:	436f      	muls	r7, r5
 80012c8:	4665      	mov	r5, ip
 80012ca:	0c2d      	lsrs	r5, r5, #16
 80012cc:	46a9      	mov	r9, r5
 80012ce:	4447      	add	r7, r8
 80012d0:	444f      	add	r7, r9
 80012d2:	45b8      	cmp	r8, r7
 80012d4:	d905      	bls.n	80012e2 <__aeabi_dmul+0x376>
 80012d6:	0015      	movs	r5, r2
 80012d8:	2280      	movs	r2, #128	@ 0x80
 80012da:	0252      	lsls	r2, r2, #9
 80012dc:	4690      	mov	r8, r2
 80012de:	4445      	add	r5, r8
 80012e0:	9502      	str	r5, [sp, #8]
 80012e2:	0c3d      	lsrs	r5, r7, #16
 80012e4:	9503      	str	r5, [sp, #12]
 80012e6:	4665      	mov	r5, ip
 80012e8:	042d      	lsls	r5, r5, #16
 80012ea:	043f      	lsls	r7, r7, #16
 80012ec:	0c2d      	lsrs	r5, r5, #16
 80012ee:	46ac      	mov	ip, r5
 80012f0:	003d      	movs	r5, r7
 80012f2:	4465      	add	r5, ip
 80012f4:	9504      	str	r5, [sp, #16]
 80012f6:	0c25      	lsrs	r5, r4, #16
 80012f8:	0424      	lsls	r4, r4, #16
 80012fa:	0c24      	lsrs	r4, r4, #16
 80012fc:	46ac      	mov	ip, r5
 80012fe:	0025      	movs	r5, r4
 8001300:	4375      	muls	r5, r6
 8001302:	46a8      	mov	r8, r5
 8001304:	4665      	mov	r5, ip
 8001306:	000f      	movs	r7, r1
 8001308:	4369      	muls	r1, r5
 800130a:	4441      	add	r1, r8
 800130c:	4689      	mov	r9, r1
 800130e:	4367      	muls	r7, r4
 8001310:	0c39      	lsrs	r1, r7, #16
 8001312:	4449      	add	r1, r9
 8001314:	436e      	muls	r6, r5
 8001316:	4588      	cmp	r8, r1
 8001318:	d903      	bls.n	8001322 <__aeabi_dmul+0x3b6>
 800131a:	2280      	movs	r2, #128	@ 0x80
 800131c:	0252      	lsls	r2, r2, #9
 800131e:	4690      	mov	r8, r2
 8001320:	4446      	add	r6, r8
 8001322:	0c0d      	lsrs	r5, r1, #16
 8001324:	46a8      	mov	r8, r5
 8001326:	0035      	movs	r5, r6
 8001328:	4445      	add	r5, r8
 800132a:	9505      	str	r5, [sp, #20]
 800132c:	9d03      	ldr	r5, [sp, #12]
 800132e:	043f      	lsls	r7, r7, #16
 8001330:	46a8      	mov	r8, r5
 8001332:	0c3f      	lsrs	r7, r7, #16
 8001334:	0409      	lsls	r1, r1, #16
 8001336:	19c9      	adds	r1, r1, r7
 8001338:	4488      	add	r8, r1
 800133a:	4645      	mov	r5, r8
 800133c:	9503      	str	r5, [sp, #12]
 800133e:	4655      	mov	r5, sl
 8001340:	042e      	lsls	r6, r5, #16
 8001342:	0c36      	lsrs	r6, r6, #16
 8001344:	0c2f      	lsrs	r7, r5, #16
 8001346:	0035      	movs	r5, r6
 8001348:	4345      	muls	r5, r0
 800134a:	4378      	muls	r0, r7
 800134c:	4681      	mov	r9, r0
 800134e:	0038      	movs	r0, r7
 8001350:	46a8      	mov	r8, r5
 8001352:	0c2d      	lsrs	r5, r5, #16
 8001354:	46aa      	mov	sl, r5
 8001356:	9a00      	ldr	r2, [sp, #0]
 8001358:	4350      	muls	r0, r2
 800135a:	4372      	muls	r2, r6
 800135c:	444a      	add	r2, r9
 800135e:	4452      	add	r2, sl
 8001360:	4591      	cmp	r9, r2
 8001362:	d903      	bls.n	800136c <__aeabi_dmul+0x400>
 8001364:	2580      	movs	r5, #128	@ 0x80
 8001366:	026d      	lsls	r5, r5, #9
 8001368:	46a9      	mov	r9, r5
 800136a:	4448      	add	r0, r9
 800136c:	0c15      	lsrs	r5, r2, #16
 800136e:	46a9      	mov	r9, r5
 8001370:	4645      	mov	r5, r8
 8001372:	042d      	lsls	r5, r5, #16
 8001374:	0c2d      	lsrs	r5, r5, #16
 8001376:	46a8      	mov	r8, r5
 8001378:	4665      	mov	r5, ip
 800137a:	437d      	muls	r5, r7
 800137c:	0412      	lsls	r2, r2, #16
 800137e:	4448      	add	r0, r9
 8001380:	4490      	add	r8, r2
 8001382:	46a9      	mov	r9, r5
 8001384:	0032      	movs	r2, r6
 8001386:	4665      	mov	r5, ip
 8001388:	4362      	muls	r2, r4
 800138a:	436e      	muls	r6, r5
 800138c:	437c      	muls	r4, r7
 800138e:	0c17      	lsrs	r7, r2, #16
 8001390:	1936      	adds	r6, r6, r4
 8001392:	19bf      	adds	r7, r7, r6
 8001394:	42bc      	cmp	r4, r7
 8001396:	d903      	bls.n	80013a0 <__aeabi_dmul+0x434>
 8001398:	2480      	movs	r4, #128	@ 0x80
 800139a:	0264      	lsls	r4, r4, #9
 800139c:	46a4      	mov	ip, r4
 800139e:	44e1      	add	r9, ip
 80013a0:	9c02      	ldr	r4, [sp, #8]
 80013a2:	9e03      	ldr	r6, [sp, #12]
 80013a4:	46a4      	mov	ip, r4
 80013a6:	9d05      	ldr	r5, [sp, #20]
 80013a8:	4466      	add	r6, ip
 80013aa:	428e      	cmp	r6, r1
 80013ac:	4189      	sbcs	r1, r1
 80013ae:	46ac      	mov	ip, r5
 80013b0:	0412      	lsls	r2, r2, #16
 80013b2:	043c      	lsls	r4, r7, #16
 80013b4:	0c12      	lsrs	r2, r2, #16
 80013b6:	18a2      	adds	r2, r4, r2
 80013b8:	4462      	add	r2, ip
 80013ba:	4249      	negs	r1, r1
 80013bc:	1854      	adds	r4, r2, r1
 80013be:	4446      	add	r6, r8
 80013c0:	46a4      	mov	ip, r4
 80013c2:	4546      	cmp	r6, r8
 80013c4:	41a4      	sbcs	r4, r4
 80013c6:	4682      	mov	sl, r0
 80013c8:	4264      	negs	r4, r4
 80013ca:	46a0      	mov	r8, r4
 80013cc:	42aa      	cmp	r2, r5
 80013ce:	4192      	sbcs	r2, r2
 80013d0:	458c      	cmp	ip, r1
 80013d2:	4189      	sbcs	r1, r1
 80013d4:	44e2      	add	sl, ip
 80013d6:	44d0      	add	r8, sl
 80013d8:	4249      	negs	r1, r1
 80013da:	4252      	negs	r2, r2
 80013dc:	430a      	orrs	r2, r1
 80013de:	45a0      	cmp	r8, r4
 80013e0:	41a4      	sbcs	r4, r4
 80013e2:	4582      	cmp	sl, r0
 80013e4:	4189      	sbcs	r1, r1
 80013e6:	4264      	negs	r4, r4
 80013e8:	4249      	negs	r1, r1
 80013ea:	430c      	orrs	r4, r1
 80013ec:	4641      	mov	r1, r8
 80013ee:	0c3f      	lsrs	r7, r7, #16
 80013f0:	19d2      	adds	r2, r2, r7
 80013f2:	1912      	adds	r2, r2, r4
 80013f4:	0dcc      	lsrs	r4, r1, #23
 80013f6:	9904      	ldr	r1, [sp, #16]
 80013f8:	0270      	lsls	r0, r6, #9
 80013fa:	4308      	orrs	r0, r1
 80013fc:	1e41      	subs	r1, r0, #1
 80013fe:	4188      	sbcs	r0, r1
 8001400:	4641      	mov	r1, r8
 8001402:	444a      	add	r2, r9
 8001404:	0df6      	lsrs	r6, r6, #23
 8001406:	0252      	lsls	r2, r2, #9
 8001408:	4330      	orrs	r0, r6
 800140a:	0249      	lsls	r1, r1, #9
 800140c:	4314      	orrs	r4, r2
 800140e:	4308      	orrs	r0, r1
 8001410:	01d2      	lsls	r2, r2, #7
 8001412:	d535      	bpl.n	8001480 <__aeabi_dmul+0x514>
 8001414:	2201      	movs	r2, #1
 8001416:	0843      	lsrs	r3, r0, #1
 8001418:	4002      	ands	r2, r0
 800141a:	4313      	orrs	r3, r2
 800141c:	07e0      	lsls	r0, r4, #31
 800141e:	4318      	orrs	r0, r3
 8001420:	0864      	lsrs	r4, r4, #1
 8001422:	e634      	b.n	800108e <__aeabi_dmul+0x122>
 8001424:	9b00      	ldr	r3, [sp, #0]
 8001426:	46a2      	mov	sl, r4
 8001428:	469b      	mov	fp, r3
 800142a:	4681      	mov	r9, r0
 800142c:	2480      	movs	r4, #128	@ 0x80
 800142e:	4653      	mov	r3, sl
 8001430:	0324      	lsls	r4, r4, #12
 8001432:	431c      	orrs	r4, r3
 8001434:	0324      	lsls	r4, r4, #12
 8001436:	464a      	mov	r2, r9
 8001438:	4b2e      	ldr	r3, [pc, #184]	@ (80014f4 <__aeabi_dmul+0x588>)
 800143a:	0b24      	lsrs	r4, r4, #12
 800143c:	e5ec      	b.n	8001018 <__aeabi_dmul+0xac>
 800143e:	f000 fca1 	bl	8001d84 <__clzsi2>
 8001442:	2315      	movs	r3, #21
 8001444:	469c      	mov	ip, r3
 8001446:	4484      	add	ip, r0
 8001448:	0002      	movs	r2, r0
 800144a:	4663      	mov	r3, ip
 800144c:	3220      	adds	r2, #32
 800144e:	2b1c      	cmp	r3, #28
 8001450:	dc00      	bgt.n	8001454 <__aeabi_dmul+0x4e8>
 8001452:	e684      	b.n	800115e <__aeabi_dmul+0x1f2>
 8001454:	2300      	movs	r3, #0
 8001456:	4699      	mov	r9, r3
 8001458:	0023      	movs	r3, r4
 800145a:	3808      	subs	r0, #8
 800145c:	4083      	lsls	r3, r0
 800145e:	469a      	mov	sl, r3
 8001460:	e68e      	b.n	8001180 <__aeabi_dmul+0x214>
 8001462:	f000 fc8f 	bl	8001d84 <__clzsi2>
 8001466:	0002      	movs	r2, r0
 8001468:	0003      	movs	r3, r0
 800146a:	3215      	adds	r2, #21
 800146c:	3320      	adds	r3, #32
 800146e:	2a1c      	cmp	r2, #28
 8001470:	dc00      	bgt.n	8001474 <__aeabi_dmul+0x508>
 8001472:	e64e      	b.n	8001112 <__aeabi_dmul+0x1a6>
 8001474:	0002      	movs	r2, r0
 8001476:	0034      	movs	r4, r6
 8001478:	3a08      	subs	r2, #8
 800147a:	2000      	movs	r0, #0
 800147c:	4094      	lsls	r4, r2
 800147e:	e652      	b.n	8001126 <__aeabi_dmul+0x1ba>
 8001480:	9301      	str	r3, [sp, #4]
 8001482:	e604      	b.n	800108e <__aeabi_dmul+0x122>
 8001484:	4b1c      	ldr	r3, [pc, #112]	@ (80014f8 <__aeabi_dmul+0x58c>)
 8001486:	0021      	movs	r1, r4
 8001488:	469c      	mov	ip, r3
 800148a:	0003      	movs	r3, r0
 800148c:	9d01      	ldr	r5, [sp, #4]
 800148e:	40d3      	lsrs	r3, r2
 8001490:	4465      	add	r5, ip
 8001492:	40a9      	lsls	r1, r5
 8001494:	4319      	orrs	r1, r3
 8001496:	0003      	movs	r3, r0
 8001498:	40ab      	lsls	r3, r5
 800149a:	1e58      	subs	r0, r3, #1
 800149c:	4183      	sbcs	r3, r0
 800149e:	4319      	orrs	r1, r3
 80014a0:	0008      	movs	r0, r1
 80014a2:	40d4      	lsrs	r4, r2
 80014a4:	074b      	lsls	r3, r1, #29
 80014a6:	d009      	beq.n	80014bc <__aeabi_dmul+0x550>
 80014a8:	230f      	movs	r3, #15
 80014aa:	400b      	ands	r3, r1
 80014ac:	2b04      	cmp	r3, #4
 80014ae:	d005      	beq.n	80014bc <__aeabi_dmul+0x550>
 80014b0:	1d0b      	adds	r3, r1, #4
 80014b2:	428b      	cmp	r3, r1
 80014b4:	4180      	sbcs	r0, r0
 80014b6:	4240      	negs	r0, r0
 80014b8:	1824      	adds	r4, r4, r0
 80014ba:	0018      	movs	r0, r3
 80014bc:	0223      	lsls	r3, r4, #8
 80014be:	d400      	bmi.n	80014c2 <__aeabi_dmul+0x556>
 80014c0:	e6d6      	b.n	8001270 <__aeabi_dmul+0x304>
 80014c2:	2301      	movs	r3, #1
 80014c4:	2400      	movs	r4, #0
 80014c6:	2200      	movs	r2, #0
 80014c8:	e5a6      	b.n	8001018 <__aeabi_dmul+0xac>
 80014ca:	290f      	cmp	r1, #15
 80014cc:	d1aa      	bne.n	8001424 <__aeabi_dmul+0x4b8>
 80014ce:	2380      	movs	r3, #128	@ 0x80
 80014d0:	4652      	mov	r2, sl
 80014d2:	031b      	lsls	r3, r3, #12
 80014d4:	421a      	tst	r2, r3
 80014d6:	d0a9      	beq.n	800142c <__aeabi_dmul+0x4c0>
 80014d8:	421c      	tst	r4, r3
 80014da:	d1a7      	bne.n	800142c <__aeabi_dmul+0x4c0>
 80014dc:	431c      	orrs	r4, r3
 80014de:	9b00      	ldr	r3, [sp, #0]
 80014e0:	0002      	movs	r2, r0
 80014e2:	469b      	mov	fp, r3
 80014e4:	4b03      	ldr	r3, [pc, #12]	@ (80014f4 <__aeabi_dmul+0x588>)
 80014e6:	e597      	b.n	8001018 <__aeabi_dmul+0xac>
 80014e8:	2400      	movs	r4, #0
 80014ea:	e6c1      	b.n	8001270 <__aeabi_dmul+0x304>
 80014ec:	2400      	movs	r4, #0
 80014ee:	4b01      	ldr	r3, [pc, #4]	@ (80014f4 <__aeabi_dmul+0x588>)
 80014f0:	0022      	movs	r2, r4
 80014f2:	e591      	b.n	8001018 <__aeabi_dmul+0xac>
 80014f4:	000007ff 	.word	0x000007ff
 80014f8:	0000041e 	.word	0x0000041e

080014fc <__aeabi_dsub>:
 80014fc:	b5f0      	push	{r4, r5, r6, r7, lr}
 80014fe:	464e      	mov	r6, r9
 8001500:	4645      	mov	r5, r8
 8001502:	46de      	mov	lr, fp
 8001504:	4657      	mov	r7, sl
 8001506:	b5e0      	push	{r5, r6, r7, lr}
 8001508:	b085      	sub	sp, #20
 800150a:	9000      	str	r0, [sp, #0]
 800150c:	9101      	str	r1, [sp, #4]
 800150e:	030c      	lsls	r4, r1, #12
 8001510:	004f      	lsls	r7, r1, #1
 8001512:	0fce      	lsrs	r6, r1, #31
 8001514:	0a61      	lsrs	r1, r4, #9
 8001516:	9c00      	ldr	r4, [sp, #0]
 8001518:	46b0      	mov	r8, r6
 800151a:	0f64      	lsrs	r4, r4, #29
 800151c:	430c      	orrs	r4, r1
 800151e:	9900      	ldr	r1, [sp, #0]
 8001520:	0d7f      	lsrs	r7, r7, #21
 8001522:	00c8      	lsls	r0, r1, #3
 8001524:	0011      	movs	r1, r2
 8001526:	001a      	movs	r2, r3
 8001528:	031b      	lsls	r3, r3, #12
 800152a:	469c      	mov	ip, r3
 800152c:	9100      	str	r1, [sp, #0]
 800152e:	9201      	str	r2, [sp, #4]
 8001530:	0051      	lsls	r1, r2, #1
 8001532:	0d4b      	lsrs	r3, r1, #21
 8001534:	4699      	mov	r9, r3
 8001536:	9b01      	ldr	r3, [sp, #4]
 8001538:	9d00      	ldr	r5, [sp, #0]
 800153a:	0fd9      	lsrs	r1, r3, #31
 800153c:	4663      	mov	r3, ip
 800153e:	0f6a      	lsrs	r2, r5, #29
 8001540:	0a5b      	lsrs	r3, r3, #9
 8001542:	4313      	orrs	r3, r2
 8001544:	00ea      	lsls	r2, r5, #3
 8001546:	4694      	mov	ip, r2
 8001548:	4693      	mov	fp, r2
 800154a:	4ac1      	ldr	r2, [pc, #772]	@ (8001850 <__aeabi_dsub+0x354>)
 800154c:	9003      	str	r0, [sp, #12]
 800154e:	9302      	str	r3, [sp, #8]
 8001550:	4591      	cmp	r9, r2
 8001552:	d100      	bne.n	8001556 <__aeabi_dsub+0x5a>
 8001554:	e0cd      	b.n	80016f2 <__aeabi_dsub+0x1f6>
 8001556:	2501      	movs	r5, #1
 8001558:	4069      	eors	r1, r5
 800155a:	464d      	mov	r5, r9
 800155c:	1b7d      	subs	r5, r7, r5
 800155e:	46aa      	mov	sl, r5
 8001560:	428e      	cmp	r6, r1
 8001562:	d100      	bne.n	8001566 <__aeabi_dsub+0x6a>
 8001564:	e080      	b.n	8001668 <__aeabi_dsub+0x16c>
 8001566:	2d00      	cmp	r5, #0
 8001568:	dc00      	bgt.n	800156c <__aeabi_dsub+0x70>
 800156a:	e335      	b.n	8001bd8 <__aeabi_dsub+0x6dc>
 800156c:	4649      	mov	r1, r9
 800156e:	2900      	cmp	r1, #0
 8001570:	d100      	bne.n	8001574 <__aeabi_dsub+0x78>
 8001572:	e0df      	b.n	8001734 <__aeabi_dsub+0x238>
 8001574:	4297      	cmp	r7, r2
 8001576:	d100      	bne.n	800157a <__aeabi_dsub+0x7e>
 8001578:	e194      	b.n	80018a4 <__aeabi_dsub+0x3a8>
 800157a:	4652      	mov	r2, sl
 800157c:	2501      	movs	r5, #1
 800157e:	2a38      	cmp	r2, #56	@ 0x38
 8001580:	dc19      	bgt.n	80015b6 <__aeabi_dsub+0xba>
 8001582:	2280      	movs	r2, #128	@ 0x80
 8001584:	9b02      	ldr	r3, [sp, #8]
 8001586:	0412      	lsls	r2, r2, #16
 8001588:	4313      	orrs	r3, r2
 800158a:	9302      	str	r3, [sp, #8]
 800158c:	4652      	mov	r2, sl
 800158e:	2a1f      	cmp	r2, #31
 8001590:	dd00      	ble.n	8001594 <__aeabi_dsub+0x98>
 8001592:	e1e3      	b.n	800195c <__aeabi_dsub+0x460>
 8001594:	4653      	mov	r3, sl
 8001596:	2220      	movs	r2, #32
 8001598:	4661      	mov	r1, ip
 800159a:	9d02      	ldr	r5, [sp, #8]
 800159c:	1ad2      	subs	r2, r2, r3
 800159e:	4095      	lsls	r5, r2
 80015a0:	40d9      	lsrs	r1, r3
 80015a2:	430d      	orrs	r5, r1
 80015a4:	4661      	mov	r1, ip
 80015a6:	4091      	lsls	r1, r2
 80015a8:	000a      	movs	r2, r1
 80015aa:	1e51      	subs	r1, r2, #1
 80015ac:	418a      	sbcs	r2, r1
 80015ae:	4315      	orrs	r5, r2
 80015b0:	9a02      	ldr	r2, [sp, #8]
 80015b2:	40da      	lsrs	r2, r3
 80015b4:	1aa4      	subs	r4, r4, r2
 80015b6:	1b45      	subs	r5, r0, r5
 80015b8:	42a8      	cmp	r0, r5
 80015ba:	4180      	sbcs	r0, r0
 80015bc:	4240      	negs	r0, r0
 80015be:	1a24      	subs	r4, r4, r0
 80015c0:	0223      	lsls	r3, r4, #8
 80015c2:	d400      	bmi.n	80015c6 <__aeabi_dsub+0xca>
 80015c4:	e13d      	b.n	8001842 <__aeabi_dsub+0x346>
 80015c6:	0264      	lsls	r4, r4, #9
 80015c8:	0a64      	lsrs	r4, r4, #9
 80015ca:	2c00      	cmp	r4, #0
 80015cc:	d100      	bne.n	80015d0 <__aeabi_dsub+0xd4>
 80015ce:	e147      	b.n	8001860 <__aeabi_dsub+0x364>
 80015d0:	0020      	movs	r0, r4
 80015d2:	f000 fbd7 	bl	8001d84 <__clzsi2>
 80015d6:	0003      	movs	r3, r0
 80015d8:	3b08      	subs	r3, #8
 80015da:	2120      	movs	r1, #32
 80015dc:	0028      	movs	r0, r5
 80015de:	1aca      	subs	r2, r1, r3
 80015e0:	40d0      	lsrs	r0, r2
 80015e2:	409c      	lsls	r4, r3
 80015e4:	0002      	movs	r2, r0
 80015e6:	409d      	lsls	r5, r3
 80015e8:	4322      	orrs	r2, r4
 80015ea:	429f      	cmp	r7, r3
 80015ec:	dd00      	ble.n	80015f0 <__aeabi_dsub+0xf4>
 80015ee:	e177      	b.n	80018e0 <__aeabi_dsub+0x3e4>
 80015f0:	1bd8      	subs	r0, r3, r7
 80015f2:	3001      	adds	r0, #1
 80015f4:	1a09      	subs	r1, r1, r0
 80015f6:	002c      	movs	r4, r5
 80015f8:	408d      	lsls	r5, r1
 80015fa:	40c4      	lsrs	r4, r0
 80015fc:	1e6b      	subs	r3, r5, #1
 80015fe:	419d      	sbcs	r5, r3
 8001600:	0013      	movs	r3, r2
 8001602:	40c2      	lsrs	r2, r0
 8001604:	408b      	lsls	r3, r1
 8001606:	4325      	orrs	r5, r4
 8001608:	2700      	movs	r7, #0
 800160a:	0014      	movs	r4, r2
 800160c:	431d      	orrs	r5, r3
 800160e:	076b      	lsls	r3, r5, #29
 8001610:	d009      	beq.n	8001626 <__aeabi_dsub+0x12a>
 8001612:	230f      	movs	r3, #15
 8001614:	402b      	ands	r3, r5
 8001616:	2b04      	cmp	r3, #4
 8001618:	d005      	beq.n	8001626 <__aeabi_dsub+0x12a>
 800161a:	1d2b      	adds	r3, r5, #4
 800161c:	42ab      	cmp	r3, r5
 800161e:	41ad      	sbcs	r5, r5
 8001620:	426d      	negs	r5, r5
 8001622:	1964      	adds	r4, r4, r5
 8001624:	001d      	movs	r5, r3
 8001626:	0223      	lsls	r3, r4, #8
 8001628:	d400      	bmi.n	800162c <__aeabi_dsub+0x130>
 800162a:	e140      	b.n	80018ae <__aeabi_dsub+0x3b2>
 800162c:	4a88      	ldr	r2, [pc, #544]	@ (8001850 <__aeabi_dsub+0x354>)
 800162e:	3701      	adds	r7, #1
 8001630:	4297      	cmp	r7, r2
 8001632:	d100      	bne.n	8001636 <__aeabi_dsub+0x13a>
 8001634:	e101      	b.n	800183a <__aeabi_dsub+0x33e>
 8001636:	2601      	movs	r6, #1
 8001638:	4643      	mov	r3, r8
 800163a:	4986      	ldr	r1, [pc, #536]	@ (8001854 <__aeabi_dsub+0x358>)
 800163c:	08ed      	lsrs	r5, r5, #3
 800163e:	4021      	ands	r1, r4
 8001640:	074a      	lsls	r2, r1, #29
 8001642:	432a      	orrs	r2, r5
 8001644:	057c      	lsls	r4, r7, #21
 8001646:	024d      	lsls	r5, r1, #9
 8001648:	0b2d      	lsrs	r5, r5, #12
 800164a:	0d64      	lsrs	r4, r4, #21
 800164c:	401e      	ands	r6, r3
 800164e:	0524      	lsls	r4, r4, #20
 8001650:	432c      	orrs	r4, r5
 8001652:	07f6      	lsls	r6, r6, #31
 8001654:	4334      	orrs	r4, r6
 8001656:	0010      	movs	r0, r2
 8001658:	0021      	movs	r1, r4
 800165a:	b005      	add	sp, #20
 800165c:	bcf0      	pop	{r4, r5, r6, r7}
 800165e:	46bb      	mov	fp, r7
 8001660:	46b2      	mov	sl, r6
 8001662:	46a9      	mov	r9, r5
 8001664:	46a0      	mov	r8, r4
 8001666:	bdf0      	pop	{r4, r5, r6, r7, pc}
 8001668:	2d00      	cmp	r5, #0
 800166a:	dc00      	bgt.n	800166e <__aeabi_dsub+0x172>
 800166c:	e2d0      	b.n	8001c10 <__aeabi_dsub+0x714>
 800166e:	4649      	mov	r1, r9
 8001670:	2900      	cmp	r1, #0
 8001672:	d000      	beq.n	8001676 <__aeabi_dsub+0x17a>
 8001674:	e0d4      	b.n	8001820 <__aeabi_dsub+0x324>
 8001676:	4661      	mov	r1, ip
 8001678:	9b02      	ldr	r3, [sp, #8]
 800167a:	4319      	orrs	r1, r3
 800167c:	d100      	bne.n	8001680 <__aeabi_dsub+0x184>
 800167e:	e12b      	b.n	80018d8 <__aeabi_dsub+0x3dc>
 8001680:	1e69      	subs	r1, r5, #1
 8001682:	2d01      	cmp	r5, #1
 8001684:	d100      	bne.n	8001688 <__aeabi_dsub+0x18c>
 8001686:	e1d9      	b.n	8001a3c <__aeabi_dsub+0x540>
 8001688:	4295      	cmp	r5, r2
 800168a:	d100      	bne.n	800168e <__aeabi_dsub+0x192>
 800168c:	e10a      	b.n	80018a4 <__aeabi_dsub+0x3a8>
 800168e:	2501      	movs	r5, #1
 8001690:	2938      	cmp	r1, #56	@ 0x38
 8001692:	dc17      	bgt.n	80016c4 <__aeabi_dsub+0x1c8>
 8001694:	468a      	mov	sl, r1
 8001696:	4653      	mov	r3, sl
 8001698:	2b1f      	cmp	r3, #31
 800169a:	dd00      	ble.n	800169e <__aeabi_dsub+0x1a2>
 800169c:	e1e7      	b.n	8001a6e <__aeabi_dsub+0x572>
 800169e:	2220      	movs	r2, #32
 80016a0:	1ad2      	subs	r2, r2, r3
 80016a2:	9b02      	ldr	r3, [sp, #8]
 80016a4:	4661      	mov	r1, ip
 80016a6:	4093      	lsls	r3, r2
 80016a8:	001d      	movs	r5, r3
 80016aa:	4653      	mov	r3, sl
 80016ac:	40d9      	lsrs	r1, r3
 80016ae:	4663      	mov	r3, ip
 80016b0:	4093      	lsls	r3, r2
 80016b2:	001a      	movs	r2, r3
 80016b4:	430d      	orrs	r5, r1
 80016b6:	1e51      	subs	r1, r2, #1
 80016b8:	418a      	sbcs	r2, r1
 80016ba:	4653      	mov	r3, sl
 80016bc:	4315      	orrs	r5, r2
 80016be:	9a02      	ldr	r2, [sp, #8]
 80016c0:	40da      	lsrs	r2, r3
 80016c2:	18a4      	adds	r4, r4, r2
 80016c4:	182d      	adds	r5, r5, r0
 80016c6:	4285      	cmp	r5, r0
 80016c8:	4180      	sbcs	r0, r0
 80016ca:	4240      	negs	r0, r0
 80016cc:	1824      	adds	r4, r4, r0
 80016ce:	0223      	lsls	r3, r4, #8
 80016d0:	d400      	bmi.n	80016d4 <__aeabi_dsub+0x1d8>
 80016d2:	e0b6      	b.n	8001842 <__aeabi_dsub+0x346>
 80016d4:	4b5e      	ldr	r3, [pc, #376]	@ (8001850 <__aeabi_dsub+0x354>)
 80016d6:	3701      	adds	r7, #1
 80016d8:	429f      	cmp	r7, r3
 80016da:	d100      	bne.n	80016de <__aeabi_dsub+0x1e2>
 80016dc:	e0ad      	b.n	800183a <__aeabi_dsub+0x33e>
 80016de:	2101      	movs	r1, #1
 80016e0:	4b5c      	ldr	r3, [pc, #368]	@ (8001854 <__aeabi_dsub+0x358>)
 80016e2:	086a      	lsrs	r2, r5, #1
 80016e4:	401c      	ands	r4, r3
 80016e6:	4029      	ands	r1, r5
 80016e8:	430a      	orrs	r2, r1
 80016ea:	07e5      	lsls	r5, r4, #31
 80016ec:	4315      	orrs	r5, r2
 80016ee:	0864      	lsrs	r4, r4, #1
 80016f0:	e78d      	b.n	800160e <__aeabi_dsub+0x112>
 80016f2:	4a59      	ldr	r2, [pc, #356]	@ (8001858 <__aeabi_dsub+0x35c>)
 80016f4:	9b02      	ldr	r3, [sp, #8]
 80016f6:	4692      	mov	sl, r2
 80016f8:	4662      	mov	r2, ip
 80016fa:	44ba      	add	sl, r7
 80016fc:	431a      	orrs	r2, r3
 80016fe:	d02c      	beq.n	800175a <__aeabi_dsub+0x25e>
 8001700:	428e      	cmp	r6, r1
 8001702:	d02e      	beq.n	8001762 <__aeabi_dsub+0x266>
 8001704:	4652      	mov	r2, sl
 8001706:	2a00      	cmp	r2, #0
 8001708:	d060      	beq.n	80017cc <__aeabi_dsub+0x2d0>
 800170a:	2f00      	cmp	r7, #0
 800170c:	d100      	bne.n	8001710 <__aeabi_dsub+0x214>
 800170e:	e0db      	b.n	80018c8 <__aeabi_dsub+0x3cc>
 8001710:	4663      	mov	r3, ip
 8001712:	000e      	movs	r6, r1
 8001714:	9c02      	ldr	r4, [sp, #8]
 8001716:	08d8      	lsrs	r0, r3, #3
 8001718:	0762      	lsls	r2, r4, #29
 800171a:	4302      	orrs	r2, r0
 800171c:	08e4      	lsrs	r4, r4, #3
 800171e:	0013      	movs	r3, r2
 8001720:	4323      	orrs	r3, r4
 8001722:	d100      	bne.n	8001726 <__aeabi_dsub+0x22a>
 8001724:	e254      	b.n	8001bd0 <__aeabi_dsub+0x6d4>
 8001726:	2580      	movs	r5, #128	@ 0x80
 8001728:	032d      	lsls	r5, r5, #12
 800172a:	4325      	orrs	r5, r4
 800172c:	032d      	lsls	r5, r5, #12
 800172e:	4c48      	ldr	r4, [pc, #288]	@ (8001850 <__aeabi_dsub+0x354>)
 8001730:	0b2d      	lsrs	r5, r5, #12
 8001732:	e78c      	b.n	800164e <__aeabi_dsub+0x152>
 8001734:	4661      	mov	r1, ip
 8001736:	9b02      	ldr	r3, [sp, #8]
 8001738:	4319      	orrs	r1, r3
 800173a:	d100      	bne.n	800173e <__aeabi_dsub+0x242>
 800173c:	e0cc      	b.n	80018d8 <__aeabi_dsub+0x3dc>
 800173e:	0029      	movs	r1, r5
 8001740:	3901      	subs	r1, #1
 8001742:	2d01      	cmp	r5, #1
 8001744:	d100      	bne.n	8001748 <__aeabi_dsub+0x24c>
 8001746:	e188      	b.n	8001a5a <__aeabi_dsub+0x55e>
 8001748:	4295      	cmp	r5, r2
 800174a:	d100      	bne.n	800174e <__aeabi_dsub+0x252>
 800174c:	e0aa      	b.n	80018a4 <__aeabi_dsub+0x3a8>
 800174e:	2501      	movs	r5, #1
 8001750:	2938      	cmp	r1, #56	@ 0x38
 8001752:	dd00      	ble.n	8001756 <__aeabi_dsub+0x25a>
 8001754:	e72f      	b.n	80015b6 <__aeabi_dsub+0xba>
 8001756:	468a      	mov	sl, r1
 8001758:	e718      	b.n	800158c <__aeabi_dsub+0x90>
 800175a:	2201      	movs	r2, #1
 800175c:	4051      	eors	r1, r2
 800175e:	428e      	cmp	r6, r1
 8001760:	d1d0      	bne.n	8001704 <__aeabi_dsub+0x208>
 8001762:	4653      	mov	r3, sl
 8001764:	2b00      	cmp	r3, #0
 8001766:	d100      	bne.n	800176a <__aeabi_dsub+0x26e>
 8001768:	e0be      	b.n	80018e8 <__aeabi_dsub+0x3ec>
 800176a:	2f00      	cmp	r7, #0
 800176c:	d000      	beq.n	8001770 <__aeabi_dsub+0x274>
 800176e:	e138      	b.n	80019e2 <__aeabi_dsub+0x4e6>
 8001770:	46ca      	mov	sl, r9
 8001772:	0022      	movs	r2, r4
 8001774:	4302      	orrs	r2, r0
 8001776:	d100      	bne.n	800177a <__aeabi_dsub+0x27e>
 8001778:	e1e2      	b.n	8001b40 <__aeabi_dsub+0x644>
 800177a:	4653      	mov	r3, sl
 800177c:	1e59      	subs	r1, r3, #1
 800177e:	2b01      	cmp	r3, #1
 8001780:	d100      	bne.n	8001784 <__aeabi_dsub+0x288>
 8001782:	e20d      	b.n	8001ba0 <__aeabi_dsub+0x6a4>
 8001784:	4a32      	ldr	r2, [pc, #200]	@ (8001850 <__aeabi_dsub+0x354>)
 8001786:	4592      	cmp	sl, r2
 8001788:	d100      	bne.n	800178c <__aeabi_dsub+0x290>
 800178a:	e1d2      	b.n	8001b32 <__aeabi_dsub+0x636>
 800178c:	2701      	movs	r7, #1
 800178e:	2938      	cmp	r1, #56	@ 0x38
 8001790:	dc13      	bgt.n	80017ba <__aeabi_dsub+0x2be>
 8001792:	291f      	cmp	r1, #31
 8001794:	dd00      	ble.n	8001798 <__aeabi_dsub+0x29c>
 8001796:	e1ee      	b.n	8001b76 <__aeabi_dsub+0x67a>
 8001798:	2220      	movs	r2, #32
 800179a:	9b02      	ldr	r3, [sp, #8]
 800179c:	1a52      	subs	r2, r2, r1
 800179e:	0025      	movs	r5, r4
 80017a0:	0007      	movs	r7, r0
 80017a2:	469a      	mov	sl, r3
 80017a4:	40cc      	lsrs	r4, r1
 80017a6:	4090      	lsls	r0, r2
 80017a8:	4095      	lsls	r5, r2
 80017aa:	40cf      	lsrs	r7, r1
 80017ac:	44a2      	add	sl, r4
 80017ae:	1e42      	subs	r2, r0, #1
 80017b0:	4190      	sbcs	r0, r2
 80017b2:	4653      	mov	r3, sl
 80017b4:	432f      	orrs	r7, r5
 80017b6:	4307      	orrs	r7, r0
 80017b8:	9302      	str	r3, [sp, #8]
 80017ba:	003d      	movs	r5, r7
 80017bc:	4465      	add	r5, ip
 80017be:	4565      	cmp	r5, ip
 80017c0:	4192      	sbcs	r2, r2
 80017c2:	9b02      	ldr	r3, [sp, #8]
 80017c4:	4252      	negs	r2, r2
 80017c6:	464f      	mov	r7, r9
 80017c8:	18d4      	adds	r4, r2, r3
 80017ca:	e780      	b.n	80016ce <__aeabi_dsub+0x1d2>
 80017cc:	4a23      	ldr	r2, [pc, #140]	@ (800185c <__aeabi_dsub+0x360>)
 80017ce:	1c7d      	adds	r5, r7, #1
 80017d0:	4215      	tst	r5, r2
 80017d2:	d000      	beq.n	80017d6 <__aeabi_dsub+0x2da>
 80017d4:	e0aa      	b.n	800192c <__aeabi_dsub+0x430>
 80017d6:	4662      	mov	r2, ip
 80017d8:	0025      	movs	r5, r4
 80017da:	9b02      	ldr	r3, [sp, #8]
 80017dc:	4305      	orrs	r5, r0
 80017de:	431a      	orrs	r2, r3
 80017e0:	2f00      	cmp	r7, #0
 80017e2:	d000      	beq.n	80017e6 <__aeabi_dsub+0x2ea>
 80017e4:	e0f5      	b.n	80019d2 <__aeabi_dsub+0x4d6>
 80017e6:	2d00      	cmp	r5, #0
 80017e8:	d100      	bne.n	80017ec <__aeabi_dsub+0x2f0>
 80017ea:	e16b      	b.n	8001ac4 <__aeabi_dsub+0x5c8>
 80017ec:	2a00      	cmp	r2, #0
 80017ee:	d100      	bne.n	80017f2 <__aeabi_dsub+0x2f6>
 80017f0:	e152      	b.n	8001a98 <__aeabi_dsub+0x59c>
 80017f2:	4663      	mov	r3, ip
 80017f4:	1ac5      	subs	r5, r0, r3
 80017f6:	9b02      	ldr	r3, [sp, #8]
 80017f8:	1ae2      	subs	r2, r4, r3
 80017fa:	42a8      	cmp	r0, r5
 80017fc:	419b      	sbcs	r3, r3
 80017fe:	425b      	negs	r3, r3
 8001800:	1ad3      	subs	r3, r2, r3
 8001802:	021a      	lsls	r2, r3, #8
 8001804:	d400      	bmi.n	8001808 <__aeabi_dsub+0x30c>
 8001806:	e1d5      	b.n	8001bb4 <__aeabi_dsub+0x6b8>
 8001808:	4663      	mov	r3, ip
 800180a:	1a1d      	subs	r5, r3, r0
 800180c:	45ac      	cmp	ip, r5
 800180e:	4192      	sbcs	r2, r2
 8001810:	2601      	movs	r6, #1
 8001812:	9b02      	ldr	r3, [sp, #8]
 8001814:	4252      	negs	r2, r2
 8001816:	1b1c      	subs	r4, r3, r4
 8001818:	4688      	mov	r8, r1
 800181a:	1aa4      	subs	r4, r4, r2
 800181c:	400e      	ands	r6, r1
 800181e:	e6f6      	b.n	800160e <__aeabi_dsub+0x112>
 8001820:	4297      	cmp	r7, r2
 8001822:	d03f      	beq.n	80018a4 <__aeabi_dsub+0x3a8>
 8001824:	4652      	mov	r2, sl
 8001826:	2501      	movs	r5, #1
 8001828:	2a38      	cmp	r2, #56	@ 0x38
 800182a:	dd00      	ble.n	800182e <__aeabi_dsub+0x332>
 800182c:	e74a      	b.n	80016c4 <__aeabi_dsub+0x1c8>
 800182e:	2280      	movs	r2, #128	@ 0x80
 8001830:	9b02      	ldr	r3, [sp, #8]
 8001832:	0412      	lsls	r2, r2, #16
 8001834:	4313      	orrs	r3, r2
 8001836:	9302      	str	r3, [sp, #8]
 8001838:	e72d      	b.n	8001696 <__aeabi_dsub+0x19a>
 800183a:	003c      	movs	r4, r7
 800183c:	2500      	movs	r5, #0
 800183e:	2200      	movs	r2, #0
 8001840:	e705      	b.n	800164e <__aeabi_dsub+0x152>
 8001842:	2307      	movs	r3, #7
 8001844:	402b      	ands	r3, r5
 8001846:	2b00      	cmp	r3, #0
 8001848:	d000      	beq.n	800184c <__aeabi_dsub+0x350>
 800184a:	e6e2      	b.n	8001612 <__aeabi_dsub+0x116>
 800184c:	e06b      	b.n	8001926 <__aeabi_dsub+0x42a>
 800184e:	46c0      	nop			@ (mov r8, r8)
 8001850:	000007ff 	.word	0x000007ff
 8001854:	ff7fffff 	.word	0xff7fffff
 8001858:	fffff801 	.word	0xfffff801
 800185c:	000007fe 	.word	0x000007fe
 8001860:	0028      	movs	r0, r5
 8001862:	f000 fa8f 	bl	8001d84 <__clzsi2>
 8001866:	0003      	movs	r3, r0
 8001868:	3318      	adds	r3, #24
 800186a:	2b1f      	cmp	r3, #31
 800186c:	dc00      	bgt.n	8001870 <__aeabi_dsub+0x374>
 800186e:	e6b4      	b.n	80015da <__aeabi_dsub+0xde>
 8001870:	002a      	movs	r2, r5
 8001872:	3808      	subs	r0, #8
 8001874:	4082      	lsls	r2, r0
 8001876:	429f      	cmp	r7, r3
 8001878:	dd00      	ble.n	800187c <__aeabi_dsub+0x380>
 800187a:	e0b9      	b.n	80019f0 <__aeabi_dsub+0x4f4>
 800187c:	1bdb      	subs	r3, r3, r7
 800187e:	1c58      	adds	r0, r3, #1
 8001880:	281f      	cmp	r0, #31
 8001882:	dc00      	bgt.n	8001886 <__aeabi_dsub+0x38a>
 8001884:	e1a0      	b.n	8001bc8 <__aeabi_dsub+0x6cc>
 8001886:	0015      	movs	r5, r2
 8001888:	3b1f      	subs	r3, #31
 800188a:	40dd      	lsrs	r5, r3
 800188c:	2820      	cmp	r0, #32
 800188e:	d005      	beq.n	800189c <__aeabi_dsub+0x3a0>
 8001890:	2340      	movs	r3, #64	@ 0x40
 8001892:	1a1b      	subs	r3, r3, r0
 8001894:	409a      	lsls	r2, r3
 8001896:	1e53      	subs	r3, r2, #1
 8001898:	419a      	sbcs	r2, r3
 800189a:	4315      	orrs	r5, r2
 800189c:	2307      	movs	r3, #7
 800189e:	2700      	movs	r7, #0
 80018a0:	402b      	ands	r3, r5
 80018a2:	e7d0      	b.n	8001846 <__aeabi_dsub+0x34a>
 80018a4:	08c0      	lsrs	r0, r0, #3
 80018a6:	0762      	lsls	r2, r4, #29
 80018a8:	4302      	orrs	r2, r0
 80018aa:	08e4      	lsrs	r4, r4, #3
 80018ac:	e737      	b.n	800171e <__aeabi_dsub+0x222>
 80018ae:	08ea      	lsrs	r2, r5, #3
 80018b0:	0763      	lsls	r3, r4, #29
 80018b2:	431a      	orrs	r2, r3
 80018b4:	4bd3      	ldr	r3, [pc, #844]	@ (8001c04 <__aeabi_dsub+0x708>)
 80018b6:	08e4      	lsrs	r4, r4, #3
 80018b8:	429f      	cmp	r7, r3
 80018ba:	d100      	bne.n	80018be <__aeabi_dsub+0x3c2>
 80018bc:	e72f      	b.n	800171e <__aeabi_dsub+0x222>
 80018be:	0324      	lsls	r4, r4, #12
 80018c0:	0b25      	lsrs	r5, r4, #12
 80018c2:	057c      	lsls	r4, r7, #21
 80018c4:	0d64      	lsrs	r4, r4, #21
 80018c6:	e6c2      	b.n	800164e <__aeabi_dsub+0x152>
 80018c8:	46ca      	mov	sl, r9
 80018ca:	0022      	movs	r2, r4
 80018cc:	4302      	orrs	r2, r0
 80018ce:	d158      	bne.n	8001982 <__aeabi_dsub+0x486>
 80018d0:	4663      	mov	r3, ip
 80018d2:	000e      	movs	r6, r1
 80018d4:	9c02      	ldr	r4, [sp, #8]
 80018d6:	9303      	str	r3, [sp, #12]
 80018d8:	9b03      	ldr	r3, [sp, #12]
 80018da:	4657      	mov	r7, sl
 80018dc:	08da      	lsrs	r2, r3, #3
 80018de:	e7e7      	b.n	80018b0 <__aeabi_dsub+0x3b4>
 80018e0:	4cc9      	ldr	r4, [pc, #804]	@ (8001c08 <__aeabi_dsub+0x70c>)
 80018e2:	1aff      	subs	r7, r7, r3
 80018e4:	4014      	ands	r4, r2
 80018e6:	e692      	b.n	800160e <__aeabi_dsub+0x112>
 80018e8:	4dc8      	ldr	r5, [pc, #800]	@ (8001c0c <__aeabi_dsub+0x710>)
 80018ea:	1c7a      	adds	r2, r7, #1
 80018ec:	422a      	tst	r2, r5
 80018ee:	d000      	beq.n	80018f2 <__aeabi_dsub+0x3f6>
 80018f0:	e084      	b.n	80019fc <__aeabi_dsub+0x500>
 80018f2:	0022      	movs	r2, r4
 80018f4:	4302      	orrs	r2, r0
 80018f6:	2f00      	cmp	r7, #0
 80018f8:	d000      	beq.n	80018fc <__aeabi_dsub+0x400>
 80018fa:	e0ef      	b.n	8001adc <__aeabi_dsub+0x5e0>
 80018fc:	2a00      	cmp	r2, #0
 80018fe:	d100      	bne.n	8001902 <__aeabi_dsub+0x406>
 8001900:	e0e5      	b.n	8001ace <__aeabi_dsub+0x5d2>
 8001902:	4662      	mov	r2, ip
 8001904:	9902      	ldr	r1, [sp, #8]
 8001906:	430a      	orrs	r2, r1
 8001908:	d100      	bne.n	800190c <__aeabi_dsub+0x410>
 800190a:	e0c5      	b.n	8001a98 <__aeabi_dsub+0x59c>
 800190c:	4663      	mov	r3, ip
 800190e:	18c5      	adds	r5, r0, r3
 8001910:	468c      	mov	ip, r1
 8001912:	4285      	cmp	r5, r0
 8001914:	4180      	sbcs	r0, r0
 8001916:	4464      	add	r4, ip
 8001918:	4240      	negs	r0, r0
 800191a:	1824      	adds	r4, r4, r0
 800191c:	0223      	lsls	r3, r4, #8
 800191e:	d502      	bpl.n	8001926 <__aeabi_dsub+0x42a>
 8001920:	4bb9      	ldr	r3, [pc, #740]	@ (8001c08 <__aeabi_dsub+0x70c>)
 8001922:	3701      	adds	r7, #1
 8001924:	401c      	ands	r4, r3
 8001926:	46ba      	mov	sl, r7
 8001928:	9503      	str	r5, [sp, #12]
 800192a:	e7d5      	b.n	80018d8 <__aeabi_dsub+0x3dc>
 800192c:	4662      	mov	r2, ip
 800192e:	1a85      	subs	r5, r0, r2
 8001930:	42a8      	cmp	r0, r5
 8001932:	4192      	sbcs	r2, r2
 8001934:	4252      	negs	r2, r2
 8001936:	4691      	mov	r9, r2
 8001938:	9b02      	ldr	r3, [sp, #8]
 800193a:	1ae3      	subs	r3, r4, r3
 800193c:	001a      	movs	r2, r3
 800193e:	464b      	mov	r3, r9
 8001940:	1ad2      	subs	r2, r2, r3
 8001942:	0013      	movs	r3, r2
 8001944:	4691      	mov	r9, r2
 8001946:	021a      	lsls	r2, r3, #8
 8001948:	d46c      	bmi.n	8001a24 <__aeabi_dsub+0x528>
 800194a:	464a      	mov	r2, r9
 800194c:	464c      	mov	r4, r9
 800194e:	432a      	orrs	r2, r5
 8001950:	d000      	beq.n	8001954 <__aeabi_dsub+0x458>
 8001952:	e63a      	b.n	80015ca <__aeabi_dsub+0xce>
 8001954:	2600      	movs	r6, #0
 8001956:	2400      	movs	r4, #0
 8001958:	2500      	movs	r5, #0
 800195a:	e678      	b.n	800164e <__aeabi_dsub+0x152>
 800195c:	9902      	ldr	r1, [sp, #8]
 800195e:	4653      	mov	r3, sl
 8001960:	000d      	movs	r5, r1
 8001962:	3a20      	subs	r2, #32
 8001964:	40d5      	lsrs	r5, r2
 8001966:	2b20      	cmp	r3, #32
 8001968:	d006      	beq.n	8001978 <__aeabi_dsub+0x47c>
 800196a:	2240      	movs	r2, #64	@ 0x40
 800196c:	1ad2      	subs	r2, r2, r3
 800196e:	000b      	movs	r3, r1
 8001970:	4093      	lsls	r3, r2
 8001972:	4662      	mov	r2, ip
 8001974:	431a      	orrs	r2, r3
 8001976:	4693      	mov	fp, r2
 8001978:	465b      	mov	r3, fp
 800197a:	1e5a      	subs	r2, r3, #1
 800197c:	4193      	sbcs	r3, r2
 800197e:	431d      	orrs	r5, r3
 8001980:	e619      	b.n	80015b6 <__aeabi_dsub+0xba>
 8001982:	4653      	mov	r3, sl
 8001984:	1e5a      	subs	r2, r3, #1
 8001986:	2b01      	cmp	r3, #1
 8001988:	d100      	bne.n	800198c <__aeabi_dsub+0x490>
 800198a:	e0c6      	b.n	8001b1a <__aeabi_dsub+0x61e>
 800198c:	4e9d      	ldr	r6, [pc, #628]	@ (8001c04 <__aeabi_dsub+0x708>)
 800198e:	45b2      	cmp	sl, r6
 8001990:	d100      	bne.n	8001994 <__aeabi_dsub+0x498>
 8001992:	e6bd      	b.n	8001710 <__aeabi_dsub+0x214>
 8001994:	4688      	mov	r8, r1
 8001996:	000e      	movs	r6, r1
 8001998:	2501      	movs	r5, #1
 800199a:	2a38      	cmp	r2, #56	@ 0x38
 800199c:	dc10      	bgt.n	80019c0 <__aeabi_dsub+0x4c4>
 800199e:	2a1f      	cmp	r2, #31
 80019a0:	dc7f      	bgt.n	8001aa2 <__aeabi_dsub+0x5a6>
 80019a2:	2120      	movs	r1, #32
 80019a4:	0025      	movs	r5, r4
 80019a6:	1a89      	subs	r1, r1, r2
 80019a8:	0007      	movs	r7, r0
 80019aa:	4088      	lsls	r0, r1
 80019ac:	408d      	lsls	r5, r1
 80019ae:	40d7      	lsrs	r7, r2
 80019b0:	40d4      	lsrs	r4, r2
 80019b2:	1e41      	subs	r1, r0, #1
 80019b4:	4188      	sbcs	r0, r1
 80019b6:	9b02      	ldr	r3, [sp, #8]
 80019b8:	433d      	orrs	r5, r7
 80019ba:	1b1b      	subs	r3, r3, r4
 80019bc:	4305      	orrs	r5, r0
 80019be:	9302      	str	r3, [sp, #8]
 80019c0:	4662      	mov	r2, ip
 80019c2:	1b55      	subs	r5, r2, r5
 80019c4:	45ac      	cmp	ip, r5
 80019c6:	4192      	sbcs	r2, r2
 80019c8:	9b02      	ldr	r3, [sp, #8]
 80019ca:	4252      	negs	r2, r2
 80019cc:	464f      	mov	r7, r9
 80019ce:	1a9c      	subs	r4, r3, r2
 80019d0:	e5f6      	b.n	80015c0 <__aeabi_dsub+0xc4>
 80019d2:	2d00      	cmp	r5, #0
 80019d4:	d000      	beq.n	80019d8 <__aeabi_dsub+0x4dc>
 80019d6:	e0b7      	b.n	8001b48 <__aeabi_dsub+0x64c>
 80019d8:	2a00      	cmp	r2, #0
 80019da:	d100      	bne.n	80019de <__aeabi_dsub+0x4e2>
 80019dc:	e0f0      	b.n	8001bc0 <__aeabi_dsub+0x6c4>
 80019de:	2601      	movs	r6, #1
 80019e0:	400e      	ands	r6, r1
 80019e2:	4663      	mov	r3, ip
 80019e4:	9802      	ldr	r0, [sp, #8]
 80019e6:	08d9      	lsrs	r1, r3, #3
 80019e8:	0742      	lsls	r2, r0, #29
 80019ea:	430a      	orrs	r2, r1
 80019ec:	08c4      	lsrs	r4, r0, #3
 80019ee:	e696      	b.n	800171e <__aeabi_dsub+0x222>
 80019f0:	4c85      	ldr	r4, [pc, #532]	@ (8001c08 <__aeabi_dsub+0x70c>)
 80019f2:	1aff      	subs	r7, r7, r3
 80019f4:	4014      	ands	r4, r2
 80019f6:	0762      	lsls	r2, r4, #29
 80019f8:	08e4      	lsrs	r4, r4, #3
 80019fa:	e760      	b.n	80018be <__aeabi_dsub+0x3c2>
 80019fc:	4981      	ldr	r1, [pc, #516]	@ (8001c04 <__aeabi_dsub+0x708>)
 80019fe:	428a      	cmp	r2, r1
 8001a00:	d100      	bne.n	8001a04 <__aeabi_dsub+0x508>
 8001a02:	e0c9      	b.n	8001b98 <__aeabi_dsub+0x69c>
 8001a04:	4663      	mov	r3, ip
 8001a06:	18c1      	adds	r1, r0, r3
 8001a08:	4281      	cmp	r1, r0
 8001a0a:	4180      	sbcs	r0, r0
 8001a0c:	9b02      	ldr	r3, [sp, #8]
 8001a0e:	4240      	negs	r0, r0
 8001a10:	18e3      	adds	r3, r4, r3
 8001a12:	181b      	adds	r3, r3, r0
 8001a14:	07dd      	lsls	r5, r3, #31
 8001a16:	085c      	lsrs	r4, r3, #1
 8001a18:	2307      	movs	r3, #7
 8001a1a:	0849      	lsrs	r1, r1, #1
 8001a1c:	430d      	orrs	r5, r1
 8001a1e:	0017      	movs	r7, r2
 8001a20:	402b      	ands	r3, r5
 8001a22:	e710      	b.n	8001846 <__aeabi_dsub+0x34a>
 8001a24:	4663      	mov	r3, ip
 8001a26:	1a1d      	subs	r5, r3, r0
 8001a28:	45ac      	cmp	ip, r5
 8001a2a:	4192      	sbcs	r2, r2
 8001a2c:	2601      	movs	r6, #1
 8001a2e:	9b02      	ldr	r3, [sp, #8]
 8001a30:	4252      	negs	r2, r2
 8001a32:	1b1c      	subs	r4, r3, r4
 8001a34:	4688      	mov	r8, r1
 8001a36:	1aa4      	subs	r4, r4, r2
 8001a38:	400e      	ands	r6, r1
 8001a3a:	e5c6      	b.n	80015ca <__aeabi_dsub+0xce>
 8001a3c:	4663      	mov	r3, ip
 8001a3e:	18c5      	adds	r5, r0, r3
 8001a40:	9b02      	ldr	r3, [sp, #8]
 8001a42:	4285      	cmp	r5, r0
 8001a44:	4180      	sbcs	r0, r0
 8001a46:	469c      	mov	ip, r3
 8001a48:	4240      	negs	r0, r0
 8001a4a:	4464      	add	r4, ip
 8001a4c:	1824      	adds	r4, r4, r0
 8001a4e:	2701      	movs	r7, #1
 8001a50:	0223      	lsls	r3, r4, #8
 8001a52:	d400      	bmi.n	8001a56 <__aeabi_dsub+0x55a>
 8001a54:	e6f5      	b.n	8001842 <__aeabi_dsub+0x346>
 8001a56:	2702      	movs	r7, #2
 8001a58:	e641      	b.n	80016de <__aeabi_dsub+0x1e2>
 8001a5a:	4663      	mov	r3, ip
 8001a5c:	1ac5      	subs	r5, r0, r3
 8001a5e:	42a8      	cmp	r0, r5
 8001a60:	4180      	sbcs	r0, r0
 8001a62:	9b02      	ldr	r3, [sp, #8]
 8001a64:	4240      	negs	r0, r0
 8001a66:	1ae4      	subs	r4, r4, r3
 8001a68:	2701      	movs	r7, #1
 8001a6a:	1a24      	subs	r4, r4, r0
 8001a6c:	e5a8      	b.n	80015c0 <__aeabi_dsub+0xc4>
 8001a6e:	9d02      	ldr	r5, [sp, #8]
 8001a70:	4652      	mov	r2, sl
 8001a72:	002b      	movs	r3, r5
 8001a74:	3a20      	subs	r2, #32
 8001a76:	40d3      	lsrs	r3, r2
 8001a78:	0019      	movs	r1, r3
 8001a7a:	4653      	mov	r3, sl
 8001a7c:	2b20      	cmp	r3, #32
 8001a7e:	d006      	beq.n	8001a8e <__aeabi_dsub+0x592>
 8001a80:	2240      	movs	r2, #64	@ 0x40
 8001a82:	1ad2      	subs	r2, r2, r3
 8001a84:	002b      	movs	r3, r5
 8001a86:	4093      	lsls	r3, r2
 8001a88:	4662      	mov	r2, ip
 8001a8a:	431a      	orrs	r2, r3
 8001a8c:	4693      	mov	fp, r2
 8001a8e:	465d      	mov	r5, fp
 8001a90:	1e6b      	subs	r3, r5, #1
 8001a92:	419d      	sbcs	r5, r3
 8001a94:	430d      	orrs	r5, r1
 8001a96:	e615      	b.n	80016c4 <__aeabi_dsub+0x1c8>
 8001a98:	0762      	lsls	r2, r4, #29
 8001a9a:	08c0      	lsrs	r0, r0, #3
 8001a9c:	4302      	orrs	r2, r0
 8001a9e:	08e4      	lsrs	r4, r4, #3
 8001aa0:	e70d      	b.n	80018be <__aeabi_dsub+0x3c2>
 8001aa2:	0011      	movs	r1, r2
 8001aa4:	0027      	movs	r7, r4
 8001aa6:	3920      	subs	r1, #32
 8001aa8:	40cf      	lsrs	r7, r1
 8001aaa:	2a20      	cmp	r2, #32
 8001aac:	d005      	beq.n	8001aba <__aeabi_dsub+0x5be>
 8001aae:	2140      	movs	r1, #64	@ 0x40
 8001ab0:	1a8a      	subs	r2, r1, r2
 8001ab2:	4094      	lsls	r4, r2
 8001ab4:	0025      	movs	r5, r4
 8001ab6:	4305      	orrs	r5, r0
 8001ab8:	9503      	str	r5, [sp, #12]
 8001aba:	9d03      	ldr	r5, [sp, #12]
 8001abc:	1e6a      	subs	r2, r5, #1
 8001abe:	4195      	sbcs	r5, r2
 8001ac0:	433d      	orrs	r5, r7
 8001ac2:	e77d      	b.n	80019c0 <__aeabi_dsub+0x4c4>
 8001ac4:	2a00      	cmp	r2, #0
 8001ac6:	d100      	bne.n	8001aca <__aeabi_dsub+0x5ce>
 8001ac8:	e744      	b.n	8001954 <__aeabi_dsub+0x458>
 8001aca:	2601      	movs	r6, #1
 8001acc:	400e      	ands	r6, r1
 8001ace:	4663      	mov	r3, ip
 8001ad0:	08d9      	lsrs	r1, r3, #3
 8001ad2:	9b02      	ldr	r3, [sp, #8]
 8001ad4:	075a      	lsls	r2, r3, #29
 8001ad6:	430a      	orrs	r2, r1
 8001ad8:	08dc      	lsrs	r4, r3, #3
 8001ada:	e6f0      	b.n	80018be <__aeabi_dsub+0x3c2>
 8001adc:	2a00      	cmp	r2, #0
 8001ade:	d028      	beq.n	8001b32 <__aeabi_dsub+0x636>
 8001ae0:	4662      	mov	r2, ip
 8001ae2:	9f02      	ldr	r7, [sp, #8]
 8001ae4:	08c0      	lsrs	r0, r0, #3
 8001ae6:	433a      	orrs	r2, r7
 8001ae8:	d100      	bne.n	8001aec <__aeabi_dsub+0x5f0>
 8001aea:	e6dc      	b.n	80018a6 <__aeabi_dsub+0x3aa>
 8001aec:	0762      	lsls	r2, r4, #29
 8001aee:	4310      	orrs	r0, r2
 8001af0:	2280      	movs	r2, #128	@ 0x80
 8001af2:	08e4      	lsrs	r4, r4, #3
 8001af4:	0312      	lsls	r2, r2, #12
 8001af6:	4214      	tst	r4, r2
 8001af8:	d009      	beq.n	8001b0e <__aeabi_dsub+0x612>
 8001afa:	08fd      	lsrs	r5, r7, #3
 8001afc:	4215      	tst	r5, r2
 8001afe:	d106      	bne.n	8001b0e <__aeabi_dsub+0x612>
 8001b00:	4663      	mov	r3, ip
 8001b02:	2601      	movs	r6, #1
 8001b04:	002c      	movs	r4, r5
 8001b06:	08d8      	lsrs	r0, r3, #3
 8001b08:	077b      	lsls	r3, r7, #29
 8001b0a:	4318      	orrs	r0, r3
 8001b0c:	400e      	ands	r6, r1
 8001b0e:	0f42      	lsrs	r2, r0, #29
 8001b10:	00c0      	lsls	r0, r0, #3
 8001b12:	08c0      	lsrs	r0, r0, #3
 8001b14:	0752      	lsls	r2, r2, #29
 8001b16:	4302      	orrs	r2, r0
 8001b18:	e601      	b.n	800171e <__aeabi_dsub+0x222>
 8001b1a:	4663      	mov	r3, ip
 8001b1c:	1a1d      	subs	r5, r3, r0
 8001b1e:	45ac      	cmp	ip, r5
 8001b20:	4192      	sbcs	r2, r2
 8001b22:	9b02      	ldr	r3, [sp, #8]
 8001b24:	4252      	negs	r2, r2
 8001b26:	1b1c      	subs	r4, r3, r4
 8001b28:	000e      	movs	r6, r1
 8001b2a:	4688      	mov	r8, r1
 8001b2c:	2701      	movs	r7, #1
 8001b2e:	1aa4      	subs	r4, r4, r2
 8001b30:	e546      	b.n	80015c0 <__aeabi_dsub+0xc4>
 8001b32:	4663      	mov	r3, ip
 8001b34:	08d9      	lsrs	r1, r3, #3
 8001b36:	9b02      	ldr	r3, [sp, #8]
 8001b38:	075a      	lsls	r2, r3, #29
 8001b3a:	430a      	orrs	r2, r1
 8001b3c:	08dc      	lsrs	r4, r3, #3
 8001b3e:	e5ee      	b.n	800171e <__aeabi_dsub+0x222>
 8001b40:	4663      	mov	r3, ip
 8001b42:	9c02      	ldr	r4, [sp, #8]
 8001b44:	9303      	str	r3, [sp, #12]
 8001b46:	e6c7      	b.n	80018d8 <__aeabi_dsub+0x3dc>
 8001b48:	08c0      	lsrs	r0, r0, #3
 8001b4a:	2a00      	cmp	r2, #0
 8001b4c:	d100      	bne.n	8001b50 <__aeabi_dsub+0x654>
 8001b4e:	e6aa      	b.n	80018a6 <__aeabi_dsub+0x3aa>
 8001b50:	0762      	lsls	r2, r4, #29
 8001b52:	4310      	orrs	r0, r2
 8001b54:	2280      	movs	r2, #128	@ 0x80
 8001b56:	08e4      	lsrs	r4, r4, #3
 8001b58:	0312      	lsls	r2, r2, #12
 8001b5a:	4214      	tst	r4, r2
 8001b5c:	d0d7      	beq.n	8001b0e <__aeabi_dsub+0x612>
 8001b5e:	9f02      	ldr	r7, [sp, #8]
 8001b60:	08fd      	lsrs	r5, r7, #3
 8001b62:	4215      	tst	r5, r2
 8001b64:	d1d3      	bne.n	8001b0e <__aeabi_dsub+0x612>
 8001b66:	4663      	mov	r3, ip
 8001b68:	2601      	movs	r6, #1
 8001b6a:	08d8      	lsrs	r0, r3, #3
 8001b6c:	077b      	lsls	r3, r7, #29
 8001b6e:	002c      	movs	r4, r5
 8001b70:	4318      	orrs	r0, r3
 8001b72:	400e      	ands	r6, r1
 8001b74:	e7cb      	b.n	8001b0e <__aeabi_dsub+0x612>
 8001b76:	000a      	movs	r2, r1
 8001b78:	0027      	movs	r7, r4
 8001b7a:	3a20      	subs	r2, #32
 8001b7c:	40d7      	lsrs	r7, r2
 8001b7e:	2920      	cmp	r1, #32
 8001b80:	d005      	beq.n	8001b8e <__aeabi_dsub+0x692>
 8001b82:	2240      	movs	r2, #64	@ 0x40
 8001b84:	1a52      	subs	r2, r2, r1
 8001b86:	4094      	lsls	r4, r2
 8001b88:	0025      	movs	r5, r4
 8001b8a:	4305      	orrs	r5, r0
 8001b8c:	9503      	str	r5, [sp, #12]
 8001b8e:	9d03      	ldr	r5, [sp, #12]
 8001b90:	1e6a      	subs	r2, r5, #1
 8001b92:	4195      	sbcs	r5, r2
 8001b94:	432f      	orrs	r7, r5
 8001b96:	e610      	b.n	80017ba <__aeabi_dsub+0x2be>
 8001b98:	0014      	movs	r4, r2
 8001b9a:	2500      	movs	r5, #0
 8001b9c:	2200      	movs	r2, #0
 8001b9e:	e556      	b.n	800164e <__aeabi_dsub+0x152>
 8001ba0:	9b02      	ldr	r3, [sp, #8]
 8001ba2:	4460      	add	r0, ip
 8001ba4:	4699      	mov	r9, r3
 8001ba6:	4560      	cmp	r0, ip
 8001ba8:	4192      	sbcs	r2, r2
 8001baa:	444c      	add	r4, r9
 8001bac:	4252      	negs	r2, r2
 8001bae:	0005      	movs	r5, r0
 8001bb0:	18a4      	adds	r4, r4, r2
 8001bb2:	e74c      	b.n	8001a4e <__aeabi_dsub+0x552>
 8001bb4:	001a      	movs	r2, r3
 8001bb6:	001c      	movs	r4, r3
 8001bb8:	432a      	orrs	r2, r5
 8001bba:	d000      	beq.n	8001bbe <__aeabi_dsub+0x6c2>
 8001bbc:	e6b3      	b.n	8001926 <__aeabi_dsub+0x42a>
 8001bbe:	e6c9      	b.n	8001954 <__aeabi_dsub+0x458>
 8001bc0:	2480      	movs	r4, #128	@ 0x80
 8001bc2:	2600      	movs	r6, #0
 8001bc4:	0324      	lsls	r4, r4, #12
 8001bc6:	e5ae      	b.n	8001726 <__aeabi_dsub+0x22a>
 8001bc8:	2120      	movs	r1, #32
 8001bca:	2500      	movs	r5, #0
 8001bcc:	1a09      	subs	r1, r1, r0
 8001bce:	e517      	b.n	8001600 <__aeabi_dsub+0x104>
 8001bd0:	2200      	movs	r2, #0
 8001bd2:	2500      	movs	r5, #0
 8001bd4:	4c0b      	ldr	r4, [pc, #44]	@ (8001c04 <__aeabi_dsub+0x708>)
 8001bd6:	e53a      	b.n	800164e <__aeabi_dsub+0x152>
 8001bd8:	2d00      	cmp	r5, #0
 8001bda:	d100      	bne.n	8001bde <__aeabi_dsub+0x6e2>
 8001bdc:	e5f6      	b.n	80017cc <__aeabi_dsub+0x2d0>
 8001bde:	464b      	mov	r3, r9
 8001be0:	1bda      	subs	r2, r3, r7
 8001be2:	4692      	mov	sl, r2
 8001be4:	2f00      	cmp	r7, #0
 8001be6:	d100      	bne.n	8001bea <__aeabi_dsub+0x6ee>
 8001be8:	e66f      	b.n	80018ca <__aeabi_dsub+0x3ce>
 8001bea:	2a38      	cmp	r2, #56	@ 0x38
 8001bec:	dc05      	bgt.n	8001bfa <__aeabi_dsub+0x6fe>
 8001bee:	2680      	movs	r6, #128	@ 0x80
 8001bf0:	0436      	lsls	r6, r6, #16
 8001bf2:	4334      	orrs	r4, r6
 8001bf4:	4688      	mov	r8, r1
 8001bf6:	000e      	movs	r6, r1
 8001bf8:	e6d1      	b.n	800199e <__aeabi_dsub+0x4a2>
 8001bfa:	4688      	mov	r8, r1
 8001bfc:	000e      	movs	r6, r1
 8001bfe:	2501      	movs	r5, #1
 8001c00:	e6de      	b.n	80019c0 <__aeabi_dsub+0x4c4>
 8001c02:	46c0      	nop			@ (mov r8, r8)
 8001c04:	000007ff 	.word	0x000007ff
 8001c08:	ff7fffff 	.word	0xff7fffff
 8001c0c:	000007fe 	.word	0x000007fe
 8001c10:	2d00      	cmp	r5, #0
 8001c12:	d100      	bne.n	8001c16 <__aeabi_dsub+0x71a>
 8001c14:	e668      	b.n	80018e8 <__aeabi_dsub+0x3ec>
 8001c16:	464b      	mov	r3, r9
 8001c18:	1bd9      	subs	r1, r3, r7
 8001c1a:	2f00      	cmp	r7, #0
 8001c1c:	d101      	bne.n	8001c22 <__aeabi_dsub+0x726>
 8001c1e:	468a      	mov	sl, r1
 8001c20:	e5a7      	b.n	8001772 <__aeabi_dsub+0x276>
 8001c22:	2701      	movs	r7, #1
 8001c24:	2938      	cmp	r1, #56	@ 0x38
 8001c26:	dd00      	ble.n	8001c2a <__aeabi_dsub+0x72e>
 8001c28:	e5c7      	b.n	80017ba <__aeabi_dsub+0x2be>
 8001c2a:	2280      	movs	r2, #128	@ 0x80
 8001c2c:	0412      	lsls	r2, r2, #16
 8001c2e:	4314      	orrs	r4, r2
 8001c30:	e5af      	b.n	8001792 <__aeabi_dsub+0x296>
 8001c32:	46c0      	nop			@ (mov r8, r8)

08001c34 <__aeabi_d2iz>:
 8001c34:	000b      	movs	r3, r1
 8001c36:	0002      	movs	r2, r0
 8001c38:	b570      	push	{r4, r5, r6, lr}
 8001c3a:	4d16      	ldr	r5, [pc, #88]	@ (8001c94 <__aeabi_d2iz+0x60>)
 8001c3c:	030c      	lsls	r4, r1, #12
 8001c3e:	b082      	sub	sp, #8
 8001c40:	0049      	lsls	r1, r1, #1
 8001c42:	2000      	movs	r0, #0
 8001c44:	9200      	str	r2, [sp, #0]
 8001c46:	9301      	str	r3, [sp, #4]
 8001c48:	0b24      	lsrs	r4, r4, #12
 8001c4a:	0d49      	lsrs	r1, r1, #21
 8001c4c:	0fde      	lsrs	r6, r3, #31
 8001c4e:	42a9      	cmp	r1, r5
 8001c50:	dd04      	ble.n	8001c5c <__aeabi_d2iz+0x28>
 8001c52:	4811      	ldr	r0, [pc, #68]	@ (8001c98 <__aeabi_d2iz+0x64>)
 8001c54:	4281      	cmp	r1, r0
 8001c56:	dd03      	ble.n	8001c60 <__aeabi_d2iz+0x2c>
 8001c58:	4b10      	ldr	r3, [pc, #64]	@ (8001c9c <__aeabi_d2iz+0x68>)
 8001c5a:	18f0      	adds	r0, r6, r3
 8001c5c:	b002      	add	sp, #8
 8001c5e:	bd70      	pop	{r4, r5, r6, pc}
 8001c60:	2080      	movs	r0, #128	@ 0x80
 8001c62:	0340      	lsls	r0, r0, #13
 8001c64:	4320      	orrs	r0, r4
 8001c66:	4c0e      	ldr	r4, [pc, #56]	@ (8001ca0 <__aeabi_d2iz+0x6c>)
 8001c68:	1a64      	subs	r4, r4, r1
 8001c6a:	2c1f      	cmp	r4, #31
 8001c6c:	dd08      	ble.n	8001c80 <__aeabi_d2iz+0x4c>
 8001c6e:	4b0d      	ldr	r3, [pc, #52]	@ (8001ca4 <__aeabi_d2iz+0x70>)
 8001c70:	1a5b      	subs	r3, r3, r1
 8001c72:	40d8      	lsrs	r0, r3
 8001c74:	0003      	movs	r3, r0
 8001c76:	4258      	negs	r0, r3
 8001c78:	2e00      	cmp	r6, #0
 8001c7a:	d1ef      	bne.n	8001c5c <__aeabi_d2iz+0x28>
 8001c7c:	0018      	movs	r0, r3
 8001c7e:	e7ed      	b.n	8001c5c <__aeabi_d2iz+0x28>
 8001c80:	4b09      	ldr	r3, [pc, #36]	@ (8001ca8 <__aeabi_d2iz+0x74>)
 8001c82:	9a00      	ldr	r2, [sp, #0]
 8001c84:	469c      	mov	ip, r3
 8001c86:	0003      	movs	r3, r0
 8001c88:	4461      	add	r1, ip
 8001c8a:	408b      	lsls	r3, r1
 8001c8c:	40e2      	lsrs	r2, r4
 8001c8e:	4313      	orrs	r3, r2
 8001c90:	e7f1      	b.n	8001c76 <__aeabi_d2iz+0x42>
 8001c92:	46c0      	nop			@ (mov r8, r8)
 8001c94:	000003fe 	.word	0x000003fe
 8001c98:	0000041d 	.word	0x0000041d
 8001c9c:	7fffffff 	.word	0x7fffffff
 8001ca0:	00000433 	.word	0x00000433
 8001ca4:	00000413 	.word	0x00000413
 8001ca8:	fffffbed 	.word	0xfffffbed

08001cac <__aeabi_i2d>:
 8001cac:	b570      	push	{r4, r5, r6, lr}
 8001cae:	2800      	cmp	r0, #0
 8001cb0:	d016      	beq.n	8001ce0 <__aeabi_i2d+0x34>
 8001cb2:	17c3      	asrs	r3, r0, #31
 8001cb4:	18c5      	adds	r5, r0, r3
 8001cb6:	405d      	eors	r5, r3
 8001cb8:	0fc4      	lsrs	r4, r0, #31
 8001cba:	0028      	movs	r0, r5
 8001cbc:	f000 f862 	bl	8001d84 <__clzsi2>
 8001cc0:	4b10      	ldr	r3, [pc, #64]	@ (8001d04 <__aeabi_i2d+0x58>)
 8001cc2:	1a1b      	subs	r3, r3, r0
 8001cc4:	055b      	lsls	r3, r3, #21
 8001cc6:	0d5b      	lsrs	r3, r3, #21
 8001cc8:	280a      	cmp	r0, #10
 8001cca:	dc14      	bgt.n	8001cf6 <__aeabi_i2d+0x4a>
 8001ccc:	0002      	movs	r2, r0
 8001cce:	002e      	movs	r6, r5
 8001cd0:	3215      	adds	r2, #21
 8001cd2:	4096      	lsls	r6, r2
 8001cd4:	220b      	movs	r2, #11
 8001cd6:	1a12      	subs	r2, r2, r0
 8001cd8:	40d5      	lsrs	r5, r2
 8001cda:	032d      	lsls	r5, r5, #12
 8001cdc:	0b2d      	lsrs	r5, r5, #12
 8001cde:	e003      	b.n	8001ce8 <__aeabi_i2d+0x3c>
 8001ce0:	2400      	movs	r4, #0
 8001ce2:	2300      	movs	r3, #0
 8001ce4:	2500      	movs	r5, #0
 8001ce6:	2600      	movs	r6, #0
 8001ce8:	051b      	lsls	r3, r3, #20
 8001cea:	432b      	orrs	r3, r5
 8001cec:	07e4      	lsls	r4, r4, #31
 8001cee:	4323      	orrs	r3, r4
 8001cf0:	0030      	movs	r0, r6
 8001cf2:	0019      	movs	r1, r3
 8001cf4:	bd70      	pop	{r4, r5, r6, pc}
 8001cf6:	380b      	subs	r0, #11
 8001cf8:	4085      	lsls	r5, r0
 8001cfa:	032d      	lsls	r5, r5, #12
 8001cfc:	2600      	movs	r6, #0
 8001cfe:	0b2d      	lsrs	r5, r5, #12
 8001d00:	e7f2      	b.n	8001ce8 <__aeabi_i2d+0x3c>
 8001d02:	46c0      	nop			@ (mov r8, r8)
 8001d04:	0000041e 	.word	0x0000041e

08001d08 <__aeabi_cdrcmple>:
 8001d08:	4684      	mov	ip, r0
 8001d0a:	0010      	movs	r0, r2
 8001d0c:	4662      	mov	r2, ip
 8001d0e:	468c      	mov	ip, r1
 8001d10:	0019      	movs	r1, r3
 8001d12:	4663      	mov	r3, ip
 8001d14:	e000      	b.n	8001d18 <__aeabi_cdcmpeq>
 8001d16:	46c0      	nop			@ (mov r8, r8)

08001d18 <__aeabi_cdcmpeq>:
 8001d18:	b51f      	push	{r0, r1, r2, r3, r4, lr}
 8001d1a:	f000 f909 	bl	8001f30 <__ledf2>
 8001d1e:	2800      	cmp	r0, #0
 8001d20:	d401      	bmi.n	8001d26 <__aeabi_cdcmpeq+0xe>
 8001d22:	2100      	movs	r1, #0
 8001d24:	42c8      	cmn	r0, r1
 8001d26:	bd1f      	pop	{r0, r1, r2, r3, r4, pc}

08001d28 <__aeabi_dcmpeq>:
 8001d28:	b510      	push	{r4, lr}
 8001d2a:	f000 f849 	bl	8001dc0 <__eqdf2>
 8001d2e:	4240      	negs	r0, r0
 8001d30:	3001      	adds	r0, #1
 8001d32:	bd10      	pop	{r4, pc}

08001d34 <__aeabi_dcmplt>:
 8001d34:	b510      	push	{r4, lr}
 8001d36:	f000 f8fb 	bl	8001f30 <__ledf2>
 8001d3a:	2800      	cmp	r0, #0
 8001d3c:	db01      	blt.n	8001d42 <__aeabi_dcmplt+0xe>
 8001d3e:	2000      	movs	r0, #0
 8001d40:	bd10      	pop	{r4, pc}
 8001d42:	2001      	movs	r0, #1
 8001d44:	bd10      	pop	{r4, pc}
 8001d46:	46c0      	nop			@ (mov r8, r8)

08001d48 <__aeabi_dcmple>:
 8001d48:	b510      	push	{r4, lr}
 8001d4a:	f000 f8f1 	bl	8001f30 <__ledf2>
 8001d4e:	2800      	cmp	r0, #0
 8001d50:	dd01      	ble.n	8001d56 <__aeabi_dcmple+0xe>
 8001d52:	2000      	movs	r0, #0
 8001d54:	bd10      	pop	{r4, pc}
 8001d56:	2001      	movs	r0, #1
 8001d58:	bd10      	pop	{r4, pc}
 8001d5a:	46c0      	nop			@ (mov r8, r8)

08001d5c <__aeabi_dcmpgt>:
 8001d5c:	b510      	push	{r4, lr}
 8001d5e:	f000 f873 	bl	8001e48 <__gedf2>
 8001d62:	2800      	cmp	r0, #0
 8001d64:	dc01      	bgt.n	8001d6a <__aeabi_dcmpgt+0xe>
 8001d66:	2000      	movs	r0, #0
 8001d68:	bd10      	pop	{r4, pc}
 8001d6a:	2001      	movs	r0, #1
 8001d6c:	bd10      	pop	{r4, pc}
 8001d6e:	46c0      	nop			@ (mov r8, r8)

08001d70 <__aeabi_dcmpge>:
 8001d70:	b510      	push	{r4, lr}
 8001d72:	f000 f869 	bl	8001e48 <__gedf2>
 8001d76:	2800      	cmp	r0, #0
 8001d78:	da01      	bge.n	8001d7e <__aeabi_dcmpge+0xe>
 8001d7a:	2000      	movs	r0, #0
 8001d7c:	bd10      	pop	{r4, pc}
 8001d7e:	2001      	movs	r0, #1
 8001d80:	bd10      	pop	{r4, pc}
 8001d82:	46c0      	nop			@ (mov r8, r8)

08001d84 <__clzsi2>:
 8001d84:	211c      	movs	r1, #28
 8001d86:	2301      	movs	r3, #1
 8001d88:	041b      	lsls	r3, r3, #16
 8001d8a:	4298      	cmp	r0, r3
 8001d8c:	d301      	bcc.n	8001d92 <__clzsi2+0xe>
 8001d8e:	0c00      	lsrs	r0, r0, #16
 8001d90:	3910      	subs	r1, #16
 8001d92:	0a1b      	lsrs	r3, r3, #8
 8001d94:	4298      	cmp	r0, r3
 8001d96:	d301      	bcc.n	8001d9c <__clzsi2+0x18>
 8001d98:	0a00      	lsrs	r0, r0, #8
 8001d9a:	3908      	subs	r1, #8
 8001d9c:	091b      	lsrs	r3, r3, #4
 8001d9e:	4298      	cmp	r0, r3
 8001da0:	d301      	bcc.n	8001da6 <__clzsi2+0x22>
 8001da2:	0900      	lsrs	r0, r0, #4
 8001da4:	3904      	subs	r1, #4
 8001da6:	a202      	add	r2, pc, #8	@ (adr r2, 8001db0 <__clzsi2+0x2c>)
 8001da8:	5c10      	ldrb	r0, [r2, r0]
 8001daa:	1840      	adds	r0, r0, r1
 8001dac:	4770      	bx	lr
 8001dae:	46c0      	nop			@ (mov r8, r8)
 8001db0:	02020304 	.word	0x02020304
 8001db4:	01010101 	.word	0x01010101
	...

08001dc0 <__eqdf2>:
 8001dc0:	b5f0      	push	{r4, r5, r6, r7, lr}
 8001dc2:	4657      	mov	r7, sl
 8001dc4:	46de      	mov	lr, fp
 8001dc6:	464e      	mov	r6, r9
 8001dc8:	4645      	mov	r5, r8
 8001dca:	b5e0      	push	{r5, r6, r7, lr}
 8001dcc:	000d      	movs	r5, r1
 8001dce:	0004      	movs	r4, r0
 8001dd0:	0fe8      	lsrs	r0, r5, #31
 8001dd2:	4683      	mov	fp, r0
 8001dd4:	0309      	lsls	r1, r1, #12
 8001dd6:	0fd8      	lsrs	r0, r3, #31
 8001dd8:	0b09      	lsrs	r1, r1, #12
 8001dda:	4682      	mov	sl, r0
 8001ddc:	4819      	ldr	r0, [pc, #100]	@ (8001e44 <__eqdf2+0x84>)
 8001dde:	468c      	mov	ip, r1
 8001de0:	031f      	lsls	r7, r3, #12
 8001de2:	0069      	lsls	r1, r5, #1
 8001de4:	005e      	lsls	r6, r3, #1
 8001de6:	0d49      	lsrs	r1, r1, #21
 8001de8:	0b3f      	lsrs	r7, r7, #12
 8001dea:	0d76      	lsrs	r6, r6, #21
 8001dec:	4281      	cmp	r1, r0
 8001dee:	d018      	beq.n	8001e22 <__eqdf2+0x62>
 8001df0:	4286      	cmp	r6, r0
 8001df2:	d00f      	beq.n	8001e14 <__eqdf2+0x54>
 8001df4:	2001      	movs	r0, #1
 8001df6:	42b1      	cmp	r1, r6
 8001df8:	d10d      	bne.n	8001e16 <__eqdf2+0x56>
 8001dfa:	45bc      	cmp	ip, r7
 8001dfc:	d10b      	bne.n	8001e16 <__eqdf2+0x56>
 8001dfe:	4294      	cmp	r4, r2
 8001e00:	d109      	bne.n	8001e16 <__eqdf2+0x56>
 8001e02:	45d3      	cmp	fp, sl
 8001e04:	d01c      	beq.n	8001e40 <__eqdf2+0x80>
 8001e06:	2900      	cmp	r1, #0
 8001e08:	d105      	bne.n	8001e16 <__eqdf2+0x56>
 8001e0a:	4660      	mov	r0, ip
 8001e0c:	4320      	orrs	r0, r4
 8001e0e:	1e43      	subs	r3, r0, #1
 8001e10:	4198      	sbcs	r0, r3
 8001e12:	e000      	b.n	8001e16 <__eqdf2+0x56>
 8001e14:	2001      	movs	r0, #1
 8001e16:	bcf0      	pop	{r4, r5, r6, r7}
 8001e18:	46bb      	mov	fp, r7
 8001e1a:	46b2      	mov	sl, r6
 8001e1c:	46a9      	mov	r9, r5
 8001e1e:	46a0      	mov	r8, r4
 8001e20:	bdf0      	pop	{r4, r5, r6, r7, pc}
 8001e22:	2001      	movs	r0, #1
 8001e24:	428e      	cmp	r6, r1
 8001e26:	d1f6      	bne.n	8001e16 <__eqdf2+0x56>
 8001e28:	4661      	mov	r1, ip
 8001e2a:	4339      	orrs	r1, r7
 8001e2c:	000f      	movs	r7, r1
 8001e2e:	4317      	orrs	r7, r2
 8001e30:	4327      	orrs	r7, r4
 8001e32:	d1f0      	bne.n	8001e16 <__eqdf2+0x56>
 8001e34:	465b      	mov	r3, fp
 8001e36:	4652      	mov	r2, sl
 8001e38:	1a98      	subs	r0, r3, r2
 8001e3a:	1e43      	subs	r3, r0, #1
 8001e3c:	4198      	sbcs	r0, r3
 8001e3e:	e7ea      	b.n	8001e16 <__eqdf2+0x56>
 8001e40:	2000      	movs	r0, #0
 8001e42:	e7e8      	b.n	8001e16 <__eqdf2+0x56>
 8001e44:	000007ff 	.word	0x000007ff

08001e48 <__gedf2>:
 8001e48:	b5f0      	push	{r4, r5, r6, r7, lr}
 8001e4a:	4657      	mov	r7, sl
 8001e4c:	464e      	mov	r6, r9
 8001e4e:	4645      	mov	r5, r8
 8001e50:	46de      	mov	lr, fp
 8001e52:	b5e0      	push	{r5, r6, r7, lr}
 8001e54:	000d      	movs	r5, r1
 8001e56:	030f      	lsls	r7, r1, #12
 8001e58:	0b39      	lsrs	r1, r7, #12
 8001e5a:	b083      	sub	sp, #12
 8001e5c:	0004      	movs	r4, r0
 8001e5e:	4680      	mov	r8, r0
 8001e60:	9101      	str	r1, [sp, #4]
 8001e62:	0058      	lsls	r0, r3, #1
 8001e64:	0fe9      	lsrs	r1, r5, #31
 8001e66:	4f31      	ldr	r7, [pc, #196]	@ (8001f2c <__gedf2+0xe4>)
 8001e68:	0d40      	lsrs	r0, r0, #21
 8001e6a:	468c      	mov	ip, r1
 8001e6c:	006e      	lsls	r6, r5, #1
 8001e6e:	0319      	lsls	r1, r3, #12
 8001e70:	4682      	mov	sl, r0
 8001e72:	4691      	mov	r9, r2
 8001e74:	0d76      	lsrs	r6, r6, #21
 8001e76:	0b09      	lsrs	r1, r1, #12
 8001e78:	0fd8      	lsrs	r0, r3, #31
 8001e7a:	42be      	cmp	r6, r7
 8001e7c:	d01f      	beq.n	8001ebe <__gedf2+0x76>
 8001e7e:	45ba      	cmp	sl, r7
 8001e80:	d00f      	beq.n	8001ea2 <__gedf2+0x5a>
 8001e82:	2e00      	cmp	r6, #0
 8001e84:	d12f      	bne.n	8001ee6 <__gedf2+0x9e>
 8001e86:	4655      	mov	r5, sl
 8001e88:	9e01      	ldr	r6, [sp, #4]
 8001e8a:	4334      	orrs	r4, r6
 8001e8c:	2d00      	cmp	r5, #0
 8001e8e:	d127      	bne.n	8001ee0 <__gedf2+0x98>
 8001e90:	430a      	orrs	r2, r1
 8001e92:	d03a      	beq.n	8001f0a <__gedf2+0xc2>
 8001e94:	2c00      	cmp	r4, #0
 8001e96:	d145      	bne.n	8001f24 <__gedf2+0xdc>
 8001e98:	2800      	cmp	r0, #0
 8001e9a:	d11a      	bne.n	8001ed2 <__gedf2+0x8a>
 8001e9c:	2001      	movs	r0, #1
 8001e9e:	4240      	negs	r0, r0
 8001ea0:	e017      	b.n	8001ed2 <__gedf2+0x8a>
 8001ea2:	4311      	orrs	r1, r2
 8001ea4:	d13b      	bne.n	8001f1e <__gedf2+0xd6>
 8001ea6:	2e00      	cmp	r6, #0
 8001ea8:	d102      	bne.n	8001eb0 <__gedf2+0x68>
 8001eaa:	9f01      	ldr	r7, [sp, #4]
 8001eac:	4327      	orrs	r7, r4
 8001eae:	d0f3      	beq.n	8001e98 <__gedf2+0x50>
 8001eb0:	4584      	cmp	ip, r0
 8001eb2:	d109      	bne.n	8001ec8 <__gedf2+0x80>
 8001eb4:	4663      	mov	r3, ip
 8001eb6:	2b00      	cmp	r3, #0
 8001eb8:	d0f0      	beq.n	8001e9c <__gedf2+0x54>
 8001eba:	4660      	mov	r0, ip
 8001ebc:	e009      	b.n	8001ed2 <__gedf2+0x8a>
 8001ebe:	9f01      	ldr	r7, [sp, #4]
 8001ec0:	4327      	orrs	r7, r4
 8001ec2:	d12c      	bne.n	8001f1e <__gedf2+0xd6>
 8001ec4:	45b2      	cmp	sl, r6
 8001ec6:	d024      	beq.n	8001f12 <__gedf2+0xca>
 8001ec8:	4663      	mov	r3, ip
 8001eca:	2002      	movs	r0, #2
 8001ecc:	3b01      	subs	r3, #1
 8001ece:	4018      	ands	r0, r3
 8001ed0:	3801      	subs	r0, #1
 8001ed2:	b003      	add	sp, #12
 8001ed4:	bcf0      	pop	{r4, r5, r6, r7}
 8001ed6:	46bb      	mov	fp, r7
 8001ed8:	46b2      	mov	sl, r6
 8001eda:	46a9      	mov	r9, r5
 8001edc:	46a0      	mov	r8, r4
 8001ede:	bdf0      	pop	{r4, r5, r6, r7, pc}
 8001ee0:	2c00      	cmp	r4, #0
 8001ee2:	d0d9      	beq.n	8001e98 <__gedf2+0x50>
 8001ee4:	e7e4      	b.n	8001eb0 <__gedf2+0x68>
 8001ee6:	4654      	mov	r4, sl
 8001ee8:	2c00      	cmp	r4, #0
 8001eea:	d0ed      	beq.n	8001ec8 <__gedf2+0x80>
 8001eec:	4584      	cmp	ip, r0
 8001eee:	d1eb      	bne.n	8001ec8 <__gedf2+0x80>
 8001ef0:	4556      	cmp	r6, sl
 8001ef2:	dce9      	bgt.n	8001ec8 <__gedf2+0x80>
 8001ef4:	dbde      	blt.n	8001eb4 <__gedf2+0x6c>
 8001ef6:	9b01      	ldr	r3, [sp, #4]
 8001ef8:	428b      	cmp	r3, r1
 8001efa:	d8e5      	bhi.n	8001ec8 <__gedf2+0x80>
 8001efc:	d1da      	bne.n	8001eb4 <__gedf2+0x6c>
 8001efe:	45c8      	cmp	r8, r9
 8001f00:	d8e2      	bhi.n	8001ec8 <__gedf2+0x80>
 8001f02:	2000      	movs	r0, #0
 8001f04:	45c8      	cmp	r8, r9
 8001f06:	d2e4      	bcs.n	8001ed2 <__gedf2+0x8a>
 8001f08:	e7d4      	b.n	8001eb4 <__gedf2+0x6c>
 8001f0a:	2000      	movs	r0, #0
 8001f0c:	2c00      	cmp	r4, #0
 8001f0e:	d0e0      	beq.n	8001ed2 <__gedf2+0x8a>
 8001f10:	e7da      	b.n	8001ec8 <__gedf2+0x80>
 8001f12:	4311      	orrs	r1, r2
 8001f14:	d103      	bne.n	8001f1e <__gedf2+0xd6>
 8001f16:	4584      	cmp	ip, r0
 8001f18:	d1d6      	bne.n	8001ec8 <__gedf2+0x80>
 8001f1a:	2000      	movs	r0, #0
 8001f1c:	e7d9      	b.n	8001ed2 <__gedf2+0x8a>
 8001f1e:	2002      	movs	r0, #2
 8001f20:	4240      	negs	r0, r0
 8001f22:	e7d6      	b.n	8001ed2 <__gedf2+0x8a>
 8001f24:	4584      	cmp	ip, r0
 8001f26:	d0e6      	beq.n	8001ef6 <__gedf2+0xae>
 8001f28:	e7ce      	b.n	8001ec8 <__gedf2+0x80>
 8001f2a:	46c0      	nop			@ (mov r8, r8)
 8001f2c:	000007ff 	.word	0x000007ff

08001f30 <__ledf2>:
 8001f30:	b5f0      	push	{r4, r5, r6, r7, lr}
 8001f32:	4657      	mov	r7, sl
 8001f34:	464e      	mov	r6, r9
 8001f36:	4645      	mov	r5, r8
 8001f38:	46de      	mov	lr, fp
 8001f3a:	b5e0      	push	{r5, r6, r7, lr}
 8001f3c:	000d      	movs	r5, r1
 8001f3e:	030f      	lsls	r7, r1, #12
 8001f40:	0004      	movs	r4, r0
 8001f42:	4680      	mov	r8, r0
 8001f44:	0fe8      	lsrs	r0, r5, #31
 8001f46:	0b39      	lsrs	r1, r7, #12
 8001f48:	4684      	mov	ip, r0
 8001f4a:	b083      	sub	sp, #12
 8001f4c:	0058      	lsls	r0, r3, #1
 8001f4e:	4f30      	ldr	r7, [pc, #192]	@ (8002010 <__ledf2+0xe0>)
 8001f50:	0d40      	lsrs	r0, r0, #21
 8001f52:	9101      	str	r1, [sp, #4]
 8001f54:	031e      	lsls	r6, r3, #12
 8001f56:	0069      	lsls	r1, r5, #1
 8001f58:	4682      	mov	sl, r0
 8001f5a:	4691      	mov	r9, r2
 8001f5c:	0d49      	lsrs	r1, r1, #21
 8001f5e:	0b36      	lsrs	r6, r6, #12
 8001f60:	0fd8      	lsrs	r0, r3, #31
 8001f62:	42b9      	cmp	r1, r7
 8001f64:	d020      	beq.n	8001fa8 <__ledf2+0x78>
 8001f66:	45ba      	cmp	sl, r7
 8001f68:	d00f      	beq.n	8001f8a <__ledf2+0x5a>
 8001f6a:	2900      	cmp	r1, #0
 8001f6c:	d12b      	bne.n	8001fc6 <__ledf2+0x96>
 8001f6e:	9901      	ldr	r1, [sp, #4]
 8001f70:	430c      	orrs	r4, r1
 8001f72:	4651      	mov	r1, sl
 8001f74:	2900      	cmp	r1, #0
 8001f76:	d137      	bne.n	8001fe8 <__ledf2+0xb8>
 8001f78:	4332      	orrs	r2, r6
 8001f7a:	d038      	beq.n	8001fee <__ledf2+0xbe>
 8001f7c:	2c00      	cmp	r4, #0
 8001f7e:	d144      	bne.n	800200a <__ledf2+0xda>
 8001f80:	2800      	cmp	r0, #0
 8001f82:	d119      	bne.n	8001fb8 <__ledf2+0x88>
 8001f84:	2001      	movs	r0, #1
 8001f86:	4240      	negs	r0, r0
 8001f88:	e016      	b.n	8001fb8 <__ledf2+0x88>
 8001f8a:	4316      	orrs	r6, r2
 8001f8c:	d113      	bne.n	8001fb6 <__ledf2+0x86>
 8001f8e:	2900      	cmp	r1, #0
 8001f90:	d102      	bne.n	8001f98 <__ledf2+0x68>
 8001f92:	9f01      	ldr	r7, [sp, #4]
 8001f94:	4327      	orrs	r7, r4
 8001f96:	d0f3      	beq.n	8001f80 <__ledf2+0x50>
 8001f98:	4584      	cmp	ip, r0
 8001f9a:	d020      	beq.n	8001fde <__ledf2+0xae>
 8001f9c:	4663      	mov	r3, ip
 8001f9e:	2002      	movs	r0, #2
 8001fa0:	3b01      	subs	r3, #1
 8001fa2:	4018      	ands	r0, r3
 8001fa4:	3801      	subs	r0, #1
 8001fa6:	e007      	b.n	8001fb8 <__ledf2+0x88>
 8001fa8:	9f01      	ldr	r7, [sp, #4]
 8001faa:	4327      	orrs	r7, r4
 8001fac:	d103      	bne.n	8001fb6 <__ledf2+0x86>
 8001fae:	458a      	cmp	sl, r1
 8001fb0:	d1f4      	bne.n	8001f9c <__ledf2+0x6c>
 8001fb2:	4316      	orrs	r6, r2
 8001fb4:	d01f      	beq.n	8001ff6 <__ledf2+0xc6>
 8001fb6:	2002      	movs	r0, #2
 8001fb8:	b003      	add	sp, #12
 8001fba:	bcf0      	pop	{r4, r5, r6, r7}
 8001fbc:	46bb      	mov	fp, r7
 8001fbe:	46b2      	mov	sl, r6
 8001fc0:	46a9      	mov	r9, r5
 8001fc2:	46a0      	mov	r8, r4
 8001fc4:	bdf0      	pop	{r4, r5, r6, r7, pc}
 8001fc6:	4654      	mov	r4, sl
 8001fc8:	2c00      	cmp	r4, #0
 8001fca:	d0e7      	beq.n	8001f9c <__ledf2+0x6c>
 8001fcc:	4584      	cmp	ip, r0
 8001fce:	d1e5      	bne.n	8001f9c <__ledf2+0x6c>
 8001fd0:	4551      	cmp	r1, sl
 8001fd2:	dce3      	bgt.n	8001f9c <__ledf2+0x6c>
 8001fd4:	db03      	blt.n	8001fde <__ledf2+0xae>
 8001fd6:	9b01      	ldr	r3, [sp, #4]
 8001fd8:	42b3      	cmp	r3, r6
 8001fda:	d8df      	bhi.n	8001f9c <__ledf2+0x6c>
 8001fdc:	d00f      	beq.n	8001ffe <__ledf2+0xce>
 8001fde:	4663      	mov	r3, ip
 8001fe0:	2b00      	cmp	r3, #0
 8001fe2:	d0cf      	beq.n	8001f84 <__ledf2+0x54>
 8001fe4:	4660      	mov	r0, ip
 8001fe6:	e7e7      	b.n	8001fb8 <__ledf2+0x88>
 8001fe8:	2c00      	cmp	r4, #0
 8001fea:	d0c9      	beq.n	8001f80 <__ledf2+0x50>
 8001fec:	e7d4      	b.n	8001f98 <__ledf2+0x68>
 8001fee:	2000      	movs	r0, #0
 8001ff0:	2c00      	cmp	r4, #0
 8001ff2:	d0e1      	beq.n	8001fb8 <__ledf2+0x88>
 8001ff4:	e7d2      	b.n	8001f9c <__ledf2+0x6c>
 8001ff6:	4584      	cmp	ip, r0
 8001ff8:	d1d0      	bne.n	8001f9c <__ledf2+0x6c>
 8001ffa:	2000      	movs	r0, #0
 8001ffc:	e7dc      	b.n	8001fb8 <__ledf2+0x88>
 8001ffe:	45c8      	cmp	r8, r9
 8002000:	d8cc      	bhi.n	8001f9c <__ledf2+0x6c>
 8002002:	2000      	movs	r0, #0
 8002004:	45c8      	cmp	r8, r9
 8002006:	d2d7      	bcs.n	8001fb8 <__ledf2+0x88>
 8002008:	e7e9      	b.n	8001fde <__ledf2+0xae>
 800200a:	4584      	cmp	ip, r0
 800200c:	d0e3      	beq.n	8001fd6 <__ledf2+0xa6>
 800200e:	e7c5      	b.n	8001f9c <__ledf2+0x6c>
 8002010:	000007ff 	.word	0x000007ff

08002014 <lcdPrint.0>:
  */
int main(void)
{

  /* USER CODE BEGIN 1 */
void lcdPrint(uint8_t x, uint8_t y, char message[], uint8_t fontsize){
 8002014:	b5f0      	push	{r4, r5, r6, r7, lr}
 8002016:	b085      	sub	sp, #20
 8002018:	af00      	add	r7, sp, #0
 800201a:	0004      	movs	r4, r0
 800201c:	0008      	movs	r0, r1
 800201e:	60ba      	str	r2, [r7, #8]
 8002020:	0019      	movs	r1, r3
 8002022:	250f      	movs	r5, #15
 8002024:	197b      	adds	r3, r7, r5
 8002026:	1c22      	adds	r2, r4, #0
 8002028:	701a      	strb	r2, [r3, #0]
 800202a:	240e      	movs	r4, #14
 800202c:	193b      	adds	r3, r7, r4
 800202e:	1c02      	adds	r2, r0, #0
 8002030:	701a      	strb	r2, [r3, #0]
 8002032:	260d      	movs	r6, #13
 8002034:	19bb      	adds	r3, r7, r6
 8002036:	1c0a      	adds	r2, r1, #0
 8002038:	701a      	strb	r2, [r3, #0]
 800203a:	4663      	mov	r3, ip
 800203c:	607b      	str	r3, [r7, #4]
	SSD1306_GotoXY(x, y);
 800203e:	197b      	adds	r3, r7, r5
 8002040:	781b      	ldrb	r3, [r3, #0]
 8002042:	b29a      	uxth	r2, r3
 8002044:	193b      	adds	r3, r7, r4
 8002046:	781b      	ldrb	r3, [r3, #0]
 8002048:	b29b      	uxth	r3, r3
 800204a:	0019      	movs	r1, r3
 800204c:	0010      	movs	r0, r2
 800204e:	f002 fac1 	bl	80045d4 <SSD1306_GotoXY>
	if 		(fontsize == 1) {SSD1306_Puts(message , &Font_7x10, 1);}
 8002052:	19bb      	adds	r3, r7, r6
 8002054:	781b      	ldrb	r3, [r3, #0]
 8002056:	2b01      	cmp	r3, #1
 8002058:	d106      	bne.n	8002068 <lcdPrint.0+0x54>
 800205a:	4911      	ldr	r1, [pc, #68]	@ (80020a0 <lcdPrint.0+0x8c>)
 800205c:	68bb      	ldr	r3, [r7, #8]
 800205e:	2201      	movs	r2, #1
 8002060:	0018      	movs	r0, r3
 8002062:	f002 fb51 	bl	8004708 <SSD1306_Puts>
	else if (fontsize == 2) {SSD1306_Puts(message , &Font_11x18, 1);}
	else if (fontsize == 3) {SSD1306_Puts(message , &Font_16x26, 1);}

}
 8002066:	e016      	b.n	8002096 <lcdPrint.0+0x82>
	else if (fontsize == 2) {SSD1306_Puts(message , &Font_11x18, 1);}
 8002068:	230d      	movs	r3, #13
 800206a:	18fb      	adds	r3, r7, r3
 800206c:	781b      	ldrb	r3, [r3, #0]
 800206e:	2b02      	cmp	r3, #2
 8002070:	d106      	bne.n	8002080 <lcdPrint.0+0x6c>
 8002072:	490c      	ldr	r1, [pc, #48]	@ (80020a4 <lcdPrint.0+0x90>)
 8002074:	68bb      	ldr	r3, [r7, #8]
 8002076:	2201      	movs	r2, #1
 8002078:	0018      	movs	r0, r3
 800207a:	f002 fb45 	bl	8004708 <SSD1306_Puts>
}
 800207e:	e00a      	b.n	8002096 <lcdPrint.0+0x82>
	else if (fontsize == 3) {SSD1306_Puts(message , &Font_16x26, 1);}
 8002080:	230d      	movs	r3, #13
 8002082:	18fb      	adds	r3, r7, r3
 8002084:	781b      	ldrb	r3, [r3, #0]
 8002086:	2b03      	cmp	r3, #3
 8002088:	d105      	bne.n	8002096 <lcdPrint.0+0x82>
 800208a:	4907      	ldr	r1, [pc, #28]	@ (80020a8 <lcdPrint.0+0x94>)
 800208c:	68bb      	ldr	r3, [r7, #8]
 800208e:	2201      	movs	r2, #1
 8002090:	0018      	movs	r0, r3
 8002092:	f002 fb39 	bl	8004708 <SSD1306_Puts>
}
 8002096:	46c0      	nop			@ (mov r8, r8)
 8002098:	46bd      	mov	sp, r7
 800209a:	b005      	add	sp, #20
 800209c:	bdf0      	pop	{r4, r5, r6, r7, pc}
 800209e:	46c0      	nop			@ (mov r8, r8)
 80020a0:	20000000 	.word	0x20000000
 80020a4:	20000008 	.word	0x20000008
 80020a8:	20000010 	.word	0x20000010

080020ac <main>:
{
 80020ac:	b580      	push	{r7, lr}
 80020ae:	b084      	sub	sp, #16
 80020b0:	af00      	add	r7, sp, #0
int main(void)
 80020b2:	2318      	movs	r3, #24
 80020b4:	18fb      	adds	r3, r7, r3
 80020b6:	607b      	str	r3, [r7, #4]
  /* USER CODE END 1 */

  /* MCU Configuration--------------------------------------------------------*/

  /* Reset of all peripherals, Initializes the Flash interface and the Systick. */
  HAL_Init();
 80020b8:	f002 fecc 	bl	8004e54 <HAL_Init>
  /* USER CODE BEGIN Init */

  /* USER CODE END Init */

  /* Configure the system clock */
  SystemClock_Config();
 80020bc:	f001 ff9a 	bl	8003ff4 <SystemClock_Config>
  /* USER CODE BEGIN SysInit */

  /* USER CODE END SysInit */

  /* Initialize all configured peripherals */
  MX_GPIO_Init();
 80020c0:	f002 f86e 	bl	80041a0 <MX_GPIO_Init>
  MX_I2C1_Init();
 80020c4:	f001 fffc 	bl	80040c0 <MX_I2C1_Init>
  MX_USART2_UART_Init();
 80020c8:	f002 f83a 	bl	8004140 <MX_USART2_UART_Init>
  /* USER CODE BEGIN 2 */
  HAL_GPIO_WritePin(GPIOB, GPIO_PIN_8, GPIO_PIN_SET);
 80020cc:	2380      	movs	r3, #128	@ 0x80
 80020ce:	005b      	lsls	r3, r3, #1
 80020d0:	48cb      	ldr	r0, [pc, #812]	@ (8002400 <main+0x354>)
 80020d2:	2201      	movs	r2, #1
 80020d4:	0019      	movs	r1, r3
 80020d6:	f003 f986 	bl	80053e6 <HAL_GPIO_WritePin>
  SSD1306_Init();
 80020da:	f002 f8fb 	bl	80042d4 <SSD1306_Init>

  lcdPrint(35, 0, "BOBER", 2);
 80020de:	4ac9      	ldr	r2, [pc, #804]	@ (8002404 <main+0x358>)
 80020e0:	1d3b      	adds	r3, r7, #4
 80020e2:	469c      	mov	ip, r3
 80020e4:	2302      	movs	r3, #2
 80020e6:	2100      	movs	r1, #0
 80020e8:	2023      	movs	r0, #35	@ 0x23
 80020ea:	f7ff ff93 	bl	8002014 <lcdPrint.0>
  lcdPrint(35, 18, "kurwa", 2);
 80020ee:	4ac6      	ldr	r2, [pc, #792]	@ (8002408 <main+0x35c>)
 80020f0:	1d3b      	adds	r3, r7, #4
 80020f2:	469c      	mov	ip, r3
 80020f4:	2302      	movs	r3, #2
 80020f6:	2112      	movs	r1, #18
 80020f8:	2023      	movs	r0, #35	@ 0x23
 80020fa:	f7ff ff8b 	bl	8002014 <lcdPrint.0>
  lcdPrint(18, 38, "TESTER v2", 2);
 80020fe:	4ac3      	ldr	r2, [pc, #780]	@ (800240c <main+0x360>)
 8002100:	1d3b      	adds	r3, r7, #4
 8002102:	469c      	mov	ip, r3
 8002104:	2302      	movs	r3, #2
 8002106:	2126      	movs	r1, #38	@ 0x26
 8002108:	2012      	movs	r0, #18
 800210a:	f7ff ff83 	bl	8002014 <lcdPrint.0>
  SSD1306_UpdateScreen();
 800210e:	f002 f9a5 	bl	800445c <SSD1306_UpdateScreen>
  HAL_Delay(500);
 8002112:	23fa      	movs	r3, #250	@ 0xfa
 8002114:	005b      	lsls	r3, r3, #1
 8002116:	0018      	movs	r0, r3
 8002118:	f002 ff00 	bl	8004f1c <HAL_Delay>
//  HAL_Delay(2000);//    
  SSD1306_Clear();
 800211c:	f002 fca9 	bl	8004a72 <SSD1306_Clear>
  /* USER CODE END 2 */

  /* Infinite loop */
  /* USER CODE BEGIN WHILE */
while (1){
	uint32_t ms = HAL_GetTick();
 8002120:	f002 fef2 	bl	8004f08 <HAL_GetTick>
 8002124:	0003      	movs	r3, r0
 8002126:	60fb      	str	r3, [r7, #12]
	_Bool key1_state = HAL_GPIO_ReadPin(GPIOB, GPIO_PIN_12);
 8002128:	2380      	movs	r3, #128	@ 0x80
 800212a:	015b      	lsls	r3, r3, #5
 800212c:	4ab4      	ldr	r2, [pc, #720]	@ (8002400 <main+0x354>)
 800212e:	0019      	movs	r1, r3
 8002130:	0010      	movs	r0, r2
 8002132:	f003 f93b 	bl	80053ac <HAL_GPIO_ReadPin>
 8002136:	0003      	movs	r3, r0
 8002138:	001a      	movs	r2, r3
 800213a:	200b      	movs	r0, #11
 800213c:	183b      	adds	r3, r7, r0
 800213e:	1e51      	subs	r1, r2, #1
 8002140:	418a      	sbcs	r2, r1
 8002142:	701a      	strb	r2, [r3, #0]
	if(key1_state == 0 && !short_state && (ms - time_key1) > 50) {short_state = 1; long_state = 0; time_key1 = ms;}
 8002144:	183b      	adds	r3, r7, r0
 8002146:	781b      	ldrb	r3, [r3, #0]
 8002148:	2201      	movs	r2, #1
 800214a:	4053      	eors	r3, r2
 800214c:	b2db      	uxtb	r3, r3
 800214e:	2b00      	cmp	r3, #0
 8002150:	d016      	beq.n	8002180 <main+0xd4>
 8002152:	4baf      	ldr	r3, [pc, #700]	@ (8002410 <main+0x364>)
 8002154:	781b      	ldrb	r3, [r3, #0]
 8002156:	2201      	movs	r2, #1
 8002158:	4053      	eors	r3, r2
 800215a:	b2db      	uxtb	r3, r3
 800215c:	2b00      	cmp	r3, #0
 800215e:	d00f      	beq.n	8002180 <main+0xd4>
 8002160:	4bac      	ldr	r3, [pc, #688]	@ (8002414 <main+0x368>)
 8002162:	681b      	ldr	r3, [r3, #0]
 8002164:	68fa      	ldr	r2, [r7, #12]
 8002166:	1ad3      	subs	r3, r2, r3
 8002168:	2b32      	cmp	r3, #50	@ 0x32
 800216a:	d909      	bls.n	8002180 <main+0xd4>
 800216c:	4ba8      	ldr	r3, [pc, #672]	@ (8002410 <main+0x364>)
 800216e:	2201      	movs	r2, #1
 8002170:	701a      	strb	r2, [r3, #0]
 8002172:	4ba9      	ldr	r3, [pc, #676]	@ (8002418 <main+0x36c>)
 8002174:	2200      	movs	r2, #0
 8002176:	701a      	strb	r2, [r3, #0]
 8002178:	4ba6      	ldr	r3, [pc, #664]	@ (8002414 <main+0x368>)
 800217a:	68fa      	ldr	r2, [r7, #12]
 800217c:	601a      	str	r2, [r3, #0]
 800217e:	e234      	b.n	80025ea <main+0x53e>
	else if(key1_state == 0 && !long_state && (ms - time_key1) > 500){//    
 8002180:	230b      	movs	r3, #11
 8002182:	18fb      	adds	r3, r7, r3
 8002184:	781b      	ldrb	r3, [r3, #0]
 8002186:	2201      	movs	r2, #1
 8002188:	4053      	eors	r3, r2
 800218a:	b2db      	uxtb	r3, r3
 800218c:	2b00      	cmp	r3, #0
 800218e:	d100      	bne.n	8002192 <main+0xe6>
 8002190:	e1b4      	b.n	80024fc <main+0x450>
 8002192:	4ba1      	ldr	r3, [pc, #644]	@ (8002418 <main+0x36c>)
 8002194:	781b      	ldrb	r3, [r3, #0]
 8002196:	2201      	movs	r2, #1
 8002198:	4053      	eors	r3, r2
 800219a:	b2db      	uxtb	r3, r3
 800219c:	2b00      	cmp	r3, #0
 800219e:	d100      	bne.n	80021a2 <main+0xf6>
 80021a0:	e1ac      	b.n	80024fc <main+0x450>
 80021a2:	4b9c      	ldr	r3, [pc, #624]	@ (8002414 <main+0x368>)
 80021a4:	681b      	ldr	r3, [r3, #0]
 80021a6:	68fa      	ldr	r2, [r7, #12]
 80021a8:	1ad2      	subs	r2, r2, r3
 80021aa:	23fa      	movs	r3, #250	@ 0xfa
 80021ac:	005b      	lsls	r3, r3, #1
 80021ae:	429a      	cmp	r2, r3
 80021b0:	d800      	bhi.n	80021b4 <main+0x108>
 80021b2:	e1a3      	b.n	80024fc <main+0x450>
	  long_state = 1;
 80021b4:	4b98      	ldr	r3, [pc, #608]	@ (8002418 <main+0x36c>)
 80021b6:	2201      	movs	r2, #1
 80021b8:	701a      	strb	r2, [r3, #0]

	  if 		(page == 0 && selected == 7)	 {calibRestriction = 6;}//   
 80021ba:	4b98      	ldr	r3, [pc, #608]	@ (800241c <main+0x370>)
 80021bc:	781b      	ldrb	r3, [r3, #0]
 80021be:	2b00      	cmp	r3, #0
 80021c0:	d106      	bne.n	80021d0 <main+0x124>
 80021c2:	4b97      	ldr	r3, [pc, #604]	@ (8002420 <main+0x374>)
 80021c4:	781b      	ldrb	r3, [r3, #0]
 80021c6:	2b07      	cmp	r3, #7
 80021c8:	d102      	bne.n	80021d0 <main+0x124>
 80021ca:	4b96      	ldr	r3, [pc, #600]	@ (8002424 <main+0x378>)
 80021cc:	2206      	movs	r2, #6
 80021ce:	701a      	strb	r2, [r3, #0]
	  if 		(page == 0)						{page = 1; selected = 1; SSD1306_Clear();}//to menu
 80021d0:	4b92      	ldr	r3, [pc, #584]	@ (800241c <main+0x370>)
 80021d2:	781b      	ldrb	r3, [r3, #0]
 80021d4:	2b00      	cmp	r3, #0
 80021d6:	d108      	bne.n	80021ea <main+0x13e>
 80021d8:	4b90      	ldr	r3, [pc, #576]	@ (800241c <main+0x370>)
 80021da:	2201      	movs	r2, #1
 80021dc:	701a      	strb	r2, [r3, #0]
 80021de:	4b90      	ldr	r3, [pc, #576]	@ (8002420 <main+0x374>)
 80021e0:	2201      	movs	r2, #1
 80021e2:	701a      	strb	r2, [r3, #0]
 80021e4:	f002 fc45 	bl	8004a72 <SSD1306_Clear>
 80021e8:	e1fe      	b.n	80025e8 <main+0x53c>

	  else if 	(page == 1 && selected == 0)	{page = 0; selected = 0; SSD1306_Clear();}//exit
 80021ea:	4b8c      	ldr	r3, [pc, #560]	@ (800241c <main+0x370>)
 80021ec:	781b      	ldrb	r3, [r3, #0]
 80021ee:	2b01      	cmp	r3, #1
 80021f0:	d10c      	bne.n	800220c <main+0x160>
 80021f2:	4b8b      	ldr	r3, [pc, #556]	@ (8002420 <main+0x374>)
 80021f4:	781b      	ldrb	r3, [r3, #0]
 80021f6:	2b00      	cmp	r3, #0
 80021f8:	d108      	bne.n	800220c <main+0x160>
 80021fa:	4b88      	ldr	r3, [pc, #544]	@ (800241c <main+0x370>)
 80021fc:	2200      	movs	r2, #0
 80021fe:	701a      	strb	r2, [r3, #0]
 8002200:	4b87      	ldr	r3, [pc, #540]	@ (8002420 <main+0x374>)
 8002202:	2200      	movs	r2, #0
 8002204:	701a      	strb	r2, [r3, #0]
 8002206:	f002 fc34 	bl	8004a72 <SSD1306_Clear>
 800220a:	e176      	b.n	80024fa <main+0x44e>
	  else if 	(page == 1 && selected == 1)	{page = 2; selected = 2; SSD1306_Clear();}//to calibration
 800220c:	4b83      	ldr	r3, [pc, #524]	@ (800241c <main+0x370>)
 800220e:	781b      	ldrb	r3, [r3, #0]
 8002210:	2b01      	cmp	r3, #1
 8002212:	d10c      	bne.n	800222e <main+0x182>
 8002214:	4b82      	ldr	r3, [pc, #520]	@ (8002420 <main+0x374>)
 8002216:	781b      	ldrb	r3, [r3, #0]
 8002218:	2b01      	cmp	r3, #1
 800221a:	d108      	bne.n	800222e <main+0x182>
 800221c:	4b7f      	ldr	r3, [pc, #508]	@ (800241c <main+0x370>)
 800221e:	2202      	movs	r2, #2
 8002220:	701a      	strb	r2, [r3, #0]
 8002222:	4b7f      	ldr	r3, [pc, #508]	@ (8002420 <main+0x374>)
 8002224:	2202      	movs	r2, #2
 8002226:	701a      	strb	r2, [r3, #0]
 8002228:	f002 fc23 	bl	8004a72 <SSD1306_Clear>
 800222c:	e165      	b.n	80024fa <main+0x44e>
	  else if 	(page == 1 && selected == 2)	{page = 3; selected = 1; SSD1306_Clear();}//settings
 800222e:	4b7b      	ldr	r3, [pc, #492]	@ (800241c <main+0x370>)
 8002230:	781b      	ldrb	r3, [r3, #0]
 8002232:	2b01      	cmp	r3, #1
 8002234:	d10c      	bne.n	8002250 <main+0x1a4>
 8002236:	4b7a      	ldr	r3, [pc, #488]	@ (8002420 <main+0x374>)
 8002238:	781b      	ldrb	r3, [r3, #0]
 800223a:	2b02      	cmp	r3, #2
 800223c:	d108      	bne.n	8002250 <main+0x1a4>
 800223e:	4b77      	ldr	r3, [pc, #476]	@ (800241c <main+0x370>)
 8002240:	2203      	movs	r2, #3
 8002242:	701a      	strb	r2, [r3, #0]
 8002244:	4b76      	ldr	r3, [pc, #472]	@ (8002420 <main+0x374>)
 8002246:	2201      	movs	r2, #1
 8002248:	701a      	strb	r2, [r3, #0]
 800224a:	f002 fc12 	bl	8004a72 <SSD1306_Clear>
 800224e:	e154      	b.n	80024fa <main+0x44e>
	  else if 	(page == 1 && selected == 3)	{page = 4; selected = 0; SSD1306_Clear();}//params
 8002250:	4b72      	ldr	r3, [pc, #456]	@ (800241c <main+0x370>)
 8002252:	781b      	ldrb	r3, [r3, #0]
 8002254:	2b01      	cmp	r3, #1
 8002256:	d10c      	bne.n	8002272 <main+0x1c6>
 8002258:	4b71      	ldr	r3, [pc, #452]	@ (8002420 <main+0x374>)
 800225a:	781b      	ldrb	r3, [r3, #0]
 800225c:	2b03      	cmp	r3, #3
 800225e:	d108      	bne.n	8002272 <main+0x1c6>
 8002260:	4b6e      	ldr	r3, [pc, #440]	@ (800241c <main+0x370>)
 8002262:	2204      	movs	r2, #4
 8002264:	701a      	strb	r2, [r3, #0]
 8002266:	4b6e      	ldr	r3, [pc, #440]	@ (8002420 <main+0x374>)
 8002268:	2200      	movs	r2, #0
 800226a:	701a      	strb	r2, [r3, #0]
 800226c:	f002 fc01 	bl	8004a72 <SSD1306_Clear>
 8002270:	e143      	b.n	80024fa <main+0x44e>
//	  else if 	(page == 1 && selected == 4)	{page = 5; selected = 0; SSD1306_Clear();}//rezerv1
//	  else if 	(page == 1 && selected == 5)	{page = 6; selected = 0; SSD1306_Clear();}//rezerv2

	  else if 	(page == 2 && selected == 0)	{page = 1; selected = 1; calibRestriction = 3; SSD1306_Clear();}//exit to menu
 8002272:	4b6a      	ldr	r3, [pc, #424]	@ (800241c <main+0x370>)
 8002274:	781b      	ldrb	r3, [r3, #0]
 8002276:	2b02      	cmp	r3, #2
 8002278:	d10f      	bne.n	800229a <main+0x1ee>
 800227a:	4b69      	ldr	r3, [pc, #420]	@ (8002420 <main+0x374>)
 800227c:	781b      	ldrb	r3, [r3, #0]
 800227e:	2b00      	cmp	r3, #0
 8002280:	d10b      	bne.n	800229a <main+0x1ee>
 8002282:	4b66      	ldr	r3, [pc, #408]	@ (800241c <main+0x370>)
 8002284:	2201      	movs	r2, #1
 8002286:	701a      	strb	r2, [r3, #0]
 8002288:	4b65      	ldr	r3, [pc, #404]	@ (8002420 <main+0x374>)
 800228a:	2201      	movs	r2, #1
 800228c:	701a      	strb	r2, [r3, #0]
 800228e:	4b65      	ldr	r3, [pc, #404]	@ (8002424 <main+0x378>)
 8002290:	2203      	movs	r2, #3
 8002292:	701a      	strb	r2, [r3, #0]
 8002294:	f002 fbed 	bl	8004a72 <SSD1306_Clear>
 8002298:	e12f      	b.n	80024fa <main+0x44e>
	  else if 	(page == 2 && selected == 1)	{}													//help
 800229a:	4b60      	ldr	r3, [pc, #384]	@ (800241c <main+0x370>)
 800229c:	781b      	ldrb	r3, [r3, #0]
 800229e:	2b02      	cmp	r3, #2
 80022a0:	d104      	bne.n	80022ac <main+0x200>
 80022a2:	4b5f      	ldr	r3, [pc, #380]	@ (8002420 <main+0x374>)
 80022a4:	781b      	ldrb	r3, [r3, #0]
 80022a6:	2b01      	cmp	r3, #1
 80022a8:	d100      	bne.n	80022ac <main+0x200>
 80022aa:	e126      	b.n	80024fa <main+0x44e>
	  else if 	(page == 2 && selected == 2)	{lcdPrintUpdate(0, 0, "|", 1); zero();}				//zero
 80022ac:	4b5b      	ldr	r3, [pc, #364]	@ (800241c <main+0x370>)
 80022ae:	781b      	ldrb	r3, [r3, #0]
 80022b0:	2b02      	cmp	r3, #2
 80022b2:	d110      	bne.n	80022d6 <main+0x22a>
 80022b4:	4b5a      	ldr	r3, [pc, #360]	@ (8002420 <main+0x374>)
 80022b6:	781b      	ldrb	r3, [r3, #0]
 80022b8:	2b02      	cmp	r3, #2
 80022ba:	d10c      	bne.n	80022d6 <main+0x22a>
 80022bc:	4a5a      	ldr	r2, [pc, #360]	@ (8002428 <main+0x37c>)
 80022be:	1d3b      	adds	r3, r7, #4
 80022c0:	469c      	mov	ip, r3
 80022c2:	2301      	movs	r3, #1
 80022c4:	2100      	movs	r1, #0
 80022c6:	2000      	movs	r0, #0
 80022c8:	f000 f9d0 	bl	800266c <lcdPrintUpdate.10>
 80022cc:	1d3b      	adds	r3, r7, #4
 80022ce:	469c      	mov	ip, r3
 80022d0:	f000 fe94 	bl	8002ffc <zero.1>
 80022d4:	e111      	b.n	80024fa <main+0x44e>
	  else if 	(page == 2 && selected == 3)	{page = 20; selected = 0; SSD1306_Clear();}			//set 50 page
 80022d6:	4b51      	ldr	r3, [pc, #324]	@ (800241c <main+0x370>)
 80022d8:	781b      	ldrb	r3, [r3, #0]
 80022da:	2b02      	cmp	r3, #2
 80022dc:	d10c      	bne.n	80022f8 <main+0x24c>
 80022de:	4b50      	ldr	r3, [pc, #320]	@ (8002420 <main+0x374>)
 80022e0:	781b      	ldrb	r3, [r3, #0]
 80022e2:	2b03      	cmp	r3, #3
 80022e4:	d108      	bne.n	80022f8 <main+0x24c>
 80022e6:	4b4d      	ldr	r3, [pc, #308]	@ (800241c <main+0x370>)
 80022e8:	2214      	movs	r2, #20
 80022ea:	701a      	strb	r2, [r3, #0]
 80022ec:	4b4c      	ldr	r3, [pc, #304]	@ (8002420 <main+0x374>)
 80022ee:	2200      	movs	r2, #0
 80022f0:	701a      	strb	r2, [r3, #0]
 80022f2:	f002 fbbe 	bl	8004a72 <SSD1306_Clear>
 80022f6:	e100      	b.n	80024fa <main+0x44e>
	  else if 	(page == 2 && selected == 4)	{lcdPrintUpdate(0, 22, "|", 1); zero0();}			//zero0
 80022f8:	4b48      	ldr	r3, [pc, #288]	@ (800241c <main+0x370>)
 80022fa:	781b      	ldrb	r3, [r3, #0]
 80022fc:	2b02      	cmp	r3, #2
 80022fe:	d110      	bne.n	8002322 <main+0x276>
 8002300:	4b47      	ldr	r3, [pc, #284]	@ (8002420 <main+0x374>)
 8002302:	781b      	ldrb	r3, [r3, #0]
 8002304:	2b04      	cmp	r3, #4
 8002306:	d10c      	bne.n	8002322 <main+0x276>
 8002308:	4a47      	ldr	r2, [pc, #284]	@ (8002428 <main+0x37c>)
 800230a:	1d3b      	adds	r3, r7, #4
 800230c:	469c      	mov	ip, r3
 800230e:	2301      	movs	r3, #1
 8002310:	2116      	movs	r1, #22
 8002312:	2000      	movs	r0, #0
 8002314:	f000 f9aa 	bl	800266c <lcdPrintUpdate.10>
 8002318:	1d3b      	adds	r3, r7, #4
 800231a:	469c      	mov	ip, r3
 800231c:	f000 fede 	bl	80030dc <zero0.2>
 8002320:	e0eb      	b.n	80024fa <main+0x44e>
	  else if 	(page == 2 && selected == 5)	{lcdPrintUpdate(0, 32, "|", 1); init();}			//init
 8002322:	4b3e      	ldr	r3, [pc, #248]	@ (800241c <main+0x370>)
 8002324:	781b      	ldrb	r3, [r3, #0]
 8002326:	2b02      	cmp	r3, #2
 8002328:	d110      	bne.n	800234c <main+0x2a0>
 800232a:	4b3d      	ldr	r3, [pc, #244]	@ (8002420 <main+0x374>)
 800232c:	781b      	ldrb	r3, [r3, #0]
 800232e:	2b05      	cmp	r3, #5
 8002330:	d10c      	bne.n	800234c <main+0x2a0>
 8002332:	4a3d      	ldr	r2, [pc, #244]	@ (8002428 <main+0x37c>)
 8002334:	1d3b      	adds	r3, r7, #4
 8002336:	469c      	mov	ip, r3
 8002338:	2301      	movs	r3, #1
 800233a:	2120      	movs	r1, #32
 800233c:	2000      	movs	r0, #0
 800233e:	f000 f995 	bl	800266c <lcdPrintUpdate.10>
 8002342:	1d3b      	adds	r3, r7, #4
 8002344:	469c      	mov	ip, r3
 8002346:	f000 ff3b 	bl	80031c0 <init.3>
 800234a:	e0d6      	b.n	80024fa <main+0x44e>
	  else if 	(page == 2 && selected == 6)	{lcdPrintUpdate(0, 42, "|", 1); zero2();}			//zero2
 800234c:	4b33      	ldr	r3, [pc, #204]	@ (800241c <main+0x370>)
 800234e:	781b      	ldrb	r3, [r3, #0]
 8002350:	2b02      	cmp	r3, #2
 8002352:	d110      	bne.n	8002376 <main+0x2ca>
 8002354:	4b32      	ldr	r3, [pc, #200]	@ (8002420 <main+0x374>)
 8002356:	781b      	ldrb	r3, [r3, #0]
 8002358:	2b06      	cmp	r3, #6
 800235a:	d10c      	bne.n	8002376 <main+0x2ca>
 800235c:	4a32      	ldr	r2, [pc, #200]	@ (8002428 <main+0x37c>)
 800235e:	1d3b      	adds	r3, r7, #4
 8002360:	469c      	mov	ip, r3
 8002362:	2301      	movs	r3, #1
 8002364:	212a      	movs	r1, #42	@ 0x2a
 8002366:	2000      	movs	r0, #0
 8002368:	f000 f980 	bl	800266c <lcdPrintUpdate.10>
 800236c:	1d3b      	adds	r3, r7, #4
 800236e:	469c      	mov	ip, r3
 8002370:	f000 ff96 	bl	80032a0 <zero2.4>
 8002374:	e0c1      	b.n	80024fa <main+0x44e>

	  else if 	(page == 20 && selected > 0)	{setPGSfunk();}										//set PGS funk
 8002376:	4b29      	ldr	r3, [pc, #164]	@ (800241c <main+0x370>)
 8002378:	781b      	ldrb	r3, [r3, #0]
 800237a:	2b14      	cmp	r3, #20
 800237c:	d108      	bne.n	8002390 <main+0x2e4>
 800237e:	4b28      	ldr	r3, [pc, #160]	@ (8002420 <main+0x374>)
 8002380:	781b      	ldrb	r3, [r3, #0]
 8002382:	2b00      	cmp	r3, #0
 8002384:	d004      	beq.n	8002390 <main+0x2e4>
 8002386:	1d3b      	adds	r3, r7, #4
 8002388:	469c      	mov	ip, r3
 800238a:	f001 f929 	bl	80035e0 <setPGSfunk.5>
 800238e:	e0b4      	b.n	80024fa <main+0x44e>
	  else if 	(page == 20 && selected == 0)	{page = 2; selected = 2; SSD1306_Clear();}			//exit to menu
 8002390:	4b22      	ldr	r3, [pc, #136]	@ (800241c <main+0x370>)
 8002392:	781b      	ldrb	r3, [r3, #0]
 8002394:	2b14      	cmp	r3, #20
 8002396:	d10c      	bne.n	80023b2 <main+0x306>
 8002398:	4b21      	ldr	r3, [pc, #132]	@ (8002420 <main+0x374>)
 800239a:	781b      	ldrb	r3, [r3, #0]
 800239c:	2b00      	cmp	r3, #0
 800239e:	d108      	bne.n	80023b2 <main+0x306>
 80023a0:	4b1e      	ldr	r3, [pc, #120]	@ (800241c <main+0x370>)
 80023a2:	2202      	movs	r2, #2
 80023a4:	701a      	strb	r2, [r3, #0]
 80023a6:	4b1e      	ldr	r3, [pc, #120]	@ (8002420 <main+0x374>)
 80023a8:	2202      	movs	r2, #2
 80023aa:	701a      	strb	r2, [r3, #0]
 80023ac:	f002 fb61 	bl	8004a72 <SSD1306_Clear>
 80023b0:	e0a3      	b.n	80024fa <main+0x44e>

	  else if 	(page == 3 && selected == 0)	{page = 1; selected = 2; SSD1306_Clear();}			//exit to menu
 80023b2:	4b1a      	ldr	r3, [pc, #104]	@ (800241c <main+0x370>)
 80023b4:	781b      	ldrb	r3, [r3, #0]
 80023b6:	2b03      	cmp	r3, #3
 80023b8:	d10c      	bne.n	80023d4 <main+0x328>
 80023ba:	4b19      	ldr	r3, [pc, #100]	@ (8002420 <main+0x374>)
 80023bc:	781b      	ldrb	r3, [r3, #0]
 80023be:	2b00      	cmp	r3, #0
 80023c0:	d108      	bne.n	80023d4 <main+0x328>
 80023c2:	4b16      	ldr	r3, [pc, #88]	@ (800241c <main+0x370>)
 80023c4:	2201      	movs	r2, #1
 80023c6:	701a      	strb	r2, [r3, #0]
 80023c8:	4b15      	ldr	r3, [pc, #84]	@ (8002420 <main+0x374>)
 80023ca:	2202      	movs	r2, #2
 80023cc:	701a      	strb	r2, [r3, #0]
 80023ce:	f002 fb50 	bl	8004a72 <SSD1306_Clear>
 80023d2:	e092      	b.n	80024fa <main+0x44e>
	  else if 	(page == 3 && selected == 1)	{lcdPrintUpdate(0, 0, "|", 1); oemUserQuestion();}	//oemUserQuestion
 80023d4:	4b11      	ldr	r3, [pc, #68]	@ (800241c <main+0x370>)
 80023d6:	781b      	ldrb	r3, [r3, #0]
 80023d8:	2b03      	cmp	r3, #3
 80023da:	d127      	bne.n	800242c <main+0x380>
 80023dc:	4b10      	ldr	r3, [pc, #64]	@ (8002420 <main+0x374>)
 80023de:	781b      	ldrb	r3, [r3, #0]
 80023e0:	2b01      	cmp	r3, #1
 80023e2:	d123      	bne.n	800242c <main+0x380>
 80023e4:	4a10      	ldr	r2, [pc, #64]	@ (8002428 <main+0x37c>)
 80023e6:	1d3b      	adds	r3, r7, #4
 80023e8:	469c      	mov	ip, r3
 80023ea:	2301      	movs	r3, #1
 80023ec:	2100      	movs	r1, #0
 80023ee:	2000      	movs	r0, #0
 80023f0:	f000 f93c 	bl	800266c <lcdPrintUpdate.10>
 80023f4:	1d3b      	adds	r3, r7, #4
 80023f6:	469c      	mov	ip, r3
 80023f8:	f001 fa3e 	bl	8003878 <oemUserQuestion.6>
 80023fc:	e07d      	b.n	80024fa <main+0x44e>
 80023fe:	46c0      	nop			@ (mov r8, r8)
 8002400:	48000400 	.word	0x48000400
 8002404:	08007f60 	.word	0x08007f60
 8002408:	08007f68 	.word	0x08007f68
 800240c:	08007f70 	.word	0x08007f70
 8002410:	20000170 	.word	0x20000170
 8002414:	20000174 	.word	0x20000174
 8002418:	20000171 	.word	0x20000171
 800241c:	20000178 	.word	0x20000178
 8002420:	20000179 	.word	0x20000179
 8002424:	20000018 	.word	0x20000018
 8002428:	08007f7c 	.word	0x08007f7c
	  else if 	(page == 3 && selected == 2)	{lcdPrintUpdate(0, 10, "|", 1); oem();}		 		//oem
 800242c:	4b88      	ldr	r3, [pc, #544]	@ (8002650 <main+0x5a4>)
 800242e:	781b      	ldrb	r3, [r3, #0]
 8002430:	2b03      	cmp	r3, #3
 8002432:	d110      	bne.n	8002456 <main+0x3aa>
 8002434:	4b87      	ldr	r3, [pc, #540]	@ (8002654 <main+0x5a8>)
 8002436:	781b      	ldrb	r3, [r3, #0]
 8002438:	2b02      	cmp	r3, #2
 800243a:	d10c      	bne.n	8002456 <main+0x3aa>
 800243c:	4a86      	ldr	r2, [pc, #536]	@ (8002658 <main+0x5ac>)
 800243e:	1d3b      	adds	r3, r7, #4
 8002440:	469c      	mov	ip, r3
 8002442:	2301      	movs	r3, #1
 8002444:	210a      	movs	r1, #10
 8002446:	2000      	movs	r0, #0
 8002448:	f000 f910 	bl	800266c <lcdPrintUpdate.10>
 800244c:	1d3b      	adds	r3, r7, #4
 800244e:	469c      	mov	ip, r3
 8002450:	f001 fa98 	bl	8003984 <oem.7>
 8002454:	e051      	b.n	80024fa <main+0x44e>
	  else if 	(page == 3 && selected == 3)	{lcdPrintUpdate(0, 20, "|", 1); user();}		 	//user
 8002456:	4b7e      	ldr	r3, [pc, #504]	@ (8002650 <main+0x5a4>)
 8002458:	781b      	ldrb	r3, [r3, #0]
 800245a:	2b03      	cmp	r3, #3
 800245c:	d110      	bne.n	8002480 <main+0x3d4>
 800245e:	4b7d      	ldr	r3, [pc, #500]	@ (8002654 <main+0x5a8>)
 8002460:	781b      	ldrb	r3, [r3, #0]
 8002462:	2b03      	cmp	r3, #3
 8002464:	d10c      	bne.n	8002480 <main+0x3d4>
 8002466:	4a7c      	ldr	r2, [pc, #496]	@ (8002658 <main+0x5ac>)
 8002468:	1d3b      	adds	r3, r7, #4
 800246a:	469c      	mov	ip, r3
 800246c:	2301      	movs	r3, #1
 800246e:	2114      	movs	r1, #20
 8002470:	2000      	movs	r0, #0
 8002472:	f000 f8fb 	bl	800266c <lcdPrintUpdate.10>
 8002476:	1d3b      	adds	r3, r7, #4
 8002478:	469c      	mov	ip, r3
 800247a:	f001 faf9 	bl	8003a70 <user.8>
 800247e:	e03c      	b.n	80024fa <main+0x44e>
	  else if 	(page == 3 && selected == 4)	{lcdPrintUpdate(0, 30, "|", 1); LOWPWR0();}			//LOWPWR0
 8002480:	4b73      	ldr	r3, [pc, #460]	@ (8002650 <main+0x5a4>)
 8002482:	781b      	ldrb	r3, [r3, #0]
 8002484:	2b03      	cmp	r3, #3
 8002486:	d110      	bne.n	80024aa <main+0x3fe>
 8002488:	4b72      	ldr	r3, [pc, #456]	@ (8002654 <main+0x5a8>)
 800248a:	781b      	ldrb	r3, [r3, #0]
 800248c:	2b04      	cmp	r3, #4
 800248e:	d10c      	bne.n	80024aa <main+0x3fe>
 8002490:	4a71      	ldr	r2, [pc, #452]	@ (8002658 <main+0x5ac>)
 8002492:	1d3b      	adds	r3, r7, #4
 8002494:	469c      	mov	ip, r3
 8002496:	2301      	movs	r3, #1
 8002498:	211e      	movs	r1, #30
 800249a:	2000      	movs	r0, #0
 800249c:	f000 f8e6 	bl	800266c <lcdPrintUpdate.10>
 80024a0:	1d3b      	adds	r3, r7, #4
 80024a2:	469c      	mov	ip, r3
 80024a4:	f001 fb5a 	bl	8003b5c <LOWPWR0.9>
 80024a8:	e027      	b.n	80024fa <main+0x44e>
	  else if 	(page == 3 && selected == 5)	{lcdPrintUpdate(0, 40, "|", 1); LOWPWR1();}			//LOWPWR1
 80024aa:	4b69      	ldr	r3, [pc, #420]	@ (8002650 <main+0x5a4>)
 80024ac:	781b      	ldrb	r3, [r3, #0]
 80024ae:	2b03      	cmp	r3, #3
 80024b0:	d110      	bne.n	80024d4 <main+0x428>
 80024b2:	4b68      	ldr	r3, [pc, #416]	@ (8002654 <main+0x5a8>)
 80024b4:	781b      	ldrb	r3, [r3, #0]
 80024b6:	2b05      	cmp	r3, #5
 80024b8:	d10c      	bne.n	80024d4 <main+0x428>
 80024ba:	4a67      	ldr	r2, [pc, #412]	@ (8002658 <main+0x5ac>)
 80024bc:	1d3b      	adds	r3, r7, #4
 80024be:	469c      	mov	ip, r3
 80024c0:	2301      	movs	r3, #1
 80024c2:	2128      	movs	r1, #40	@ 0x28
 80024c4:	2000      	movs	r0, #0
 80024c6:	f000 f8d1 	bl	800266c <lcdPrintUpdate.10>
 80024ca:	1d3b      	adds	r3, r7, #4
 80024cc:	469c      	mov	ip, r3
 80024ce:	f001 fbb9 	bl	8003c44 <LOWPWR1.11>
 80024d2:	e012      	b.n	80024fa <main+0x44e>

	  else if 	(page == 4 && selected == 0)	{page = 1; selected = 3; SSD1306_Clear();}			//exit to menu
 80024d4:	4b5e      	ldr	r3, [pc, #376]	@ (8002650 <main+0x5a4>)
 80024d6:	781b      	ldrb	r3, [r3, #0]
 80024d8:	2b04      	cmp	r3, #4
 80024da:	d000      	beq.n	80024de <main+0x432>
 80024dc:	e084      	b.n	80025e8 <main+0x53c>
 80024de:	4b5d      	ldr	r3, [pc, #372]	@ (8002654 <main+0x5a8>)
 80024e0:	781b      	ldrb	r3, [r3, #0]
 80024e2:	2b00      	cmp	r3, #0
 80024e4:	d000      	beq.n	80024e8 <main+0x43c>
 80024e6:	e07f      	b.n	80025e8 <main+0x53c>
 80024e8:	4b59      	ldr	r3, [pc, #356]	@ (8002650 <main+0x5a4>)
 80024ea:	2201      	movs	r2, #1
 80024ec:	701a      	strb	r2, [r3, #0]
 80024ee:	4b59      	ldr	r3, [pc, #356]	@ (8002654 <main+0x5a8>)
 80024f0:	2203      	movs	r2, #3
 80024f2:	701a      	strb	r2, [r3, #0]
 80024f4:	f002 fabd 	bl	8004a72 <SSD1306_Clear>
	  if 		(page == 0)						{page = 1; selected = 1; SSD1306_Clear();}//to menu
 80024f8:	e076      	b.n	80025e8 <main+0x53c>
 80024fa:	e075      	b.n	80025e8 <main+0x53c>
	}
	else if(key1_state == 1 && short_state && (ms - time_key1) > 50){
 80024fc:	230b      	movs	r3, #11
 80024fe:	18fb      	adds	r3, r7, r3
 8002500:	781b      	ldrb	r3, [r3, #0]
 8002502:	2b00      	cmp	r3, #0
 8002504:	d100      	bne.n	8002508 <main+0x45c>
 8002506:	e070      	b.n	80025ea <main+0x53e>
 8002508:	4b54      	ldr	r3, [pc, #336]	@ (800265c <main+0x5b0>)
 800250a:	781b      	ldrb	r3, [r3, #0]
 800250c:	2b00      	cmp	r3, #0
 800250e:	d100      	bne.n	8002512 <main+0x466>
 8002510:	e06b      	b.n	80025ea <main+0x53e>
 8002512:	4b53      	ldr	r3, [pc, #332]	@ (8002660 <main+0x5b4>)
 8002514:	681b      	ldr	r3, [r3, #0]
 8002516:	68fa      	ldr	r2, [r7, #12]
 8002518:	1ad3      	subs	r3, r2, r3
 800251a:	2b32      	cmp	r3, #50	@ 0x32
 800251c:	d965      	bls.n	80025ea <main+0x53e>
	  short_state = 0;
 800251e:	4b4f      	ldr	r3, [pc, #316]	@ (800265c <main+0x5b0>)
 8002520:	2200      	movs	r2, #0
 8002522:	701a      	strb	r2, [r3, #0]
	  time_key1 = ms;
 8002524:	4b4e      	ldr	r3, [pc, #312]	@ (8002660 <main+0x5b4>)
 8002526:	68fa      	ldr	r2, [r7, #12]
 8002528:	601a      	str	r2, [r3, #0]
	  if(!long_state){//    
 800252a:	4b4e      	ldr	r3, [pc, #312]	@ (8002664 <main+0x5b8>)
 800252c:	781b      	ldrb	r3, [r3, #0]
 800252e:	2201      	movs	r2, #1
 8002530:	4053      	eors	r3, r2
 8002532:	b2db      	uxtb	r3, r3
 8002534:	2b00      	cmp	r3, #0
 8002536:	d058      	beq.n	80025ea <main+0x53e>
		if (page==0) {selected++; if (selected > 7) {selected=0;}} 					//0page
 8002538:	4b45      	ldr	r3, [pc, #276]	@ (8002650 <main+0x5a4>)
 800253a:	781b      	ldrb	r3, [r3, #0]
 800253c:	2b00      	cmp	r3, #0
 800253e:	d10c      	bne.n	800255a <main+0x4ae>
 8002540:	4b44      	ldr	r3, [pc, #272]	@ (8002654 <main+0x5a8>)
 8002542:	781b      	ldrb	r3, [r3, #0]
 8002544:	3301      	adds	r3, #1
 8002546:	b2da      	uxtb	r2, r3
 8002548:	4b42      	ldr	r3, [pc, #264]	@ (8002654 <main+0x5a8>)
 800254a:	701a      	strb	r2, [r3, #0]
 800254c:	4b41      	ldr	r3, [pc, #260]	@ (8002654 <main+0x5a8>)
 800254e:	781b      	ldrb	r3, [r3, #0]
 8002550:	2b07      	cmp	r3, #7
 8002552:	d902      	bls.n	800255a <main+0x4ae>
 8002554:	4b3f      	ldr	r3, [pc, #252]	@ (8002654 <main+0x5a8>)
 8002556:	2200      	movs	r2, #0
 8002558:	701a      	strb	r2, [r3, #0]
		if (page==1) {selected++; if (selected > 3) {selected=0;}} 					//menu
 800255a:	4b3d      	ldr	r3, [pc, #244]	@ (8002650 <main+0x5a4>)
 800255c:	781b      	ldrb	r3, [r3, #0]
 800255e:	2b01      	cmp	r3, #1
 8002560:	d10c      	bne.n	800257c <main+0x4d0>
 8002562:	4b3c      	ldr	r3, [pc, #240]	@ (8002654 <main+0x5a8>)
 8002564:	781b      	ldrb	r3, [r3, #0]
 8002566:	3301      	adds	r3, #1
 8002568:	b2da      	uxtb	r2, r3
 800256a:	4b3a      	ldr	r3, [pc, #232]	@ (8002654 <main+0x5a8>)
 800256c:	701a      	strb	r2, [r3, #0]
 800256e:	4b39      	ldr	r3, [pc, #228]	@ (8002654 <main+0x5a8>)
 8002570:	781b      	ldrb	r3, [r3, #0]
 8002572:	2b03      	cmp	r3, #3
 8002574:	d902      	bls.n	800257c <main+0x4d0>
 8002576:	4b37      	ldr	r3, [pc, #220]	@ (8002654 <main+0x5a8>)
 8002578:	2200      	movs	r2, #0
 800257a:	701a      	strb	r2, [r3, #0]
		if (page==2) {selected++; if (selected > calibRestriction) {selected=0;}} 	//calib
 800257c:	4b34      	ldr	r3, [pc, #208]	@ (8002650 <main+0x5a4>)
 800257e:	781b      	ldrb	r3, [r3, #0]
 8002580:	2b02      	cmp	r3, #2
 8002582:	d10e      	bne.n	80025a2 <main+0x4f6>
 8002584:	4b33      	ldr	r3, [pc, #204]	@ (8002654 <main+0x5a8>)
 8002586:	781b      	ldrb	r3, [r3, #0]
 8002588:	3301      	adds	r3, #1
 800258a:	b2da      	uxtb	r2, r3
 800258c:	4b31      	ldr	r3, [pc, #196]	@ (8002654 <main+0x5a8>)
 800258e:	701a      	strb	r2, [r3, #0]
 8002590:	4b30      	ldr	r3, [pc, #192]	@ (8002654 <main+0x5a8>)
 8002592:	781a      	ldrb	r2, [r3, #0]
 8002594:	4b34      	ldr	r3, [pc, #208]	@ (8002668 <main+0x5bc>)
 8002596:	781b      	ldrb	r3, [r3, #0]
 8002598:	429a      	cmp	r2, r3
 800259a:	d902      	bls.n	80025a2 <main+0x4f6>
 800259c:	4b2d      	ldr	r3, [pc, #180]	@ (8002654 <main+0x5a8>)
 800259e:	2200      	movs	r2, #0
 80025a0:	701a      	strb	r2, [r3, #0]
		if (page==3) {selected++; if (selected > 5) {selected=0;}} 					//settingss
 80025a2:	4b2b      	ldr	r3, [pc, #172]	@ (8002650 <main+0x5a4>)
 80025a4:	781b      	ldrb	r3, [r3, #0]
 80025a6:	2b03      	cmp	r3, #3
 80025a8:	d10c      	bne.n	80025c4 <main+0x518>
 80025aa:	4b2a      	ldr	r3, [pc, #168]	@ (8002654 <main+0x5a8>)
 80025ac:	781b      	ldrb	r3, [r3, #0]
 80025ae:	3301      	adds	r3, #1
 80025b0:	b2da      	uxtb	r2, r3
 80025b2:	4b28      	ldr	r3, [pc, #160]	@ (8002654 <main+0x5a8>)
 80025b4:	701a      	strb	r2, [r3, #0]
 80025b6:	4b27      	ldr	r3, [pc, #156]	@ (8002654 <main+0x5a8>)
 80025b8:	781b      	ldrb	r3, [r3, #0]
 80025ba:	2b05      	cmp	r3, #5
 80025bc:	d902      	bls.n	80025c4 <main+0x518>
 80025be:	4b25      	ldr	r3, [pc, #148]	@ (8002654 <main+0x5a8>)
 80025c0:	2200      	movs	r2, #0
 80025c2:	701a      	strb	r2, [r3, #0]
		if (page==20) {selected++;if (selected > 12) {selected=0;}}  				//set 50
 80025c4:	4b22      	ldr	r3, [pc, #136]	@ (8002650 <main+0x5a4>)
 80025c6:	781b      	ldrb	r3, [r3, #0]
 80025c8:	2b14      	cmp	r3, #20
 80025ca:	d10e      	bne.n	80025ea <main+0x53e>
 80025cc:	4b21      	ldr	r3, [pc, #132]	@ (8002654 <main+0x5a8>)
 80025ce:	781b      	ldrb	r3, [r3, #0]
 80025d0:	3301      	adds	r3, #1
 80025d2:	b2da      	uxtb	r2, r3
 80025d4:	4b1f      	ldr	r3, [pc, #124]	@ (8002654 <main+0x5a8>)
 80025d6:	701a      	strb	r2, [r3, #0]
 80025d8:	4b1e      	ldr	r3, [pc, #120]	@ (8002654 <main+0x5a8>)
 80025da:	781b      	ldrb	r3, [r3, #0]
 80025dc:	2b0c      	cmp	r3, #12
 80025de:	d904      	bls.n	80025ea <main+0x53e>
 80025e0:	4b1c      	ldr	r3, [pc, #112]	@ (8002654 <main+0x5a8>)
 80025e2:	2200      	movs	r2, #0
 80025e4:	701a      	strb	r2, [r3, #0]
 80025e6:	e000      	b.n	80025ea <main+0x53e>
	  if 		(page == 0)						{page = 1; selected = 1; SSD1306_Clear();}//to menu
 80025e8:	46c0      	nop			@ (mov r8, r8)
	  }
	}

	if (page == 0) {page0draw();}
 80025ea:	4b19      	ldr	r3, [pc, #100]	@ (8002650 <main+0x5a4>)
 80025ec:	781b      	ldrb	r3, [r3, #0]
 80025ee:	2b00      	cmp	r3, #0
 80025f0:	d103      	bne.n	80025fa <main+0x54e>
 80025f2:	1d3b      	adds	r3, r7, #4
 80025f4:	469c      	mov	ip, r3
 80025f6:	f000 f863 	bl	80026c0 <page0draw.12>
	if (page == 1) {pageMenuDraw();}
 80025fa:	4b15      	ldr	r3, [pc, #84]	@ (8002650 <main+0x5a4>)
 80025fc:	781b      	ldrb	r3, [r3, #0]
 80025fe:	2b01      	cmp	r3, #1
 8002600:	d103      	bne.n	800260a <main+0x55e>
 8002602:	1d3b      	adds	r3, r7, #4
 8002604:	469c      	mov	ip, r3
 8002606:	f000 facd 	bl	8002ba4 <pageMenuDraw.13>
	if (page == 2) {pageCalibrationDraw();}
 800260a:	4b11      	ldr	r3, [pc, #68]	@ (8002650 <main+0x5a4>)
 800260c:	781b      	ldrb	r3, [r3, #0]
 800260e:	2b02      	cmp	r3, #2
 8002610:	d103      	bne.n	800261a <main+0x56e>
 8002612:	1d3b      	adds	r3, r7, #4
 8002614:	469c      	mov	ip, r3
 8002616:	f000 fb35 	bl	8002c84 <pageCalibrationDraw.14>
	if (page == 20) {pageCalib50draw();}
 800261a:	4b0d      	ldr	r3, [pc, #52]	@ (8002650 <main+0x5a4>)
 800261c:	781b      	ldrb	r3, [r3, #0]
 800261e:	2b14      	cmp	r3, #20
 8002620:	d103      	bne.n	800262a <main+0x57e>
 8002622:	1d3b      	adds	r3, r7, #4
 8002624:	469c      	mov	ip, r3
 8002626:	f000 fead 	bl	8003384 <pageCalib50draw.15>
	if (page == 3) {pageSettingsDraw();}
 800262a:	4b09      	ldr	r3, [pc, #36]	@ (8002650 <main+0x5a4>)
 800262c:	781b      	ldrb	r3, [r3, #0]
 800262e:	2b03      	cmp	r3, #3
 8002630:	d103      	bne.n	800263a <main+0x58e>
 8002632:	1d3b      	adds	r3, r7, #4
 8002634:	469c      	mov	ip, r3
 8002636:	f001 f897 	bl	8003768 <pageSettingsDraw.16>
	if (page == 4) {pageParamsDraw();}
 800263a:	4b05      	ldr	r3, [pc, #20]	@ (8002650 <main+0x5a4>)
 800263c:	781b      	ldrb	r3, [r3, #0]
 800263e:	2b04      	cmp	r3, #4
 8002640:	d000      	beq.n	8002644 <main+0x598>
 8002642:	e56d      	b.n	8002120 <main+0x74>
 8002644:	1d3b      	adds	r3, r7, #4
 8002646:	469c      	mov	ip, r3
 8002648:	f001 fb70 	bl	8003d2c <pageParamsDraw.17>
while (1){
 800264c:	e568      	b.n	8002120 <main+0x74>
 800264e:	46c0      	nop			@ (mov r8, r8)
 8002650:	20000178 	.word	0x20000178
 8002654:	20000179 	.word	0x20000179
 8002658:	08007f7c 	.word	0x08007f7c
 800265c:	20000170 	.word	0x20000170
 8002660:	20000174 	.word	0x20000174
 8002664:	20000171 	.word	0x20000171
 8002668:	20000018 	.word	0x20000018

0800266c <lcdPrintUpdate.10>:
void lcdPrintUpdate(uint8_t x, uint8_t y, char message[], uint8_t fontsize){
 800266c:	b5f0      	push	{r4, r5, r6, r7, lr}
 800266e:	b085      	sub	sp, #20
 8002670:	af00      	add	r7, sp, #0
 8002672:	0004      	movs	r4, r0
 8002674:	0008      	movs	r0, r1
 8002676:	60ba      	str	r2, [r7, #8]
 8002678:	0019      	movs	r1, r3
 800267a:	260f      	movs	r6, #15
 800267c:	19bb      	adds	r3, r7, r6
 800267e:	1c22      	adds	r2, r4, #0
 8002680:	701a      	strb	r2, [r3, #0]
 8002682:	230e      	movs	r3, #14
 8002684:	18fb      	adds	r3, r7, r3
 8002686:	1c02      	adds	r2, r0, #0
 8002688:	701a      	strb	r2, [r3, #0]
 800268a:	200d      	movs	r0, #13
 800268c:	183b      	adds	r3, r7, r0
 800268e:	1c0a      	adds	r2, r1, #0
 8002690:	701a      	strb	r2, [r3, #0]
 8002692:	4663      	mov	r3, ip
 8002694:	4661      	mov	r1, ip
 8002696:	6079      	str	r1, [r7, #4]
	lcdPrint(x, y, message, fontsize);
 8002698:	183a      	adds	r2, r7, r0
 800269a:	7815      	ldrb	r5, [r2, #0]
 800269c:	68bc      	ldr	r4, [r7, #8]
 800269e:	220e      	movs	r2, #14
 80026a0:	18ba      	adds	r2, r7, r2
 80026a2:	7811      	ldrb	r1, [r2, #0]
 80026a4:	19ba      	adds	r2, r7, r6
 80026a6:	7810      	ldrb	r0, [r2, #0]
 80026a8:	469c      	mov	ip, r3
 80026aa:	002b      	movs	r3, r5
 80026ac:	0022      	movs	r2, r4
 80026ae:	f7ff fcb1 	bl	8002014 <lcdPrint.0>
	SSD1306_UpdateScreen();
 80026b2:	f001 fed3 	bl	800445c <SSD1306_UpdateScreen>
}
 80026b6:	46c0      	nop			@ (mov r8, r8)
 80026b8:	46bd      	mov	sp, r7
 80026ba:	b005      	add	sp, #20
 80026bc:	bdf0      	pop	{r4, r5, r6, r7, pc}
	...

080026c0 <page0draw.12>:
void page0draw(void){
 80026c0:	b5f0      	push	{r4, r5, r6, r7, lr}
 80026c2:	b0ad      	sub	sp, #180	@ 0xb4
 80026c4:	af00      	add	r7, sp, #0
 80026c6:	4664      	mov	r4, ip
 80026c8:	4663      	mov	r3, ip
 80026ca:	607b      	str	r3, [r7, #4]
	  if (HAL_GetTick()-lastPing > 1000){//  
 80026cc:	f002 fc1c 	bl	8004f08 <HAL_GetTick>
 80026d0:	0002      	movs	r2, r0
 80026d2:	4bd1      	ldr	r3, [pc, #836]	@ (8002a18 <page0draw.12+0x358>)
 80026d4:	681b      	ldr	r3, [r3, #0]
 80026d6:	1ad2      	subs	r2, r2, r3
 80026d8:	23fa      	movs	r3, #250	@ 0xfa
 80026da:	009b      	lsls	r3, r3, #2
 80026dc:	429a      	cmp	r2, r3
 80026de:	d800      	bhi.n	80026e2 <page0draw.12+0x22>
 80026e0:	e24f      	b.n	8002b82 <page0draw.12+0x4c2>
		  HAL_GPIO_WritePin(GPIOC, GPIO_PIN_13, RESET);
 80026e2:	2380      	movs	r3, #128	@ 0x80
 80026e4:	019b      	lsls	r3, r3, #6
 80026e6:	48cd      	ldr	r0, [pc, #820]	@ (8002a1c <page0draw.12+0x35c>)
 80026e8:	2200      	movs	r2, #0
 80026ea:	0019      	movs	r1, r3
 80026ec:	f002 fe7b 	bl	80053e6 <HAL_GPIO_WritePin>
		  uint8_t msg[]={0x46,0x0D};  uint8_t rx_buffer[73]={0};  MX_USART2_UART_Init();
 80026f0:	26ac      	movs	r6, #172	@ 0xac
 80026f2:	19bb      	adds	r3, r7, r6
 80026f4:	4aca      	ldr	r2, [pc, #808]	@ (8002a20 <page0draw.12+0x360>)
 80026f6:	801a      	strh	r2, [r3, #0]
 80026f8:	2508      	movs	r5, #8
 80026fa:	197b      	adds	r3, r7, r5
 80026fc:	2200      	movs	r2, #0
 80026fe:	601a      	str	r2, [r3, #0]
 8002700:	3304      	adds	r3, #4
 8002702:	2245      	movs	r2, #69	@ 0x45
 8002704:	2100      	movs	r1, #0
 8002706:	0018      	movs	r0, r3
 8002708:	f004 ff44 	bl	8007594 <memset>
 800270c:	f001 fd18 	bl	8004140 <MX_USART2_UART_Init>
		  HAL_UART_Transmit(&huart2, msg, sizeof(msg), 50);
 8002710:	19b9      	adds	r1, r7, r6
 8002712:	48c4      	ldr	r0, [pc, #784]	@ (8002a24 <page0draw.12+0x364>)
 8002714:	2332      	movs	r3, #50	@ 0x32
 8002716:	2202      	movs	r2, #2
 8002718:	f004 f99c 	bl	8006a54 <HAL_UART_Transmit>
		  HAL_UART_Receive(&huart2, rx_buffer, 73, 100);
 800271c:	1979      	adds	r1, r7, r5
 800271e:	48c1      	ldr	r0, [pc, #772]	@ (8002a24 <page0draw.12+0x364>)
 8002720:	2364      	movs	r3, #100	@ 0x64
 8002722:	2249      	movs	r2, #73	@ 0x49
 8002724:	f004 fa36 	bl	8006b94 <HAL_UART_Receive>
		  if (rx_buffer[72] != 0x0D) {memset(rx_buffer, 0x20, sizeof(rx_buffer)/sizeof(rx_buffer[0]));}
 8002728:	197b      	adds	r3, r7, r5
 800272a:	2248      	movs	r2, #72	@ 0x48
 800272c:	5c9b      	ldrb	r3, [r3, r2]
 800272e:	2b0d      	cmp	r3, #13
 8002730:	d005      	beq.n	800273e <page0draw.12+0x7e>
 8002732:	197b      	adds	r3, r7, r5
 8002734:	2249      	movs	r2, #73	@ 0x49
 8002736:	2120      	movs	r1, #32
 8002738:	0018      	movs	r0, r3
 800273a:	f004 ff2b 	bl	8007594 <memset>
		  lastPing = HAL_GetTick();
 800273e:	f002 fbe3 	bl	8004f08 <HAL_GetTick>
 8002742:	0002      	movs	r2, r0
 8002744:	4bb4      	ldr	r3, [pc, #720]	@ (8002a18 <page0draw.12+0x358>)
 8002746:	601a      	str	r2, [r3, #0]
		  char C[6]={0};  char C1[6]={0};
 8002748:	20a4      	movs	r0, #164	@ 0xa4
 800274a:	183b      	adds	r3, r7, r0
 800274c:	2200      	movs	r2, #0
 800274e:	601a      	str	r2, [r3, #0]
 8002750:	2200      	movs	r2, #0
 8002752:	809a      	strh	r2, [r3, #4]
 8002754:	239c      	movs	r3, #156	@ 0x9c
 8002756:	18fb      	adds	r3, r7, r3
 8002758:	2200      	movs	r2, #0
 800275a:	601a      	str	r2, [r3, #0]
 800275c:	2200      	movs	r2, #0
 800275e:	809a      	strh	r2, [r3, #4]
		  strncpy(C , &rx_buffer[43] , 5);
 8002760:	2508      	movs	r5, #8
 8002762:	197b      	adds	r3, r7, r5
 8002764:	0019      	movs	r1, r3
 8002766:	312b      	adds	r1, #43	@ 0x2b
 8002768:	0006      	movs	r6, r0
 800276a:	183b      	adds	r3, r7, r0
 800276c:	2205      	movs	r2, #5
 800276e:	0018      	movs	r0, r3
 8002770:	f004 ff18 	bl	80075a4 <strncpy>
		  strncpy(C1 , &rx_buffer[49] , 5);
 8002774:	197b      	adds	r3, r7, r5
 8002776:	0019      	movs	r1, r3
 8002778:	3131      	adds	r1, #49	@ 0x31
 800277a:	239c      	movs	r3, #156	@ 0x9c
 800277c:	18fb      	adds	r3, r7, r3
 800277e:	2205      	movs	r2, #5
 8002780:	0018      	movs	r0, r3
 8002782:	f004 ff0f 	bl	80075a4 <strncpy>
		  lcdPrint(0, 0, "C:        C1:", 1);
 8002786:	4aa8      	ldr	r2, [pc, #672]	@ (8002a28 <page0draw.12+0x368>)
 8002788:	46a4      	mov	ip, r4
 800278a:	2301      	movs	r3, #1
 800278c:	2100      	movs	r1, #0
 800278e:	2000      	movs	r0, #0
 8002790:	f7ff fc40 	bl	8002014 <lcdPrint.0>
		  lcdPrint(21, 0, C, 1);
 8002794:	19ba      	adds	r2, r7, r6
 8002796:	46a4      	mov	ip, r4
 8002798:	2301      	movs	r3, #1
 800279a:	2100      	movs	r1, #0
 800279c:	2015      	movs	r0, #21
 800279e:	f7ff fc39 	bl	8002014 <lcdPrint.0>
		  lcdPrint(91, 0, C1, 1);
 80027a2:	239c      	movs	r3, #156	@ 0x9c
 80027a4:	18fa      	adds	r2, r7, r3
 80027a6:	46a4      	mov	ip, r4
 80027a8:	2301      	movs	r3, #1
 80027aa:	2100      	movs	r1, #0
 80027ac:	205b      	movs	r0, #91	@ 0x5b
 80027ae:	f7ff fc31 	bl	8002014 <lcdPrint.0>
		  char sn1[5]={0};	  char sn2[5]={0};
 80027b2:	2094      	movs	r0, #148	@ 0x94
 80027b4:	183b      	adds	r3, r7, r0
 80027b6:	2200      	movs	r2, #0
 80027b8:	601a      	str	r2, [r3, #0]
 80027ba:	2200      	movs	r2, #0
 80027bc:	711a      	strb	r2, [r3, #4]
 80027be:	238c      	movs	r3, #140	@ 0x8c
 80027c0:	18fb      	adds	r3, r7, r3
 80027c2:	2200      	movs	r2, #0
 80027c4:	601a      	str	r2, [r3, #0]
 80027c6:	2200      	movs	r2, #0
 80027c8:	711a      	strb	r2, [r3, #4]
		  strncpy(sn1 , &rx_buffer[61] , 4);
 80027ca:	197b      	adds	r3, r7, r5
 80027cc:	0019      	movs	r1, r3
 80027ce:	313d      	adds	r1, #61	@ 0x3d
 80027d0:	0006      	movs	r6, r0
 80027d2:	183b      	adds	r3, r7, r0
 80027d4:	2204      	movs	r2, #4
 80027d6:	0018      	movs	r0, r3
 80027d8:	f004 fee4 	bl	80075a4 <strncpy>
		  strncpy(sn2 , &rx_buffer[65] , 4);
 80027dc:	197b      	adds	r3, r7, r5
 80027de:	0019      	movs	r1, r3
 80027e0:	3141      	adds	r1, #65	@ 0x41
 80027e2:	238c      	movs	r3, #140	@ 0x8c
 80027e4:	18fb      	adds	r3, r7, r3
 80027e6:	2204      	movs	r2, #4
 80027e8:	0018      	movs	r0, r3
 80027ea:	f004 fedb 	bl	80075a4 <strncpy>
		  lcdPrint(0, 13, "02", 2);
 80027ee:	4a8f      	ldr	r2, [pc, #572]	@ (8002a2c <page0draw.12+0x36c>)
 80027f0:	46a4      	mov	ip, r4
 80027f2:	2302      	movs	r3, #2
 80027f4:	210d      	movs	r1, #13
 80027f6:	2000      	movs	r0, #0
 80027f8:	f7ff fc0c 	bl	8002014 <lcdPrint.0>
		  lcdPrint(28, 13, sn1, 2);
 80027fc:	19ba      	adds	r2, r7, r6
 80027fe:	46a4      	mov	ip, r4
 8002800:	2302      	movs	r3, #2
 8002802:	210d      	movs	r1, #13
 8002804:	201c      	movs	r0, #28
 8002806:	f7ff fc05 	bl	8002014 <lcdPrint.0>
		  lcdPrint(78, 13, sn2, 2);
 800280a:	238c      	movs	r3, #140	@ 0x8c
 800280c:	18fa      	adds	r2, r7, r3
 800280e:	46a4      	mov	ip, r4
 8002810:	2302      	movs	r3, #2
 8002812:	210d      	movs	r1, #13
 8002814:	204e      	movs	r0, #78	@ 0x4e
 8002816:	f7ff fbfd 	bl	8002014 <lcdPrint.0>
		  uint8_t status[6]={0};
 800281a:	2084      	movs	r0, #132	@ 0x84
 800281c:	183b      	adds	r3, r7, r0
 800281e:	2200      	movs	r2, #0
 8002820:	601a      	str	r2, [r3, #0]
 8002822:	2200      	movs	r2, #0
 8002824:	809a      	strh	r2, [r3, #4]
		  strncpy(status , &rx_buffer[55] , 5);
 8002826:	197b      	adds	r3, r7, r5
 8002828:	3337      	adds	r3, #55	@ 0x37
 800282a:	0019      	movs	r1, r3
 800282c:	0005      	movs	r5, r0
 800282e:	197b      	adds	r3, r7, r5
 8002830:	2205      	movs	r2, #5
 8002832:	0018      	movs	r0, r3
 8002834:	f004 feb6 	bl	80075a4 <strncpy>
		  lcdPrint(0, 33, "status:", 1);
 8002838:	4a7d      	ldr	r2, [pc, #500]	@ (8002a30 <page0draw.12+0x370>)
 800283a:	46a4      	mov	ip, r4
 800283c:	2301      	movs	r3, #1
 800283e:	2121      	movs	r1, #33	@ 0x21
 8002840:	2000      	movs	r0, #0
 8002842:	f7ff fbe7 	bl	8002014 <lcdPrint.0>
		  lcdPrint(49, 33, status, 1);
 8002846:	197a      	adds	r2, r7, r5
 8002848:	46a4      	mov	ip, r4
 800284a:	2301      	movs	r3, #1
 800284c:	2121      	movs	r1, #33	@ 0x21
 800284e:	2031      	movs	r0, #49	@ 0x31
 8002850:	f7ff fbe0 	bl	8002014 <lcdPrint.0>
		  char message[20]={0};
 8002854:	2670      	movs	r6, #112	@ 0x70
 8002856:	19bb      	adds	r3, r7, r6
 8002858:	2200      	movs	r2, #0
 800285a:	601a      	str	r2, [r3, #0]
 800285c:	3304      	adds	r3, #4
 800285e:	2210      	movs	r2, #16
 8002860:	2100      	movs	r1, #0
 8002862:	0018      	movs	r0, r3
 8002864:	f004 fe96 	bl	8007594 <memset>
		  memset(message,' ',sizeof(message)/sizeof(message[0]));
 8002868:	19bb      	adds	r3, r7, r6
 800286a:	2214      	movs	r2, #20
 800286c:	2120      	movs	r1, #32
 800286e:	0018      	movs	r0, r3
 8002870:	f004 fe90 	bl	8007594 <memset>
		  lcdPrint(0, 43, message, 1);
 8002874:	19ba      	adds	r2, r7, r6
 8002876:	46a4      	mov	ip, r4
 8002878:	2301      	movs	r3, #1
 800287a:	212b      	movs	r1, #43	@ 0x2b
 800287c:	2000      	movs	r0, #0
 800287e:	f7ff fbc9 	bl	8002014 <lcdPrint.0>
		  if		(status[3] == '0' && status[4] == '0') {strcpy(message , "OK");}
 8002882:	197b      	adds	r3, r7, r5
 8002884:	78db      	ldrb	r3, [r3, #3]
 8002886:	2b30      	cmp	r3, #48	@ 0x30
 8002888:	d10a      	bne.n	80028a0 <page0draw.12+0x1e0>
 800288a:	197b      	adds	r3, r7, r5
 800288c:	791b      	ldrb	r3, [r3, #4]
 800288e:	2b30      	cmp	r3, #48	@ 0x30
 8002890:	d106      	bne.n	80028a0 <page0draw.12+0x1e0>
 8002892:	19bb      	adds	r3, r7, r6
 8002894:	4a67      	ldr	r2, [pc, #412]	@ (8002a34 <page0draw.12+0x374>)
 8002896:	8811      	ldrh	r1, [r2, #0]
 8002898:	8019      	strh	r1, [r3, #0]
 800289a:	7892      	ldrb	r2, [r2, #2]
 800289c:	709a      	strb	r2, [r3, #2]
 800289e:	e0f7      	b.n	8002a90 <page0draw.12+0x3d0>
		  else if 	(status[3] == '1' && status[4] == '0') {strcpy(message , "warming up");}
 80028a0:	2284      	movs	r2, #132	@ 0x84
 80028a2:	18bb      	adds	r3, r7, r2
 80028a4:	78db      	ldrb	r3, [r3, #3]
 80028a6:	2b31      	cmp	r3, #49	@ 0x31
 80028a8:	d10d      	bne.n	80028c6 <page0draw.12+0x206>
 80028aa:	18bb      	adds	r3, r7, r2
 80028ac:	791b      	ldrb	r3, [r3, #4]
 80028ae:	2b30      	cmp	r3, #48	@ 0x30
 80028b0:	d109      	bne.n	80028c6 <page0draw.12+0x206>
 80028b2:	2370      	movs	r3, #112	@ 0x70
 80028b4:	18fb      	adds	r3, r7, r3
 80028b6:	4a60      	ldr	r2, [pc, #384]	@ (8002a38 <page0draw.12+0x378>)
 80028b8:	ca03      	ldmia	r2!, {r0, r1}
 80028ba:	c303      	stmia	r3!, {r0, r1}
 80028bc:	8811      	ldrh	r1, [r2, #0]
 80028be:	8019      	strh	r1, [r3, #0]
 80028c0:	7892      	ldrb	r2, [r2, #2]
 80028c2:	709a      	strb	r2, [r3, #2]
 80028c4:	e0e4      	b.n	8002a90 <page0draw.12+0x3d0>
		  else if	(status[3] == '1' && status[4] == '1') {strcpy(message , "too many pings");}
 80028c6:	2284      	movs	r2, #132	@ 0x84
 80028c8:	18bb      	adds	r3, r7, r2
 80028ca:	78db      	ldrb	r3, [r3, #3]
 80028cc:	2b31      	cmp	r3, #49	@ 0x31
 80028ce:	d10d      	bne.n	80028ec <page0draw.12+0x22c>
 80028d0:	18bb      	adds	r3, r7, r2
 80028d2:	791b      	ldrb	r3, [r3, #4]
 80028d4:	2b31      	cmp	r3, #49	@ 0x31
 80028d6:	d109      	bne.n	80028ec <page0draw.12+0x22c>
 80028d8:	2370      	movs	r3, #112	@ 0x70
 80028da:	18fb      	adds	r3, r7, r3
 80028dc:	4a57      	ldr	r2, [pc, #348]	@ (8002a3c <page0draw.12+0x37c>)
 80028de:	ca23      	ldmia	r2!, {r0, r1, r5}
 80028e0:	c323      	stmia	r3!, {r0, r1, r5}
 80028e2:	8811      	ldrh	r1, [r2, #0]
 80028e4:	8019      	strh	r1, [r3, #0]
 80028e6:	7892      	ldrb	r2, [r2, #2]
 80028e8:	709a      	strb	r2, [r3, #2]
 80028ea:	e0d1      	b.n	8002a90 <page0draw.12+0x3d0>
		  else if 	(status[3] == '2' && status[4] == '1') {strcpy(message , "dt/sec > 0.6 deg/s");}
 80028ec:	2284      	movs	r2, #132	@ 0x84
 80028ee:	18bb      	adds	r3, r7, r2
 80028f0:	78db      	ldrb	r3, [r3, #3]
 80028f2:	2b32      	cmp	r3, #50	@ 0x32
 80028f4:	d10f      	bne.n	8002916 <page0draw.12+0x256>
 80028f6:	18bb      	adds	r3, r7, r2
 80028f8:	791b      	ldrb	r3, [r3, #4]
 80028fa:	2b31      	cmp	r3, #49	@ 0x31
 80028fc:	d10b      	bne.n	8002916 <page0draw.12+0x256>
 80028fe:	2370      	movs	r3, #112	@ 0x70
 8002900:	18fb      	adds	r3, r7, r3
 8002902:	4a4f      	ldr	r2, [pc, #316]	@ (8002a40 <page0draw.12+0x380>)
 8002904:	ca23      	ldmia	r2!, {r0, r1, r5}
 8002906:	c323      	stmia	r3!, {r0, r1, r5}
 8002908:	6811      	ldr	r1, [r2, #0]
 800290a:	6019      	str	r1, [r3, #0]
 800290c:	8891      	ldrh	r1, [r2, #4]
 800290e:	8099      	strh	r1, [r3, #4]
 8002910:	7992      	ldrb	r2, [r2, #6]
 8002912:	719a      	strb	r2, [r3, #6]
 8002914:	e0bc      	b.n	8002a90 <page0draw.12+0x3d0>
		  else if 	(status[3] == '2' && status[4] == '2') {strcpy(message , "dt/sec > 2 deg/s");}
 8002916:	2284      	movs	r2, #132	@ 0x84
 8002918:	18bb      	adds	r3, r7, r2
 800291a:	78db      	ldrb	r3, [r3, #3]
 800291c:	2b32      	cmp	r3, #50	@ 0x32
 800291e:	d10d      	bne.n	800293c <page0draw.12+0x27c>
 8002920:	18bb      	adds	r3, r7, r2
 8002922:	791b      	ldrb	r3, [r3, #4]
 8002924:	2b32      	cmp	r3, #50	@ 0x32
 8002926:	d109      	bne.n	800293c <page0draw.12+0x27c>
 8002928:	2370      	movs	r3, #112	@ 0x70
 800292a:	18fb      	adds	r3, r7, r3
 800292c:	4a45      	ldr	r2, [pc, #276]	@ (8002a44 <page0draw.12+0x384>)
 800292e:	ca23      	ldmia	r2!, {r0, r1, r5}
 8002930:	c323      	stmia	r3!, {r0, r1, r5}
 8002932:	6811      	ldr	r1, [r2, #0]
 8002934:	6019      	str	r1, [r3, #0]
 8002936:	7912      	ldrb	r2, [r2, #4]
 8002938:	711a      	strb	r2, [r3, #4]
 800293a:	e0a9      	b.n	8002a90 <page0draw.12+0x3d0>
		  else if 	(status[3] == '2' && status[4] == '4') {strcpy(message , "dt; Zero < 0");}
 800293c:	2284      	movs	r2, #132	@ 0x84
 800293e:	18bb      	adds	r3, r7, r2
 8002940:	78db      	ldrb	r3, [r3, #3]
 8002942:	2b32      	cmp	r3, #50	@ 0x32
 8002944:	d10b      	bne.n	800295e <page0draw.12+0x29e>
 8002946:	18bb      	adds	r3, r7, r2
 8002948:	791b      	ldrb	r3, [r3, #4]
 800294a:	2b34      	cmp	r3, #52	@ 0x34
 800294c:	d107      	bne.n	800295e <page0draw.12+0x29e>
 800294e:	2370      	movs	r3, #112	@ 0x70
 8002950:	18fb      	adds	r3, r7, r3
 8002952:	4a3d      	ldr	r2, [pc, #244]	@ (8002a48 <page0draw.12+0x388>)
 8002954:	ca23      	ldmia	r2!, {r0, r1, r5}
 8002956:	c323      	stmia	r3!, {r0, r1, r5}
 8002958:	7812      	ldrb	r2, [r2, #0]
 800295a:	701a      	strb	r2, [r3, #0]
 800295c:	e098      	b.n	8002a90 <page0draw.12+0x3d0>
		  else if 	(status[3] == '3' && status[4] == '0') {strcpy(message , "Ur or Us < min");}
 800295e:	2284      	movs	r2, #132	@ 0x84
 8002960:	18bb      	adds	r3, r7, r2
 8002962:	78db      	ldrb	r3, [r3, #3]
 8002964:	2b33      	cmp	r3, #51	@ 0x33
 8002966:	d10d      	bne.n	8002984 <page0draw.12+0x2c4>
 8002968:	18bb      	adds	r3, r7, r2
 800296a:	791b      	ldrb	r3, [r3, #4]
 800296c:	2b30      	cmp	r3, #48	@ 0x30
 800296e:	d109      	bne.n	8002984 <page0draw.12+0x2c4>
 8002970:	2370      	movs	r3, #112	@ 0x70
 8002972:	18fb      	adds	r3, r7, r3
 8002974:	4a35      	ldr	r2, [pc, #212]	@ (8002a4c <page0draw.12+0x38c>)
 8002976:	ca23      	ldmia	r2!, {r0, r1, r5}
 8002978:	c323      	stmia	r3!, {r0, r1, r5}
 800297a:	8811      	ldrh	r1, [r2, #0]
 800297c:	8019      	strh	r1, [r3, #0]
 800297e:	7892      	ldrb	r2, [r2, #2]
 8002980:	709a      	strb	r2, [r3, #2]
 8002982:	e085      	b.n	8002a90 <page0draw.12+0x3d0>
		  else if 	(status[3] == '3' && status[4] == '1') {strcpy(message , "Zero < 0");}
 8002984:	2284      	movs	r2, #132	@ 0x84
 8002986:	18bb      	adds	r3, r7, r2
 8002988:	78db      	ldrb	r3, [r3, #3]
 800298a:	2b33      	cmp	r3, #51	@ 0x33
 800298c:	d10b      	bne.n	80029a6 <page0draw.12+0x2e6>
 800298e:	18bb      	adds	r3, r7, r2
 8002990:	791b      	ldrb	r3, [r3, #4]
 8002992:	2b31      	cmp	r3, #49	@ 0x31
 8002994:	d107      	bne.n	80029a6 <page0draw.12+0x2e6>
 8002996:	2370      	movs	r3, #112	@ 0x70
 8002998:	18fb      	adds	r3, r7, r3
 800299a:	4a2d      	ldr	r2, [pc, #180]	@ (8002a50 <page0draw.12+0x390>)
 800299c:	ca03      	ldmia	r2!, {r0, r1}
 800299e:	c303      	stmia	r3!, {r0, r1}
 80029a0:	7812      	ldrb	r2, [r2, #0]
 80029a2:	701a      	strb	r2, [r3, #0]
 80029a4:	e074      	b.n	8002a90 <page0draw.12+0x3d0>
		  else if 	(status[3] == '4' && status[4] == '0') {strcpy(message , "temp not in range");}
 80029a6:	2284      	movs	r2, #132	@ 0x84
 80029a8:	18bb      	adds	r3, r7, r2
 80029aa:	78db      	ldrb	r3, [r3, #3]
 80029ac:	2b34      	cmp	r3, #52	@ 0x34
 80029ae:	d10d      	bne.n	80029cc <page0draw.12+0x30c>
 80029b0:	18bb      	adds	r3, r7, r2
 80029b2:	791b      	ldrb	r3, [r3, #4]
 80029b4:	2b30      	cmp	r3, #48	@ 0x30
 80029b6:	d109      	bne.n	80029cc <page0draw.12+0x30c>
 80029b8:	2370      	movs	r3, #112	@ 0x70
 80029ba:	18fb      	adds	r3, r7, r3
 80029bc:	4a25      	ldr	r2, [pc, #148]	@ (8002a54 <page0draw.12+0x394>)
 80029be:	ca23      	ldmia	r2!, {r0, r1, r5}
 80029c0:	c323      	stmia	r3!, {r0, r1, r5}
 80029c2:	6811      	ldr	r1, [r2, #0]
 80029c4:	6019      	str	r1, [r3, #0]
 80029c6:	8892      	ldrh	r2, [r2, #4]
 80029c8:	809a      	strh	r2, [r3, #4]
 80029ca:	e061      	b.n	8002a90 <page0draw.12+0x3d0>
		  else if 	(status[3] == '5' && status[4] == '0') {strcpy(message , "rapid val changes");}
 80029cc:	2284      	movs	r2, #132	@ 0x84
 80029ce:	18bb      	adds	r3, r7, r2
 80029d0:	78db      	ldrb	r3, [r3, #3]
 80029d2:	2b35      	cmp	r3, #53	@ 0x35
 80029d4:	d10d      	bne.n	80029f2 <page0draw.12+0x332>
 80029d6:	18bb      	adds	r3, r7, r2
 80029d8:	791b      	ldrb	r3, [r3, #4]
 80029da:	2b30      	cmp	r3, #48	@ 0x30
 80029dc:	d109      	bne.n	80029f2 <page0draw.12+0x332>
 80029de:	2370      	movs	r3, #112	@ 0x70
 80029e0:	18fb      	adds	r3, r7, r3
 80029e2:	4a1d      	ldr	r2, [pc, #116]	@ (8002a58 <page0draw.12+0x398>)
 80029e4:	ca23      	ldmia	r2!, {r0, r1, r5}
 80029e6:	c323      	stmia	r3!, {r0, r1, r5}
 80029e8:	6811      	ldr	r1, [r2, #0]
 80029ea:	6019      	str	r1, [r3, #0]
 80029ec:	8892      	ldrh	r2, [r2, #4]
 80029ee:	809a      	strh	r2, [r3, #4]
 80029f0:	e04e      	b.n	8002a90 <page0draw.12+0x3d0>
		  else if 	(status[3] == '5' && status[4] == '1') {strcpy(message , "hardware error");}
 80029f2:	2284      	movs	r2, #132	@ 0x84
 80029f4:	18bb      	adds	r3, r7, r2
 80029f6:	78db      	ldrb	r3, [r3, #3]
 80029f8:	2b35      	cmp	r3, #53	@ 0x35
 80029fa:	d131      	bne.n	8002a60 <page0draw.12+0x3a0>
 80029fc:	18bb      	adds	r3, r7, r2
 80029fe:	791b      	ldrb	r3, [r3, #4]
 8002a00:	2b31      	cmp	r3, #49	@ 0x31
 8002a02:	d12d      	bne.n	8002a60 <page0draw.12+0x3a0>
 8002a04:	2370      	movs	r3, #112	@ 0x70
 8002a06:	18fb      	adds	r3, r7, r3
 8002a08:	4a14      	ldr	r2, [pc, #80]	@ (8002a5c <page0draw.12+0x39c>)
 8002a0a:	ca23      	ldmia	r2!, {r0, r1, r5}
 8002a0c:	c323      	stmia	r3!, {r0, r1, r5}
 8002a0e:	8811      	ldrh	r1, [r2, #0]
 8002a10:	8019      	strh	r1, [r3, #0]
 8002a12:	7892      	ldrb	r2, [r2, #2]
 8002a14:	709a      	strb	r2, [r3, #2]
 8002a16:	e03b      	b.n	8002a90 <page0draw.12+0x3d0>
 8002a18:	2000017c 	.word	0x2000017c
 8002a1c:	48000800 	.word	0x48000800
 8002a20:	00000d46 	.word	0x00000d46
 8002a24:	200000e8 	.word	0x200000e8
 8002a28:	08007f80 	.word	0x08007f80
 8002a2c:	08007f90 	.word	0x08007f90
 8002a30:	08007f94 	.word	0x08007f94
 8002a34:	08007f9c 	.word	0x08007f9c
 8002a38:	08007fa0 	.word	0x08007fa0
 8002a3c:	08007fac 	.word	0x08007fac
 8002a40:	08007fbc 	.word	0x08007fbc
 8002a44:	08007fd0 	.word	0x08007fd0
 8002a48:	08007fe4 	.word	0x08007fe4
 8002a4c:	08007ff4 	.word	0x08007ff4
 8002a50:	08008004 	.word	0x08008004
 8002a54:	08008010 	.word	0x08008010
 8002a58:	08008024 	.word	0x08008024
 8002a5c:	08008038 	.word	0x08008038
		  else if 	(status[3] == '9' && status[4] == '0') {strcpy(message , "software error");}
 8002a60:	2284      	movs	r2, #132	@ 0x84
 8002a62:	18bb      	adds	r3, r7, r2
 8002a64:	78db      	ldrb	r3, [r3, #3]
 8002a66:	2b39      	cmp	r3, #57	@ 0x39
 8002a68:	d10d      	bne.n	8002a86 <page0draw.12+0x3c6>
 8002a6a:	18bb      	adds	r3, r7, r2
 8002a6c:	791b      	ldrb	r3, [r3, #4]
 8002a6e:	2b30      	cmp	r3, #48	@ 0x30
 8002a70:	d109      	bne.n	8002a86 <page0draw.12+0x3c6>
 8002a72:	2370      	movs	r3, #112	@ 0x70
 8002a74:	18fb      	adds	r3, r7, r3
 8002a76:	4a45      	ldr	r2, [pc, #276]	@ (8002b8c <page0draw.12+0x4cc>)
 8002a78:	ca23      	ldmia	r2!, {r0, r1, r5}
 8002a7a:	c323      	stmia	r3!, {r0, r1, r5}
 8002a7c:	8811      	ldrh	r1, [r2, #0]
 8002a7e:	8019      	strh	r1, [r3, #0]
 8002a80:	7892      	ldrb	r2, [r2, #2]
 8002a82:	709a      	strb	r2, [r3, #2]
 8002a84:	e004      	b.n	8002a90 <page0draw.12+0x3d0>
		  else 											   {strcpy(message , "unknown");}
 8002a86:	2370      	movs	r3, #112	@ 0x70
 8002a88:	18fb      	adds	r3, r7, r3
 8002a8a:	4a41      	ldr	r2, [pc, #260]	@ (8002b90 <page0draw.12+0x4d0>)
 8002a8c:	ca03      	ldmia	r2!, {r0, r1}
 8002a8e:	c303      	stmia	r3!, {r0, r1}
		  lcdPrint(0, 43, message, 1);
 8002a90:	2370      	movs	r3, #112	@ 0x70
 8002a92:	18fa      	adds	r2, r7, r3
 8002a94:	46a4      	mov	ip, r4
 8002a96:	2301      	movs	r3, #1
 8002a98:	212b      	movs	r1, #43	@ 0x2b
 8002a9a:	2000      	movs	r0, #0
 8002a9c:	f7ff faba 	bl	8002014 <lcdPrint.0>
		  char message2[10]={0};
 8002aa0:	2564      	movs	r5, #100	@ 0x64
 8002aa2:	197b      	adds	r3, r7, r5
 8002aa4:	2200      	movs	r2, #0
 8002aa6:	601a      	str	r2, [r3, #0]
 8002aa8:	3304      	adds	r3, #4
 8002aaa:	2206      	movs	r2, #6
 8002aac:	2100      	movs	r1, #0
 8002aae:	0018      	movs	r0, r3
 8002ab0:	f004 fd70 	bl	8007594 <memset>
		  if (status[2] == '1') {strcpy(message2 , "LowPWR");}
 8002ab4:	2384      	movs	r3, #132	@ 0x84
 8002ab6:	18fb      	adds	r3, r7, r3
 8002ab8:	789b      	ldrb	r3, [r3, #2]
 8002aba:	2b31      	cmp	r3, #49	@ 0x31
 8002abc:	d108      	bne.n	8002ad0 <page0draw.12+0x410>
 8002abe:	197b      	adds	r3, r7, r5
 8002ac0:	4a34      	ldr	r2, [pc, #208]	@ (8002b94 <page0draw.12+0x4d4>)
 8002ac2:	6811      	ldr	r1, [r2, #0]
 8002ac4:	6019      	str	r1, [r3, #0]
 8002ac6:	8891      	ldrh	r1, [r2, #4]
 8002ac8:	8099      	strh	r1, [r3, #4]
 8002aca:	7992      	ldrb	r2, [r2, #6]
 8002acc:	719a      	strb	r2, [r3, #6]
 8002ace:	e013      	b.n	8002af8 <page0draw.12+0x438>
		  else if (status[2] == '0') {strcpy(message2 , "      ");}
 8002ad0:	2384      	movs	r3, #132	@ 0x84
 8002ad2:	18fb      	adds	r3, r7, r3
 8002ad4:	789b      	ldrb	r3, [r3, #2]
 8002ad6:	2b30      	cmp	r3, #48	@ 0x30
 8002ad8:	d109      	bne.n	8002aee <page0draw.12+0x42e>
 8002ada:	2364      	movs	r3, #100	@ 0x64
 8002adc:	18fb      	adds	r3, r7, r3
 8002ade:	4a2e      	ldr	r2, [pc, #184]	@ (8002b98 <page0draw.12+0x4d8>)
 8002ae0:	6811      	ldr	r1, [r2, #0]
 8002ae2:	6019      	str	r1, [r3, #0]
 8002ae4:	8891      	ldrh	r1, [r2, #4]
 8002ae6:	8099      	strh	r1, [r3, #4]
 8002ae8:	7992      	ldrb	r2, [r2, #6]
 8002aea:	719a      	strb	r2, [r3, #6]
 8002aec:	e004      	b.n	8002af8 <page0draw.12+0x438>
		  else {strcpy(message2 , "unknown");}
 8002aee:	2364      	movs	r3, #100	@ 0x64
 8002af0:	18fb      	adds	r3, r7, r3
 8002af2:	4a27      	ldr	r2, [pc, #156]	@ (8002b90 <page0draw.12+0x4d0>)
 8002af4:	ca03      	ldmia	r2!, {r0, r1}
 8002af6:	c303      	stmia	r3!, {r0, r1}
		  lcdPrint(84, 33, message2, 1);
 8002af8:	2364      	movs	r3, #100	@ 0x64
 8002afa:	18fa      	adds	r2, r7, r3
 8002afc:	46a4      	mov	ip, r4
 8002afe:	2301      	movs	r3, #1
 8002b00:	2121      	movs	r1, #33	@ 0x21
 8002b02:	2054      	movs	r0, #84	@ 0x54
 8002b04:	f7ff fa86 	bl	8002014 <lcdPrint.0>
		  char Um[6]={0};  char Ur[6]={0};
 8002b08:	205c      	movs	r0, #92	@ 0x5c
 8002b0a:	183b      	adds	r3, r7, r0
 8002b0c:	2200      	movs	r2, #0
 8002b0e:	601a      	str	r2, [r3, #0]
 8002b10:	2200      	movs	r2, #0
 8002b12:	809a      	strh	r2, [r3, #4]
 8002b14:	2654      	movs	r6, #84	@ 0x54
 8002b16:	19bb      	adds	r3, r7, r6
 8002b18:	2200      	movs	r2, #0
 8002b1a:	601a      	str	r2, [r3, #0]
 8002b1c:	2200      	movs	r2, #0
 8002b1e:	809a      	strh	r2, [r3, #4]
		  strncpy(Um , &rx_buffer[19] , 5);
 8002b20:	2308      	movs	r3, #8
 8002b22:	18fb      	adds	r3, r7, r3
 8002b24:	0019      	movs	r1, r3
 8002b26:	3113      	adds	r1, #19
 8002b28:	0005      	movs	r5, r0
 8002b2a:	183b      	adds	r3, r7, r0
 8002b2c:	2205      	movs	r2, #5
 8002b2e:	0018      	movs	r0, r3
 8002b30:	f004 fd38 	bl	80075a4 <strncpy>
		  strncpy(Ur , &rx_buffer[13] , 5);
 8002b34:	2308      	movs	r3, #8
 8002b36:	18fb      	adds	r3, r7, r3
 8002b38:	330d      	adds	r3, #13
 8002b3a:	0019      	movs	r1, r3
 8002b3c:	19bb      	adds	r3, r7, r6
 8002b3e:	2205      	movs	r2, #5
 8002b40:	0018      	movs	r0, r3
 8002b42:	f004 fd2f 	bl	80075a4 <strncpy>
		  lcdPrint(0, 53, "Um:       Ur:", 1);
 8002b46:	4a15      	ldr	r2, [pc, #84]	@ (8002b9c <page0draw.12+0x4dc>)
 8002b48:	46a4      	mov	ip, r4
 8002b4a:	2301      	movs	r3, #1
 8002b4c:	2135      	movs	r1, #53	@ 0x35
 8002b4e:	2000      	movs	r0, #0
 8002b50:	f7ff fa60 	bl	8002014 <lcdPrint.0>
		  lcdPrint(21, 53, Um, 1);
 8002b54:	197a      	adds	r2, r7, r5
 8002b56:	46a4      	mov	ip, r4
 8002b58:	2301      	movs	r3, #1
 8002b5a:	2135      	movs	r1, #53	@ 0x35
 8002b5c:	2015      	movs	r0, #21
 8002b5e:	f7ff fa59 	bl	8002014 <lcdPrint.0>
		  lcdPrint(91, 53, Ur, 1);
 8002b62:	19ba      	adds	r2, r7, r6
 8002b64:	46a4      	mov	ip, r4
 8002b66:	2301      	movs	r3, #1
 8002b68:	2135      	movs	r1, #53	@ 0x35
 8002b6a:	205b      	movs	r0, #91	@ 0x5b
 8002b6c:	f7ff fa52 	bl	8002014 <lcdPrint.0>
		  HAL_GPIO_WritePin(GPIOC, GPIO_PIN_13, SET);
 8002b70:	2380      	movs	r3, #128	@ 0x80
 8002b72:	019b      	lsls	r3, r3, #6
 8002b74:	480a      	ldr	r0, [pc, #40]	@ (8002ba0 <page0draw.12+0x4e0>)
 8002b76:	2201      	movs	r2, #1
 8002b78:	0019      	movs	r1, r3
 8002b7a:	f002 fc34 	bl	80053e6 <HAL_GPIO_WritePin>
		  SSD1306_UpdateScreen();
 8002b7e:	f001 fc6d 	bl	800445c <SSD1306_UpdateScreen>
}
 8002b82:	46c0      	nop			@ (mov r8, r8)
 8002b84:	46bd      	mov	sp, r7
 8002b86:	b02d      	add	sp, #180	@ 0xb4
 8002b88:	bdf0      	pop	{r4, r5, r6, r7, pc}
 8002b8a:	46c0      	nop			@ (mov r8, r8)
 8002b8c:	08008048 	.word	0x08008048
 8002b90:	08008058 	.word	0x08008058
 8002b94:	08008060 	.word	0x08008060
 8002b98:	08008068 	.word	0x08008068
 8002b9c:	08008070 	.word	0x08008070
 8002ba0:	48000800 	.word	0x48000800

08002ba4 <pageMenuDraw.13>:
void pageMenuDraw(void){//menu
 8002ba4:	b590      	push	{r4, r7, lr}
 8002ba6:	b083      	sub	sp, #12
 8002ba8:	af00      	add	r7, sp, #0
 8002baa:	4664      	mov	r4, ip
 8002bac:	4663      	mov	r3, ip
 8002bae:	607b      	str	r3, [r7, #4]
	HAL_GPIO_WritePin(GPIOC, GPIO_PIN_13, RESET);
 8002bb0:	2380      	movs	r3, #128	@ 0x80
 8002bb2:	019b      	lsls	r3, r3, #6
 8002bb4:	482c      	ldr	r0, [pc, #176]	@ (8002c68 <pageMenuDraw.13+0xc4>)
 8002bb6:	2200      	movs	r2, #0
 8002bb8:	0019      	movs	r1, r3
 8002bba:	f002 fc14 	bl	80053e6 <HAL_GPIO_WritePin>
	lcdPrint(0, 0,  " calibration CH4", 1);
 8002bbe:	4a2b      	ldr	r2, [pc, #172]	@ (8002c6c <pageMenuDraw.13+0xc8>)
 8002bc0:	46a4      	mov	ip, r4
 8002bc2:	2301      	movs	r3, #1
 8002bc4:	2100      	movs	r1, #0
 8002bc6:	2000      	movs	r0, #0
 8002bc8:	f7ff fa24 	bl	8002014 <lcdPrint.0>
	lcdPrint(0, 10, " settings", 1);
 8002bcc:	4a28      	ldr	r2, [pc, #160]	@ (8002c70 <pageMenuDraw.13+0xcc>)
 8002bce:	46a4      	mov	ip, r4
 8002bd0:	2301      	movs	r3, #1
 8002bd2:	210a      	movs	r1, #10
 8002bd4:	2000      	movs	r0, #0
 8002bd6:	f7ff fa1d 	bl	8002014 <lcdPrint.0>
	lcdPrint(0, 20, " parameters", 1);
 8002bda:	4a26      	ldr	r2, [pc, #152]	@ (8002c74 <pageMenuDraw.13+0xd0>)
 8002bdc:	46a4      	mov	ip, r4
 8002bde:	2301      	movs	r3, #1
 8002be0:	2114      	movs	r1, #20
 8002be2:	2000      	movs	r0, #0
 8002be4:	f7ff fa16 	bl	8002014 <lcdPrint.0>
	lcdPrint(0, 50, " Exit", 1);
 8002be8:	4a23      	ldr	r2, [pc, #140]	@ (8002c78 <pageMenuDraw.13+0xd4>)
 8002bea:	46a4      	mov	ip, r4
 8002bec:	2301      	movs	r3, #1
 8002bee:	2132      	movs	r1, #50	@ 0x32
 8002bf0:	2000      	movs	r0, #0
 8002bf2:	f7ff fa0f 	bl	8002014 <lcdPrint.0>
	if (selected == 1){lcdPrint(0, 0,  "-", 1);};
 8002bf6:	4b21      	ldr	r3, [pc, #132]	@ (8002c7c <pageMenuDraw.13+0xd8>)
 8002bf8:	781b      	ldrb	r3, [r3, #0]
 8002bfa:	2b01      	cmp	r3, #1
 8002bfc:	d106      	bne.n	8002c0c <pageMenuDraw.13+0x68>
 8002bfe:	4a20      	ldr	r2, [pc, #128]	@ (8002c80 <pageMenuDraw.13+0xdc>)
 8002c00:	46a4      	mov	ip, r4
 8002c02:	2301      	movs	r3, #1
 8002c04:	2100      	movs	r1, #0
 8002c06:	2000      	movs	r0, #0
 8002c08:	f7ff fa04 	bl	8002014 <lcdPrint.0>
	if (selected == 2){lcdPrint(0, 10, "-", 1);};
 8002c0c:	4b1b      	ldr	r3, [pc, #108]	@ (8002c7c <pageMenuDraw.13+0xd8>)
 8002c0e:	781b      	ldrb	r3, [r3, #0]
 8002c10:	2b02      	cmp	r3, #2
 8002c12:	d106      	bne.n	8002c22 <pageMenuDraw.13+0x7e>
 8002c14:	4a1a      	ldr	r2, [pc, #104]	@ (8002c80 <pageMenuDraw.13+0xdc>)
 8002c16:	46a4      	mov	ip, r4
 8002c18:	2301      	movs	r3, #1
 8002c1a:	210a      	movs	r1, #10
 8002c1c:	2000      	movs	r0, #0
 8002c1e:	f7ff f9f9 	bl	8002014 <lcdPrint.0>
	if (selected == 3){lcdPrint(0, 20, "-", 1);};
 8002c22:	4b16      	ldr	r3, [pc, #88]	@ (8002c7c <pageMenuDraw.13+0xd8>)
 8002c24:	781b      	ldrb	r3, [r3, #0]
 8002c26:	2b03      	cmp	r3, #3
 8002c28:	d106      	bne.n	8002c38 <pageMenuDraw.13+0x94>
 8002c2a:	4a15      	ldr	r2, [pc, #84]	@ (8002c80 <pageMenuDraw.13+0xdc>)
 8002c2c:	46a4      	mov	ip, r4
 8002c2e:	2301      	movs	r3, #1
 8002c30:	2114      	movs	r1, #20
 8002c32:	2000      	movs	r0, #0
 8002c34:	f7ff f9ee 	bl	8002014 <lcdPrint.0>
	if (selected == 0){lcdPrint(0, 50, "-", 1);};
 8002c38:	4b10      	ldr	r3, [pc, #64]	@ (8002c7c <pageMenuDraw.13+0xd8>)
 8002c3a:	781b      	ldrb	r3, [r3, #0]
 8002c3c:	2b00      	cmp	r3, #0
 8002c3e:	d106      	bne.n	8002c4e <pageMenuDraw.13+0xaa>
 8002c40:	4a0f      	ldr	r2, [pc, #60]	@ (8002c80 <pageMenuDraw.13+0xdc>)
 8002c42:	46a4      	mov	ip, r4
 8002c44:	2301      	movs	r3, #1
 8002c46:	2132      	movs	r1, #50	@ 0x32
 8002c48:	2000      	movs	r0, #0
 8002c4a:	f7ff f9e3 	bl	8002014 <lcdPrint.0>
	SSD1306_UpdateScreen();
 8002c4e:	f001 fc05 	bl	800445c <SSD1306_UpdateScreen>
	HAL_GPIO_WritePin(GPIOC, GPIO_PIN_13, SET);
 8002c52:	2380      	movs	r3, #128	@ 0x80
 8002c54:	019b      	lsls	r3, r3, #6
 8002c56:	4804      	ldr	r0, [pc, #16]	@ (8002c68 <pageMenuDraw.13+0xc4>)
 8002c58:	2201      	movs	r2, #1
 8002c5a:	0019      	movs	r1, r3
 8002c5c:	f002 fbc3 	bl	80053e6 <HAL_GPIO_WritePin>
}
 8002c60:	46c0      	nop			@ (mov r8, r8)
 8002c62:	46bd      	mov	sp, r7
 8002c64:	b003      	add	sp, #12
 8002c66:	bd90      	pop	{r4, r7, pc}
 8002c68:	48000800 	.word	0x48000800
 8002c6c:	08008080 	.word	0x08008080
 8002c70:	08008094 	.word	0x08008094
 8002c74:	080080a0 	.word	0x080080a0
 8002c78:	080080ac 	.word	0x080080ac
 8002c7c:	20000179 	.word	0x20000179
 8002c80:	080080b4 	.word	0x080080b4

08002c84 <pageCalibrationDraw.14>:
void pageCalibrationDraw(void){//calibration
 8002c84:	b5f0      	push	{r4, r5, r6, r7, lr}
 8002c86:	b093      	sub	sp, #76	@ 0x4c
 8002c88:	af02      	add	r7, sp, #8
 8002c8a:	4664      	mov	r4, ip
 8002c8c:	4663      	mov	r3, ip
 8002c8e:	607b      	str	r3, [r7, #4]
	lcdPrint(57, 0, " Help",   1);	if (selected == 1) {lcdPrint(57, 0, "-", 1);};
 8002c90:	4ac3      	ldr	r2, [pc, #780]	@ (8002fa0 <pageCalibrationDraw.14+0x31c>)
 8002c92:	46a4      	mov	ip, r4
 8002c94:	2301      	movs	r3, #1
 8002c96:	2100      	movs	r1, #0
 8002c98:	2039      	movs	r0, #57	@ 0x39
 8002c9a:	f7ff f9bb 	bl	8002014 <lcdPrint.0>
 8002c9e:	4bc1      	ldr	r3, [pc, #772]	@ (8002fa4 <pageCalibrationDraw.14+0x320>)
 8002ca0:	781b      	ldrb	r3, [r3, #0]
 8002ca2:	2b01      	cmp	r3, #1
 8002ca4:	d106      	bne.n	8002cb4 <pageCalibrationDraw.14+0x30>
 8002ca6:	4ac0      	ldr	r2, [pc, #768]	@ (8002fa8 <pageCalibrationDraw.14+0x324>)
 8002ca8:	46a4      	mov	ip, r4
 8002caa:	2301      	movs	r3, #1
 8002cac:	2100      	movs	r1, #0
 8002cae:	2039      	movs	r0, #57	@ 0x39
 8002cb0:	f7ff f9b0 	bl	8002014 <lcdPrint.0>
	lcdPrint(0, 0, " Zero  ",  1);	if (selected == 2) {lcdPrint(0, 0, "-", 1);};
 8002cb4:	4abd      	ldr	r2, [pc, #756]	@ (8002fac <pageCalibrationDraw.14+0x328>)
 8002cb6:	46a4      	mov	ip, r4
 8002cb8:	2301      	movs	r3, #1
 8002cba:	2100      	movs	r1, #0
 8002cbc:	2000      	movs	r0, #0
 8002cbe:	f7ff f9a9 	bl	8002014 <lcdPrint.0>
 8002cc2:	4bb8      	ldr	r3, [pc, #736]	@ (8002fa4 <pageCalibrationDraw.14+0x320>)
 8002cc4:	781b      	ldrb	r3, [r3, #0]
 8002cc6:	2b02      	cmp	r3, #2
 8002cc8:	d106      	bne.n	8002cd8 <pageCalibrationDraw.14+0x54>
 8002cca:	4ab7      	ldr	r2, [pc, #732]	@ (8002fa8 <pageCalibrationDraw.14+0x324>)
 8002ccc:	46a4      	mov	ip, r4
 8002cce:	2301      	movs	r3, #1
 8002cd0:	2100      	movs	r1, #0
 8002cd2:	2000      	movs	r0, #0
 8002cd4:	f7ff f99e 	bl	8002014 <lcdPrint.0>
	lcdPrint(0, 10, " Set 50", 1);	if (selected == 3) {lcdPrint(0, 10, "-", 1);};
 8002cd8:	4ab5      	ldr	r2, [pc, #724]	@ (8002fb0 <pageCalibrationDraw.14+0x32c>)
 8002cda:	46a4      	mov	ip, r4
 8002cdc:	2301      	movs	r3, #1
 8002cde:	210a      	movs	r1, #10
 8002ce0:	2000      	movs	r0, #0
 8002ce2:	f7ff f997 	bl	8002014 <lcdPrint.0>
 8002ce6:	4baf      	ldr	r3, [pc, #700]	@ (8002fa4 <pageCalibrationDraw.14+0x320>)
 8002ce8:	781b      	ldrb	r3, [r3, #0]
 8002cea:	2b03      	cmp	r3, #3
 8002cec:	d106      	bne.n	8002cfc <pageCalibrationDraw.14+0x78>
 8002cee:	4aae      	ldr	r2, [pc, #696]	@ (8002fa8 <pageCalibrationDraw.14+0x324>)
 8002cf0:	46a4      	mov	ip, r4
 8002cf2:	2301      	movs	r3, #1
 8002cf4:	210a      	movs	r1, #10
 8002cf6:	2000      	movs	r0, #0
 8002cf8:	f7ff f98c 	bl	8002014 <lcdPrint.0>
	lcdPrint(0, 22, " Zero0 ",  1);	if (selected == 4) {lcdPrint(0, 22, "-", 1);};
 8002cfc:	4aad      	ldr	r2, [pc, #692]	@ (8002fb4 <pageCalibrationDraw.14+0x330>)
 8002cfe:	46a4      	mov	ip, r4
 8002d00:	2301      	movs	r3, #1
 8002d02:	2116      	movs	r1, #22
 8002d04:	2000      	movs	r0, #0
 8002d06:	f7ff f985 	bl	8002014 <lcdPrint.0>
 8002d0a:	4ba6      	ldr	r3, [pc, #664]	@ (8002fa4 <pageCalibrationDraw.14+0x320>)
 8002d0c:	781b      	ldrb	r3, [r3, #0]
 8002d0e:	2b04      	cmp	r3, #4
 8002d10:	d106      	bne.n	8002d20 <pageCalibrationDraw.14+0x9c>
 8002d12:	4aa5      	ldr	r2, [pc, #660]	@ (8002fa8 <pageCalibrationDraw.14+0x324>)
 8002d14:	46a4      	mov	ip, r4
 8002d16:	2301      	movs	r3, #1
 8002d18:	2116      	movs	r1, #22
 8002d1a:	2000      	movs	r0, #0
 8002d1c:	f7ff f97a 	bl	8002014 <lcdPrint.0>
	lcdPrint(0, 32, " Init  ",  1);	if (selected == 5) {lcdPrint(0, 32, "-", 1);};
 8002d20:	4aa5      	ldr	r2, [pc, #660]	@ (8002fb8 <pageCalibrationDraw.14+0x334>)
 8002d22:	46a4      	mov	ip, r4
 8002d24:	2301      	movs	r3, #1
 8002d26:	2120      	movs	r1, #32
 8002d28:	2000      	movs	r0, #0
 8002d2a:	f7ff f973 	bl	8002014 <lcdPrint.0>
 8002d2e:	4b9d      	ldr	r3, [pc, #628]	@ (8002fa4 <pageCalibrationDraw.14+0x320>)
 8002d30:	781b      	ldrb	r3, [r3, #0]
 8002d32:	2b05      	cmp	r3, #5
 8002d34:	d106      	bne.n	8002d44 <pageCalibrationDraw.14+0xc0>
 8002d36:	4a9c      	ldr	r2, [pc, #624]	@ (8002fa8 <pageCalibrationDraw.14+0x324>)
 8002d38:	46a4      	mov	ip, r4
 8002d3a:	2301      	movs	r3, #1
 8002d3c:	2120      	movs	r1, #32
 8002d3e:	2000      	movs	r0, #0
 8002d40:	f7ff f968 	bl	8002014 <lcdPrint.0>
	lcdPrint(0, 42, " Zero2 ",  1);	if (selected == 6) {lcdPrint(0, 42, "-", 1);};
 8002d44:	4a9d      	ldr	r2, [pc, #628]	@ (8002fbc <pageCalibrationDraw.14+0x338>)
 8002d46:	46a4      	mov	ip, r4
 8002d48:	2301      	movs	r3, #1
 8002d4a:	212a      	movs	r1, #42	@ 0x2a
 8002d4c:	2000      	movs	r0, #0
 8002d4e:	f7ff f961 	bl	8002014 <lcdPrint.0>
 8002d52:	4b94      	ldr	r3, [pc, #592]	@ (8002fa4 <pageCalibrationDraw.14+0x320>)
 8002d54:	781b      	ldrb	r3, [r3, #0]
 8002d56:	2b06      	cmp	r3, #6
 8002d58:	d106      	bne.n	8002d68 <pageCalibrationDraw.14+0xe4>
 8002d5a:	4a93      	ldr	r2, [pc, #588]	@ (8002fa8 <pageCalibrationDraw.14+0x324>)
 8002d5c:	46a4      	mov	ip, r4
 8002d5e:	2301      	movs	r3, #1
 8002d60:	212a      	movs	r1, #42	@ 0x2a
 8002d62:	2000      	movs	r0, #0
 8002d64:	f7ff f956 	bl	8002014 <lcdPrint.0>
	lcdPrint(0, 53, " Exit",   1);	if (selected == 0) {lcdPrint(0, 53, "-", 1);};
 8002d68:	4a95      	ldr	r2, [pc, #596]	@ (8002fc0 <pageCalibrationDraw.14+0x33c>)
 8002d6a:	46a4      	mov	ip, r4
 8002d6c:	2301      	movs	r3, #1
 8002d6e:	2135      	movs	r1, #53	@ 0x35
 8002d70:	2000      	movs	r0, #0
 8002d72:	f7ff f94f 	bl	8002014 <lcdPrint.0>
 8002d76:	4b8b      	ldr	r3, [pc, #556]	@ (8002fa4 <pageCalibrationDraw.14+0x320>)
 8002d78:	781b      	ldrb	r3, [r3, #0]
 8002d7a:	2b00      	cmp	r3, #0
 8002d7c:	d106      	bne.n	8002d8c <pageCalibrationDraw.14+0x108>
 8002d7e:	4a8a      	ldr	r2, [pc, #552]	@ (8002fa8 <pageCalibrationDraw.14+0x324>)
 8002d80:	46a4      	mov	ip, r4
 8002d82:	2301      	movs	r3, #1
 8002d84:	2135      	movs	r1, #53	@ 0x35
 8002d86:	2000      	movs	r0, #0
 8002d88:	f7ff f944 	bl	8002014 <lcdPrint.0>
	if (HAL_GetTick()-lastPing > 1100){
 8002d8c:	f002 f8bc 	bl	8004f08 <HAL_GetTick>
 8002d90:	0002      	movs	r2, r0
 8002d92:	4b8c      	ldr	r3, [pc, #560]	@ (8002fc4 <pageCalibrationDraw.14+0x340>)
 8002d94:	681b      	ldr	r3, [r3, #0]
 8002d96:	1ad3      	subs	r3, r2, r3
 8002d98:	4a8b      	ldr	r2, [pc, #556]	@ (8002fc8 <pageCalibrationDraw.14+0x344>)
 8002d9a:	4293      	cmp	r3, r2
 8002d9c:	d800      	bhi.n	8002da0 <pageCalibrationDraw.14+0x11c>
 8002d9e:	e0d1      	b.n	8002f44 <pageCalibrationDraw.14+0x2c0>
		HAL_GPIO_WritePin(GPIOC, GPIO_PIN_13, RESET);
 8002da0:	2380      	movs	r3, #128	@ 0x80
 8002da2:	019b      	lsls	r3, r3, #6
 8002da4:	4889      	ldr	r0, [pc, #548]	@ (8002fcc <pageCalibrationDraw.14+0x348>)
 8002da6:	2200      	movs	r2, #0
 8002da8:	0019      	movs	r1, r3
 8002daa:	f002 fb1c 	bl	80053e6 <HAL_GPIO_WritePin>
		MX_USART2_UART_Init(); uint8_t msg[] = "CCS\r"; uint8_t rx_bufferA[19] = {0};
 8002dae:	f001 f9c7 	bl	8004140 <MX_USART2_UART_Init>
 8002db2:	2638      	movs	r6, #56	@ 0x38
 8002db4:	19bb      	adds	r3, r7, r6
 8002db6:	4a86      	ldr	r2, [pc, #536]	@ (8002fd0 <pageCalibrationDraw.14+0x34c>)
 8002db8:	6811      	ldr	r1, [r2, #0]
 8002dba:	6019      	str	r1, [r3, #0]
 8002dbc:	7912      	ldrb	r2, [r2, #4]
 8002dbe:	711a      	strb	r2, [r3, #4]
 8002dc0:	2524      	movs	r5, #36	@ 0x24
 8002dc2:	197b      	adds	r3, r7, r5
 8002dc4:	2200      	movs	r2, #0
 8002dc6:	601a      	str	r2, [r3, #0]
 8002dc8:	3304      	adds	r3, #4
 8002dca:	220f      	movs	r2, #15
 8002dcc:	2100      	movs	r1, #0
 8002dce:	0018      	movs	r0, r3
 8002dd0:	f004 fbe0 	bl	8007594 <memset>
		HAL_UART_Transmit(&huart2, msg, sizeof(msg), 50);
 8002dd4:	19b9      	adds	r1, r7, r6
 8002dd6:	487f      	ldr	r0, [pc, #508]	@ (8002fd4 <pageCalibrationDraw.14+0x350>)
 8002dd8:	2332      	movs	r3, #50	@ 0x32
 8002dda:	2205      	movs	r2, #5
 8002ddc:	f003 fe3a 	bl	8006a54 <HAL_UART_Transmit>
		HAL_UART_Receive(&huart2, rx_bufferA, 18, 50);
 8002de0:	1979      	adds	r1, r7, r5
 8002de2:	487c      	ldr	r0, [pc, #496]	@ (8002fd4 <pageCalibrationDraw.14+0x350>)
 8002de4:	2332      	movs	r3, #50	@ 0x32
 8002de6:	2212      	movs	r2, #18
 8002de8:	f003 fed4 	bl	8006b94 <HAL_UART_Receive>
		lastPing = HAL_GetTick();
 8002dec:	f002 f88c 	bl	8004f08 <HAL_GetTick>
 8002df0:	0002      	movs	r2, r0
 8002df2:	4b74      	ldr	r3, [pc, #464]	@ (8002fc4 <pageCalibrationDraw.14+0x340>)
 8002df4:	601a      	str	r2, [r3, #0]
		if (rx_bufferA[17] != 0x0D) {memset(rx_bufferA, 0x20, sizeof(rx_bufferA)/sizeof(rx_bufferA[0]));}
 8002df6:	197b      	adds	r3, r7, r5
 8002df8:	7c5b      	ldrb	r3, [r3, #17]
 8002dfa:	2b0d      	cmp	r3, #13
 8002dfc:	d005      	beq.n	8002e0a <pageCalibrationDraw.14+0x186>
 8002dfe:	197b      	adds	r3, r7, r5
 8002e00:	2213      	movs	r2, #19
 8002e02:	2120      	movs	r1, #32
 8002e04:	0018      	movs	r0, r3
 8002e06:	f004 fbc5 	bl	8007594 <memset>
		HAL_GPIO_WritePin(GPIOC, GPIO_PIN_13, SET);
 8002e0a:	2380      	movs	r3, #128	@ 0x80
 8002e0c:	019b      	lsls	r3, r3, #6
 8002e0e:	486f      	ldr	r0, [pc, #444]	@ (8002fcc <pageCalibrationDraw.14+0x348>)
 8002e10:	2201      	movs	r2, #1
 8002e12:	0019      	movs	r1, r3
 8002e14:	f002 fae7 	bl	80053e6 <HAL_GPIO_WritePin>
		char C1[6]; 	strncpy(C1, &rx_bufferA[0] , 5); 	lcdPrint(71, 33, "C1:", 1);		 lcdPrint(92, 33, C1, 1);
 8002e18:	2524      	movs	r5, #36	@ 0x24
 8002e1a:	1979      	adds	r1, r7, r5
 8002e1c:	261c      	movs	r6, #28
 8002e1e:	19bb      	adds	r3, r7, r6
 8002e20:	2205      	movs	r2, #5
 8002e22:	0018      	movs	r0, r3
 8002e24:	f004 fbbe 	bl	80075a4 <strncpy>
 8002e28:	4a6b      	ldr	r2, [pc, #428]	@ (8002fd8 <pageCalibrationDraw.14+0x354>)
 8002e2a:	46a4      	mov	ip, r4
 8002e2c:	2301      	movs	r3, #1
 8002e2e:	2121      	movs	r1, #33	@ 0x21
 8002e30:	2047      	movs	r0, #71	@ 0x47
 8002e32:	f7ff f8ef 	bl	8002014 <lcdPrint.0>
 8002e36:	19ba      	adds	r2, r7, r6
 8002e38:	46a4      	mov	ip, r4
 8002e3a:	2301      	movs	r3, #1
 8002e3c:	2121      	movs	r1, #33	@ 0x21
 8002e3e:	205c      	movs	r0, #92	@ 0x5c
 8002e40:	f7ff f8e8 	bl	8002014 <lcdPrint.0>
		char Temp[6]; 	strncpy(Temp, &rx_bufferA[6] , 5);	lcdPrint(57, 43, "Temp:", 1);	 lcdPrint(92, 43, Temp, 1);
 8002e44:	197b      	adds	r3, r7, r5
 8002e46:	1d99      	adds	r1, r3, #6
 8002e48:	2314      	movs	r3, #20
 8002e4a:	18fb      	adds	r3, r7, r3
 8002e4c:	2205      	movs	r2, #5
 8002e4e:	0018      	movs	r0, r3
 8002e50:	f004 fba8 	bl	80075a4 <strncpy>
 8002e54:	4a61      	ldr	r2, [pc, #388]	@ (8002fdc <pageCalibrationDraw.14+0x358>)
 8002e56:	46a4      	mov	ip, r4
 8002e58:	2301      	movs	r3, #1
 8002e5a:	212b      	movs	r1, #43	@ 0x2b
 8002e5c:	2039      	movs	r0, #57	@ 0x39
 8002e5e:	f7ff f8d9 	bl	8002014 <lcdPrint.0>
 8002e62:	2314      	movs	r3, #20
 8002e64:	18fa      	adds	r2, r7, r3
 8002e66:	46a4      	mov	ip, r4
 8002e68:	2301      	movs	r3, #1
 8002e6a:	212b      	movs	r1, #43	@ 0x2b
 8002e6c:	205c      	movs	r0, #92	@ 0x5c
 8002e6e:	f7ff f8d1 	bl	8002014 <lcdPrint.0>
		char Stat[6]; 	strncpy(Stat, &rx_bufferA[12] , 5);	lcdPrint(57, 53, "Stat:", 1);	 lcdPrint(92, 53, Stat, 1);
 8002e72:	197b      	adds	r3, r7, r5
 8002e74:	330c      	adds	r3, #12
 8002e76:	0019      	movs	r1, r3
 8002e78:	250c      	movs	r5, #12
 8002e7a:	197b      	adds	r3, r7, r5
 8002e7c:	2205      	movs	r2, #5
 8002e7e:	0018      	movs	r0, r3
 8002e80:	f004 fb90 	bl	80075a4 <strncpy>
 8002e84:	4a56      	ldr	r2, [pc, #344]	@ (8002fe0 <pageCalibrationDraw.14+0x35c>)
 8002e86:	46a4      	mov	ip, r4
 8002e88:	2301      	movs	r3, #1
 8002e8a:	2135      	movs	r1, #53	@ 0x35
 8002e8c:	2039      	movs	r0, #57	@ 0x39
 8002e8e:	f7ff f8c1 	bl	8002014 <lcdPrint.0>
 8002e92:	197a      	adds	r2, r7, r5
 8002e94:	46a4      	mov	ip, r4
 8002e96:	2301      	movs	r3, #1
 8002e98:	2135      	movs	r1, #53	@ 0x35
 8002e9a:	205c      	movs	r0, #92	@ 0x5c
 8002e9c:	f7ff f8ba 	bl	8002014 <lcdPrint.0>
		uint16_t NKPR = atoi(C1); NKPR = round(NKPR/4.4); if(NKPR>999){NKPR=999;} if(C1[0]==0x2D){NKPR=0;}
 8002ea0:	19bb      	adds	r3, r7, r6
 8002ea2:	0018      	movs	r0, r3
 8002ea4:	f004 faba 	bl	800741c <atoi>
 8002ea8:	0002      	movs	r2, r0
 8002eaa:	253e      	movs	r5, #62	@ 0x3e
 8002eac:	197b      	adds	r3, r7, r5
 8002eae:	801a      	strh	r2, [r3, #0]
 8002eb0:	197b      	adds	r3, r7, r5
 8002eb2:	881b      	ldrh	r3, [r3, #0]
 8002eb4:	0018      	movs	r0, r3
 8002eb6:	f7fe fef9 	bl	8001cac <__aeabi_i2d>
 8002eba:	4a4a      	ldr	r2, [pc, #296]	@ (8002fe4 <pageCalibrationDraw.14+0x360>)
 8002ebc:	4b4a      	ldr	r3, [pc, #296]	@ (8002fe8 <pageCalibrationDraw.14+0x364>)
 8002ebe:	f7fd fd3b 	bl	8000938 <__aeabi_ddiv>
 8002ec2:	0002      	movs	r2, r0
 8002ec4:	000b      	movs	r3, r1
 8002ec6:	0010      	movs	r0, r2
 8002ec8:	0019      	movs	r1, r3
 8002eca:	f004 fff5 	bl	8007eb8 <round>
 8002ece:	0002      	movs	r2, r0
 8002ed0:	000b      	movs	r3, r1
 8002ed2:	002e      	movs	r6, r5
 8002ed4:	197d      	adds	r5, r7, r5
 8002ed6:	0010      	movs	r0, r2
 8002ed8:	0019      	movs	r1, r3
 8002eda:	f7fd f9ab 	bl	8000234 <__aeabi_d2uiz>
 8002ede:	0003      	movs	r3, r0
 8002ee0:	802b      	strh	r3, [r5, #0]
 8002ee2:	0035      	movs	r5, r6
 8002ee4:	197b      	adds	r3, r7, r5
 8002ee6:	881a      	ldrh	r2, [r3, #0]
 8002ee8:	23fa      	movs	r3, #250	@ 0xfa
 8002eea:	009b      	lsls	r3, r3, #2
 8002eec:	429a      	cmp	r2, r3
 8002eee:	d302      	bcc.n	8002ef6 <pageCalibrationDraw.14+0x272>
 8002ef0:	197b      	adds	r3, r7, r5
 8002ef2:	4a3e      	ldr	r2, [pc, #248]	@ (8002fec <pageCalibrationDraw.14+0x368>)
 8002ef4:	801a      	strh	r2, [r3, #0]
 8002ef6:	231c      	movs	r3, #28
 8002ef8:	18fb      	adds	r3, r7, r3
 8002efa:	781b      	ldrb	r3, [r3, #0]
 8002efc:	2b2d      	cmp	r3, #45	@ 0x2d
 8002efe:	d103      	bne.n	8002f08 <pageCalibrationDraw.14+0x284>
 8002f00:	233e      	movs	r3, #62	@ 0x3e
 8002f02:	18fb      	adds	r3, r7, r3
 8002f04:	2200      	movs	r2, #0
 8002f06:	801a      	strh	r2, [r3, #0]
		char NKPRchar[3];	lcdPrint(92, 12, "   ", 2);	sprintf (NKPRchar, "%d", NKPR);
 8002f08:	4a39      	ldr	r2, [pc, #228]	@ (8002ff0 <pageCalibrationDraw.14+0x36c>)
 8002f0a:	46a4      	mov	ip, r4
 8002f0c:	2302      	movs	r3, #2
 8002f0e:	210c      	movs	r1, #12
 8002f10:	205c      	movs	r0, #92	@ 0x5c
 8002f12:	f7ff f87f 	bl	8002014 <lcdPrint.0>
 8002f16:	233e      	movs	r3, #62	@ 0x3e
 8002f18:	18fb      	adds	r3, r7, r3
 8002f1a:	881a      	ldrh	r2, [r3, #0]
 8002f1c:	4935      	ldr	r1, [pc, #212]	@ (8002ff4 <pageCalibrationDraw.14+0x370>)
 8002f1e:	2508      	movs	r5, #8
 8002f20:	197b      	adds	r3, r7, r5
 8002f22:	0018      	movs	r0, r3
 8002f24:	f004 fb16 	bl	8007554 <siprintf>
		lcdPrint(57, 20, "NKPR:", 1);	lcdPrint(92, 12, NKPRchar, 2);
 8002f28:	4a33      	ldr	r2, [pc, #204]	@ (8002ff8 <pageCalibrationDraw.14+0x374>)
 8002f2a:	46a4      	mov	ip, r4
 8002f2c:	2301      	movs	r3, #1
 8002f2e:	2114      	movs	r1, #20
 8002f30:	2039      	movs	r0, #57	@ 0x39
 8002f32:	f7ff f86f 	bl	8002014 <lcdPrint.0>
 8002f36:	197a      	adds	r2, r7, r5
 8002f38:	46a4      	mov	ip, r4
 8002f3a:	2302      	movs	r3, #2
 8002f3c:	210c      	movs	r1, #12
 8002f3e:	205c      	movs	r0, #92	@ 0x5c
 8002f40:	f7ff f868 	bl	8002014 <lcdPrint.0>
	SSD1306_DrawLine(0, 20, 55, 20, 1); SSD1306_DrawLine(0, 52, 55, 52, 1); SSD1306_DrawLine(55, 10, 128, 10, 1);	SSD1306_DrawLine(55, 0, 55, 64, 1);	SSD1306_DrawLine(55, 30, 128, 30, 1);
 8002f44:	2301      	movs	r3, #1
 8002f46:	9300      	str	r3, [sp, #0]
 8002f48:	2314      	movs	r3, #20
 8002f4a:	2237      	movs	r2, #55	@ 0x37
 8002f4c:	2114      	movs	r1, #20
 8002f4e:	2000      	movs	r0, #0
 8002f50:	f001 fc00 	bl	8004754 <SSD1306_DrawLine>
 8002f54:	2301      	movs	r3, #1
 8002f56:	9300      	str	r3, [sp, #0]
 8002f58:	2334      	movs	r3, #52	@ 0x34
 8002f5a:	2237      	movs	r2, #55	@ 0x37
 8002f5c:	2134      	movs	r1, #52	@ 0x34
 8002f5e:	2000      	movs	r0, #0
 8002f60:	f001 fbf8 	bl	8004754 <SSD1306_DrawLine>
 8002f64:	2301      	movs	r3, #1
 8002f66:	9300      	str	r3, [sp, #0]
 8002f68:	230a      	movs	r3, #10
 8002f6a:	2280      	movs	r2, #128	@ 0x80
 8002f6c:	210a      	movs	r1, #10
 8002f6e:	2037      	movs	r0, #55	@ 0x37
 8002f70:	f001 fbf0 	bl	8004754 <SSD1306_DrawLine>
 8002f74:	2301      	movs	r3, #1
 8002f76:	9300      	str	r3, [sp, #0]
 8002f78:	2340      	movs	r3, #64	@ 0x40
 8002f7a:	2237      	movs	r2, #55	@ 0x37
 8002f7c:	2100      	movs	r1, #0
 8002f7e:	2037      	movs	r0, #55	@ 0x37
 8002f80:	f001 fbe8 	bl	8004754 <SSD1306_DrawLine>
 8002f84:	2301      	movs	r3, #1
 8002f86:	9300      	str	r3, [sp, #0]
 8002f88:	231e      	movs	r3, #30
 8002f8a:	2280      	movs	r2, #128	@ 0x80
 8002f8c:	211e      	movs	r1, #30
 8002f8e:	2037      	movs	r0, #55	@ 0x37
 8002f90:	f001 fbe0 	bl	8004754 <SSD1306_DrawLine>
	SSD1306_UpdateScreen();
 8002f94:	f001 fa62 	bl	800445c <SSD1306_UpdateScreen>
}
 8002f98:	46c0      	nop			@ (mov r8, r8)
 8002f9a:	46bd      	mov	sp, r7
 8002f9c:	b011      	add	sp, #68	@ 0x44
 8002f9e:	bdf0      	pop	{r4, r5, r6, r7, pc}
 8002fa0:	080080b8 	.word	0x080080b8
 8002fa4:	20000179 	.word	0x20000179
 8002fa8:	080080b4 	.word	0x080080b4
 8002fac:	080080c0 	.word	0x080080c0
 8002fb0:	080080c8 	.word	0x080080c8
 8002fb4:	080080d0 	.word	0x080080d0
 8002fb8:	080080d8 	.word	0x080080d8
 8002fbc:	080080e0 	.word	0x080080e0
 8002fc0:	080080ac 	.word	0x080080ac
 8002fc4:	2000017c 	.word	0x2000017c
 8002fc8:	0000044c 	.word	0x0000044c
 8002fcc:	48000800 	.word	0x48000800
 8002fd0:	0800810c 	.word	0x0800810c
 8002fd4:	200000e8 	.word	0x200000e8
 8002fd8:	080080e8 	.word	0x080080e8
 8002fdc:	080080ec 	.word	0x080080ec
 8002fe0:	080080f4 	.word	0x080080f4
 8002fe4:	9999999a 	.word	0x9999999a
 8002fe8:	40119999 	.word	0x40119999
 8002fec:	000003e7 	.word	0x000003e7
 8002ff0:	080080fc 	.word	0x080080fc
 8002ff4:	08008100 	.word	0x08008100
 8002ff8:	08008104 	.word	0x08008104

08002ffc <zero.1>:
void zero(void){
 8002ffc:	b5f0      	push	{r4, r5, r6, r7, lr}
 8002ffe:	b089      	sub	sp, #36	@ 0x24
 8003000:	af00      	add	r7, sp, #0
 8003002:	4664      	mov	r4, ip
 8003004:	4663      	mov	r3, ip
 8003006:	607b      	str	r3, [r7, #4]
	while (HAL_GetTick()-lastPing < 1100) { }
 8003008:	46c0      	nop			@ (mov r8, r8)
 800300a:	f001 ff7d 	bl	8004f08 <HAL_GetTick>
 800300e:	0002      	movs	r2, r0
 8003010:	4b2b      	ldr	r3, [pc, #172]	@ (80030c0 <zero.1+0xc4>)
 8003012:	681b      	ldr	r3, [r3, #0]
 8003014:	1ad3      	subs	r3, r2, r3
 8003016:	4a2b      	ldr	r2, [pc, #172]	@ (80030c4 <zero.1+0xc8>)
 8003018:	4293      	cmp	r3, r2
 800301a:	d9f6      	bls.n	800300a <zero.1+0xe>
	HAL_GPIO_WritePin(GPIOC, GPIO_PIN_13, RESET);
 800301c:	2380      	movs	r3, #128	@ 0x80
 800301e:	019b      	lsls	r3, r3, #6
 8003020:	4829      	ldr	r0, [pc, #164]	@ (80030c8 <zero.1+0xcc>)
 8003022:	2200      	movs	r2, #0
 8003024:	0019      	movs	r1, r3
 8003026:	f002 f9de 	bl	80053e6 <HAL_GPIO_WritePin>
	uint8_t msg[]="ZERO\r";
 800302a:	2618      	movs	r6, #24
 800302c:	19bb      	adds	r3, r7, r6
 800302e:	4a27      	ldr	r2, [pc, #156]	@ (80030cc <zero.1+0xd0>)
 8003030:	6811      	ldr	r1, [r2, #0]
 8003032:	6019      	str	r1, [r3, #0]
 8003034:	8892      	ldrh	r2, [r2, #4]
 8003036:	809a      	strh	r2, [r3, #4]
	uint8_t rx_buff[10]={0};
 8003038:	250c      	movs	r5, #12
 800303a:	197b      	adds	r3, r7, r5
 800303c:	2200      	movs	r2, #0
 800303e:	601a      	str	r2, [r3, #0]
 8003040:	3304      	adds	r3, #4
 8003042:	2206      	movs	r2, #6
 8003044:	2100      	movs	r1, #0
 8003046:	0018      	movs	r0, r3
 8003048:	f004 faa4 	bl	8007594 <memset>
	MX_USART2_UART_Init();
 800304c:	f001 f878 	bl	8004140 <MX_USART2_UART_Init>
	HAL_UART_Transmit(&huart2, msg, sizeof(msg), 50);
 8003050:	19b9      	adds	r1, r7, r6
 8003052:	481f      	ldr	r0, [pc, #124]	@ (80030d0 <zero.1+0xd4>)
 8003054:	2332      	movs	r3, #50	@ 0x32
 8003056:	2206      	movs	r2, #6
 8003058:	f003 fcfc 	bl	8006a54 <HAL_UART_Transmit>
	HAL_UART_Receive(&huart2, rx_buff, 10, 50);
 800305c:	1979      	adds	r1, r7, r5
 800305e:	481c      	ldr	r0, [pc, #112]	@ (80030d0 <zero.1+0xd4>)
 8003060:	2332      	movs	r3, #50	@ 0x32
 8003062:	220a      	movs	r2, #10
 8003064:	f003 fd96 	bl	8006b94 <HAL_UART_Receive>
	lastPing = HAL_GetTick();
 8003068:	f001 ff4e 	bl	8004f08 <HAL_GetTick>
 800306c:	0002      	movs	r2, r0
 800306e:	4b14      	ldr	r3, [pc, #80]	@ (80030c0 <zero.1+0xc4>)
 8003070:	601a      	str	r2, [r3, #0]
	if (rx_buff[5]==0x4F && rx_buff[6]==0x4B){lcdPrintUpdate(7, 0, "OK    ",  1);}
 8003072:	197b      	adds	r3, r7, r5
 8003074:	795b      	ldrb	r3, [r3, #5]
 8003076:	2b4f      	cmp	r3, #79	@ 0x4f
 8003078:	d10b      	bne.n	8003092 <zero.1+0x96>
 800307a:	197b      	adds	r3, r7, r5
 800307c:	799b      	ldrb	r3, [r3, #6]
 800307e:	2b4b      	cmp	r3, #75	@ 0x4b
 8003080:	d107      	bne.n	8003092 <zero.1+0x96>
 8003082:	4a14      	ldr	r2, [pc, #80]	@ (80030d4 <zero.1+0xd8>)
 8003084:	46a4      	mov	ip, r4
 8003086:	2301      	movs	r3, #1
 8003088:	2100      	movs	r1, #0
 800308a:	2007      	movs	r0, #7
 800308c:	f7ff faee 	bl	800266c <lcdPrintUpdate.10>
 8003090:	e006      	b.n	80030a0 <zero.1+0xa4>
	else {lcdPrintUpdate(7, 0, "FAULT ",  1);}
 8003092:	4a11      	ldr	r2, [pc, #68]	@ (80030d8 <zero.1+0xdc>)
 8003094:	46a4      	mov	ip, r4
 8003096:	2301      	movs	r3, #1
 8003098:	2100      	movs	r1, #0
 800309a:	2007      	movs	r0, #7
 800309c:	f7ff fae6 	bl	800266c <lcdPrintUpdate.10>
	HAL_GPIO_WritePin(GPIOC, GPIO_PIN_13, SET);
 80030a0:	2380      	movs	r3, #128	@ 0x80
 80030a2:	019b      	lsls	r3, r3, #6
 80030a4:	4808      	ldr	r0, [pc, #32]	@ (80030c8 <zero.1+0xcc>)
 80030a6:	2201      	movs	r2, #1
 80030a8:	0019      	movs	r1, r3
 80030aa:	f002 f99c 	bl	80053e6 <HAL_GPIO_WritePin>
	HAL_Delay(1000);
 80030ae:	23fa      	movs	r3, #250	@ 0xfa
 80030b0:	009b      	lsls	r3, r3, #2
 80030b2:	0018      	movs	r0, r3
 80030b4:	f001 ff32 	bl	8004f1c <HAL_Delay>
}
 80030b8:	46c0      	nop			@ (mov r8, r8)
 80030ba:	46bd      	mov	sp, r7
 80030bc:	b009      	add	sp, #36	@ 0x24
 80030be:	bdf0      	pop	{r4, r5, r6, r7, pc}
 80030c0:	2000017c 	.word	0x2000017c
 80030c4:	0000044b 	.word	0x0000044b
 80030c8:	48000800 	.word	0x48000800
 80030cc:	08008124 	.word	0x08008124
 80030d0:	200000e8 	.word	0x200000e8
 80030d4:	08008114 	.word	0x08008114
 80030d8:	0800811c 	.word	0x0800811c

080030dc <zero0.2>:
void zero0(void){
 80030dc:	b5f0      	push	{r4, r5, r6, r7, lr}
 80030de:	b089      	sub	sp, #36	@ 0x24
 80030e0:	af00      	add	r7, sp, #0
 80030e2:	4664      	mov	r4, ip
 80030e4:	4663      	mov	r3, ip
 80030e6:	607b      	str	r3, [r7, #4]
	while (HAL_GetTick()-lastPing < 1100) { }
 80030e8:	46c0      	nop			@ (mov r8, r8)
 80030ea:	f001 ff0d 	bl	8004f08 <HAL_GetTick>
 80030ee:	0002      	movs	r2, r0
 80030f0:	4b2c      	ldr	r3, [pc, #176]	@ (80031a4 <zero0.2+0xc8>)
 80030f2:	681b      	ldr	r3, [r3, #0]
 80030f4:	1ad3      	subs	r3, r2, r3
 80030f6:	4a2c      	ldr	r2, [pc, #176]	@ (80031a8 <zero0.2+0xcc>)
 80030f8:	4293      	cmp	r3, r2
 80030fa:	d9f6      	bls.n	80030ea <zero0.2+0xe>
	HAL_GPIO_WritePin(GPIOC, GPIO_PIN_13, RESET);
 80030fc:	2380      	movs	r3, #128	@ 0x80
 80030fe:	019b      	lsls	r3, r3, #6
 8003100:	482a      	ldr	r0, [pc, #168]	@ (80031ac <zero0.2+0xd0>)
 8003102:	2200      	movs	r2, #0
 8003104:	0019      	movs	r1, r3
 8003106:	f002 f96e 	bl	80053e6 <HAL_GPIO_WritePin>
	uint8_t msg[]="ZERO0\r";
 800310a:	2618      	movs	r6, #24
 800310c:	19bb      	adds	r3, r7, r6
 800310e:	4a28      	ldr	r2, [pc, #160]	@ (80031b0 <zero0.2+0xd4>)
 8003110:	6811      	ldr	r1, [r2, #0]
 8003112:	6019      	str	r1, [r3, #0]
 8003114:	8891      	ldrh	r1, [r2, #4]
 8003116:	8099      	strh	r1, [r3, #4]
 8003118:	7992      	ldrb	r2, [r2, #6]
 800311a:	719a      	strb	r2, [r3, #6]
	uint8_t rx_buff[10]={0};
 800311c:	250c      	movs	r5, #12
 800311e:	197b      	adds	r3, r7, r5
 8003120:	2200      	movs	r2, #0
 8003122:	601a      	str	r2, [r3, #0]
 8003124:	3304      	adds	r3, #4
 8003126:	2206      	movs	r2, #6
 8003128:	2100      	movs	r1, #0
 800312a:	0018      	movs	r0, r3
 800312c:	f004 fa32 	bl	8007594 <memset>
	MX_USART2_UART_Init();
 8003130:	f001 f806 	bl	8004140 <MX_USART2_UART_Init>
	HAL_UART_Transmit(&huart2, msg, sizeof(msg), 50);
 8003134:	19b9      	adds	r1, r7, r6
 8003136:	481f      	ldr	r0, [pc, #124]	@ (80031b4 <zero0.2+0xd8>)
 8003138:	2332      	movs	r3, #50	@ 0x32
 800313a:	2207      	movs	r2, #7
 800313c:	f003 fc8a 	bl	8006a54 <HAL_UART_Transmit>
	HAL_UART_Receive(&huart2, rx_buff, 10, 50);
 8003140:	1979      	adds	r1, r7, r5
 8003142:	481c      	ldr	r0, [pc, #112]	@ (80031b4 <zero0.2+0xd8>)
 8003144:	2332      	movs	r3, #50	@ 0x32
 8003146:	220a      	movs	r2, #10
 8003148:	f003 fd24 	bl	8006b94 <HAL_UART_Receive>
	lastPing = HAL_GetTick();
 800314c:	f001 fedc 	bl	8004f08 <HAL_GetTick>
 8003150:	0002      	movs	r2, r0
 8003152:	4b14      	ldr	r3, [pc, #80]	@ (80031a4 <zero0.2+0xc8>)
 8003154:	601a      	str	r2, [r3, #0]
	if (rx_buff[6]==0x4F && rx_buff[7]==0x4B){lcdPrintUpdate(7, 22, "OK    ",  1);}
 8003156:	197b      	adds	r3, r7, r5
 8003158:	799b      	ldrb	r3, [r3, #6]
 800315a:	2b4f      	cmp	r3, #79	@ 0x4f
 800315c:	d10b      	bne.n	8003176 <zero0.2+0x9a>
 800315e:	197b      	adds	r3, r7, r5
 8003160:	79db      	ldrb	r3, [r3, #7]
 8003162:	2b4b      	cmp	r3, #75	@ 0x4b
 8003164:	d107      	bne.n	8003176 <zero0.2+0x9a>
 8003166:	4a14      	ldr	r2, [pc, #80]	@ (80031b8 <zero0.2+0xdc>)
 8003168:	46a4      	mov	ip, r4
 800316a:	2301      	movs	r3, #1
 800316c:	2116      	movs	r1, #22
 800316e:	2007      	movs	r0, #7
 8003170:	f7ff fa7c 	bl	800266c <lcdPrintUpdate.10>
 8003174:	e006      	b.n	8003184 <zero0.2+0xa8>
	else {lcdPrintUpdate(7, 22, "FAULT ",  1);}
 8003176:	4a11      	ldr	r2, [pc, #68]	@ (80031bc <zero0.2+0xe0>)
 8003178:	46a4      	mov	ip, r4
 800317a:	2301      	movs	r3, #1
 800317c:	2116      	movs	r1, #22
 800317e:	2007      	movs	r0, #7
 8003180:	f7ff fa74 	bl	800266c <lcdPrintUpdate.10>
	HAL_GPIO_WritePin(GPIOC, GPIO_PIN_13, SET);
 8003184:	2380      	movs	r3, #128	@ 0x80
 8003186:	019b      	lsls	r3, r3, #6
 8003188:	4808      	ldr	r0, [pc, #32]	@ (80031ac <zero0.2+0xd0>)
 800318a:	2201      	movs	r2, #1
 800318c:	0019      	movs	r1, r3
 800318e:	f002 f92a 	bl	80053e6 <HAL_GPIO_WritePin>
	HAL_Delay(1000);
 8003192:	23fa      	movs	r3, #250	@ 0xfa
 8003194:	009b      	lsls	r3, r3, #2
 8003196:	0018      	movs	r0, r3
 8003198:	f001 fec0 	bl	8004f1c <HAL_Delay>
}
 800319c:	46c0      	nop			@ (mov r8, r8)
 800319e:	46bd      	mov	sp, r7
 80031a0:	b009      	add	sp, #36	@ 0x24
 80031a2:	bdf0      	pop	{r4, r5, r6, r7, pc}
 80031a4:	2000017c 	.word	0x2000017c
 80031a8:	0000044b 	.word	0x0000044b
 80031ac:	48000800 	.word	0x48000800
 80031b0:	0800812c 	.word	0x0800812c
 80031b4:	200000e8 	.word	0x200000e8
 80031b8:	08008114 	.word	0x08008114
 80031bc:	0800811c 	.word	0x0800811c

080031c0 <init.3>:
void init(void){
 80031c0:	b5f0      	push	{r4, r5, r6, r7, lr}
 80031c2:	b089      	sub	sp, #36	@ 0x24
 80031c4:	af00      	add	r7, sp, #0
 80031c6:	4664      	mov	r4, ip
 80031c8:	4663      	mov	r3, ip
 80031ca:	607b      	str	r3, [r7, #4]
	while (HAL_GetTick()-lastPing < 1100) { }
 80031cc:	46c0      	nop			@ (mov r8, r8)
 80031ce:	f001 fe9b 	bl	8004f08 <HAL_GetTick>
 80031d2:	0002      	movs	r2, r0
 80031d4:	4b2b      	ldr	r3, [pc, #172]	@ (8003284 <init.3+0xc4>)
 80031d6:	681b      	ldr	r3, [r3, #0]
 80031d8:	1ad3      	subs	r3, r2, r3
 80031da:	4a2b      	ldr	r2, [pc, #172]	@ (8003288 <init.3+0xc8>)
 80031dc:	4293      	cmp	r3, r2
 80031de:	d9f6      	bls.n	80031ce <init.3+0xe>
	HAL_GPIO_WritePin(GPIOC, GPIO_PIN_13, RESET);
 80031e0:	2380      	movs	r3, #128	@ 0x80
 80031e2:	019b      	lsls	r3, r3, #6
 80031e4:	4829      	ldr	r0, [pc, #164]	@ (800328c <init.3+0xcc>)
 80031e6:	2200      	movs	r2, #0
 80031e8:	0019      	movs	r1, r3
 80031ea:	f002 f8fc 	bl	80053e6 <HAL_GPIO_WritePin>
	uint8_t msg[]="INIT\r";
 80031ee:	2618      	movs	r6, #24
 80031f0:	19bb      	adds	r3, r7, r6
 80031f2:	4a27      	ldr	r2, [pc, #156]	@ (8003290 <init.3+0xd0>)
 80031f4:	6811      	ldr	r1, [r2, #0]
 80031f6:	6019      	str	r1, [r3, #0]
 80031f8:	8892      	ldrh	r2, [r2, #4]
 80031fa:	809a      	strh	r2, [r3, #4]
	uint8_t rx_buff[10]={0};
 80031fc:	250c      	movs	r5, #12
 80031fe:	197b      	adds	r3, r7, r5
 8003200:	2200      	movs	r2, #0
 8003202:	601a      	str	r2, [r3, #0]
 8003204:	3304      	adds	r3, #4
 8003206:	2206      	movs	r2, #6
 8003208:	2100      	movs	r1, #0
 800320a:	0018      	movs	r0, r3
 800320c:	f004 f9c2 	bl	8007594 <memset>
	MX_USART2_UART_Init();
 8003210:	f000 ff96 	bl	8004140 <MX_USART2_UART_Init>
	HAL_UART_Transmit(&huart2, msg, sizeof(msg), 50);
 8003214:	19b9      	adds	r1, r7, r6
 8003216:	481f      	ldr	r0, [pc, #124]	@ (8003294 <init.3+0xd4>)
 8003218:	2332      	movs	r3, #50	@ 0x32
 800321a:	2206      	movs	r2, #6
 800321c:	f003 fc1a 	bl	8006a54 <HAL_UART_Transmit>
	HAL_UART_Receive(&huart2, rx_buff, 10, 50);
 8003220:	1979      	adds	r1, r7, r5
 8003222:	481c      	ldr	r0, [pc, #112]	@ (8003294 <init.3+0xd4>)
 8003224:	2332      	movs	r3, #50	@ 0x32
 8003226:	220a      	movs	r2, #10
 8003228:	f003 fcb4 	bl	8006b94 <HAL_UART_Receive>
	lastPing = HAL_GetTick();
 800322c:	f001 fe6c 	bl	8004f08 <HAL_GetTick>
 8003230:	0002      	movs	r2, r0
 8003232:	4b14      	ldr	r3, [pc, #80]	@ (8003284 <init.3+0xc4>)
 8003234:	601a      	str	r2, [r3, #0]
	if (rx_buff[5]==0x4F && rx_buff[6]==0x4B){lcdPrintUpdate(7, 32, "OK    ",  1);}
 8003236:	197b      	adds	r3, r7, r5
 8003238:	795b      	ldrb	r3, [r3, #5]
 800323a:	2b4f      	cmp	r3, #79	@ 0x4f
 800323c:	d10b      	bne.n	8003256 <init.3+0x96>
 800323e:	197b      	adds	r3, r7, r5
 8003240:	799b      	ldrb	r3, [r3, #6]
 8003242:	2b4b      	cmp	r3, #75	@ 0x4b
 8003244:	d107      	bne.n	8003256 <init.3+0x96>
 8003246:	4a14      	ldr	r2, [pc, #80]	@ (8003298 <init.3+0xd8>)
 8003248:	46a4      	mov	ip, r4
 800324a:	2301      	movs	r3, #1
 800324c:	2120      	movs	r1, #32
 800324e:	2007      	movs	r0, #7
 8003250:	f7ff fa0c 	bl	800266c <lcdPrintUpdate.10>
 8003254:	e006      	b.n	8003264 <init.3+0xa4>
	else {lcdPrintUpdate(7, 32, "FAULT ",  1);}
 8003256:	4a11      	ldr	r2, [pc, #68]	@ (800329c <init.3+0xdc>)
 8003258:	46a4      	mov	ip, r4
 800325a:	2301      	movs	r3, #1
 800325c:	2120      	movs	r1, #32
 800325e:	2007      	movs	r0, #7
 8003260:	f7ff fa04 	bl	800266c <lcdPrintUpdate.10>
	HAL_GPIO_WritePin(GPIOC, GPIO_PIN_13, SET);
 8003264:	2380      	movs	r3, #128	@ 0x80
 8003266:	019b      	lsls	r3, r3, #6
 8003268:	4808      	ldr	r0, [pc, #32]	@ (800328c <init.3+0xcc>)
 800326a:	2201      	movs	r2, #1
 800326c:	0019      	movs	r1, r3
 800326e:	f002 f8ba 	bl	80053e6 <HAL_GPIO_WritePin>
	HAL_Delay(1000);
 8003272:	23fa      	movs	r3, #250	@ 0xfa
 8003274:	009b      	lsls	r3, r3, #2
 8003276:	0018      	movs	r0, r3
 8003278:	f001 fe50 	bl	8004f1c <HAL_Delay>
}
 800327c:	46c0      	nop			@ (mov r8, r8)
 800327e:	46bd      	mov	sp, r7
 8003280:	b009      	add	sp, #36	@ 0x24
 8003282:	bdf0      	pop	{r4, r5, r6, r7, pc}
 8003284:	2000017c 	.word	0x2000017c
 8003288:	0000044b 	.word	0x0000044b
 800328c:	48000800 	.word	0x48000800
 8003290:	08008134 	.word	0x08008134
 8003294:	200000e8 	.word	0x200000e8
 8003298:	08008114 	.word	0x08008114
 800329c:	0800811c 	.word	0x0800811c

080032a0 <zero2.4>:
void zero2(void){
 80032a0:	b5f0      	push	{r4, r5, r6, r7, lr}
 80032a2:	b089      	sub	sp, #36	@ 0x24
 80032a4:	af00      	add	r7, sp, #0
 80032a6:	4664      	mov	r4, ip
 80032a8:	4663      	mov	r3, ip
 80032aa:	607b      	str	r3, [r7, #4]
	while (HAL_GetTick()-lastPing < 1100) { }
 80032ac:	46c0      	nop			@ (mov r8, r8)
 80032ae:	f001 fe2b 	bl	8004f08 <HAL_GetTick>
 80032b2:	0002      	movs	r2, r0
 80032b4:	4b2c      	ldr	r3, [pc, #176]	@ (8003368 <zero2.4+0xc8>)
 80032b6:	681b      	ldr	r3, [r3, #0]
 80032b8:	1ad3      	subs	r3, r2, r3
 80032ba:	4a2c      	ldr	r2, [pc, #176]	@ (800336c <zero2.4+0xcc>)
 80032bc:	4293      	cmp	r3, r2
 80032be:	d9f6      	bls.n	80032ae <zero2.4+0xe>
	HAL_GPIO_WritePin(GPIOC, GPIO_PIN_13, RESET);
 80032c0:	2380      	movs	r3, #128	@ 0x80
 80032c2:	019b      	lsls	r3, r3, #6
 80032c4:	482a      	ldr	r0, [pc, #168]	@ (8003370 <zero2.4+0xd0>)
 80032c6:	2200      	movs	r2, #0
 80032c8:	0019      	movs	r1, r3
 80032ca:	f002 f88c 	bl	80053e6 <HAL_GPIO_WritePin>
	uint8_t msg[]="ZERO2\r";
 80032ce:	2618      	movs	r6, #24
 80032d0:	19bb      	adds	r3, r7, r6
 80032d2:	4a28      	ldr	r2, [pc, #160]	@ (8003374 <zero2.4+0xd4>)
 80032d4:	6811      	ldr	r1, [r2, #0]
 80032d6:	6019      	str	r1, [r3, #0]
 80032d8:	8891      	ldrh	r1, [r2, #4]
 80032da:	8099      	strh	r1, [r3, #4]
 80032dc:	7992      	ldrb	r2, [r2, #6]
 80032de:	719a      	strb	r2, [r3, #6]
	uint8_t rx_buff[10]={0};
 80032e0:	250c      	movs	r5, #12
 80032e2:	197b      	adds	r3, r7, r5
 80032e4:	2200      	movs	r2, #0
 80032e6:	601a      	str	r2, [r3, #0]
 80032e8:	3304      	adds	r3, #4
 80032ea:	2206      	movs	r2, #6
 80032ec:	2100      	movs	r1, #0
 80032ee:	0018      	movs	r0, r3
 80032f0:	f004 f950 	bl	8007594 <memset>
	MX_USART2_UART_Init();
 80032f4:	f000 ff24 	bl	8004140 <MX_USART2_UART_Init>
	HAL_UART_Transmit(&huart2, msg, sizeof(msg), 50);
 80032f8:	19b9      	adds	r1, r7, r6
 80032fa:	481f      	ldr	r0, [pc, #124]	@ (8003378 <zero2.4+0xd8>)
 80032fc:	2332      	movs	r3, #50	@ 0x32
 80032fe:	2207      	movs	r2, #7
 8003300:	f003 fba8 	bl	8006a54 <HAL_UART_Transmit>
	HAL_UART_Receive(&huart2, rx_buff, 10, 50);
 8003304:	1979      	adds	r1, r7, r5
 8003306:	481c      	ldr	r0, [pc, #112]	@ (8003378 <zero2.4+0xd8>)
 8003308:	2332      	movs	r3, #50	@ 0x32
 800330a:	220a      	movs	r2, #10
 800330c:	f003 fc42 	bl	8006b94 <HAL_UART_Receive>
	lastPing = HAL_GetTick();
 8003310:	f001 fdfa 	bl	8004f08 <HAL_GetTick>
 8003314:	0002      	movs	r2, r0
 8003316:	4b14      	ldr	r3, [pc, #80]	@ (8003368 <zero2.4+0xc8>)
 8003318:	601a      	str	r2, [r3, #0]
	if (rx_buff[6]==0x4F && rx_buff[7]==0x4B){lcdPrintUpdate(7, 42, "OK    ",  1);}
 800331a:	197b      	adds	r3, r7, r5
 800331c:	799b      	ldrb	r3, [r3, #6]
 800331e:	2b4f      	cmp	r3, #79	@ 0x4f
 8003320:	d10b      	bne.n	800333a <zero2.4+0x9a>
 8003322:	197b      	adds	r3, r7, r5
 8003324:	79db      	ldrb	r3, [r3, #7]
 8003326:	2b4b      	cmp	r3, #75	@ 0x4b
 8003328:	d107      	bne.n	800333a <zero2.4+0x9a>
 800332a:	4a14      	ldr	r2, [pc, #80]	@ (800337c <zero2.4+0xdc>)
 800332c:	46a4      	mov	ip, r4
 800332e:	2301      	movs	r3, #1
 8003330:	212a      	movs	r1, #42	@ 0x2a
 8003332:	2007      	movs	r0, #7
 8003334:	f7ff f99a 	bl	800266c <lcdPrintUpdate.10>
 8003338:	e006      	b.n	8003348 <zero2.4+0xa8>
	else {lcdPrintUpdate(7, 42, "FAULT ",  1);}
 800333a:	4a11      	ldr	r2, [pc, #68]	@ (8003380 <zero2.4+0xe0>)
 800333c:	46a4      	mov	ip, r4
 800333e:	2301      	movs	r3, #1
 8003340:	212a      	movs	r1, #42	@ 0x2a
 8003342:	2007      	movs	r0, #7
 8003344:	f7ff f992 	bl	800266c <lcdPrintUpdate.10>
	HAL_GPIO_WritePin(GPIOC, GPIO_PIN_13, SET);
 8003348:	2380      	movs	r3, #128	@ 0x80
 800334a:	019b      	lsls	r3, r3, #6
 800334c:	4808      	ldr	r0, [pc, #32]	@ (8003370 <zero2.4+0xd0>)
 800334e:	2201      	movs	r2, #1
 8003350:	0019      	movs	r1, r3
 8003352:	f002 f848 	bl	80053e6 <HAL_GPIO_WritePin>
	HAL_Delay(1000);
 8003356:	23fa      	movs	r3, #250	@ 0xfa
 8003358:	009b      	lsls	r3, r3, #2
 800335a:	0018      	movs	r0, r3
 800335c:	f001 fdde 	bl	8004f1c <HAL_Delay>
}
 8003360:	46c0      	nop			@ (mov r8, r8)
 8003362:	46bd      	mov	sp, r7
 8003364:	b009      	add	sp, #36	@ 0x24
 8003366:	bdf0      	pop	{r4, r5, r6, r7, pc}
 8003368:	2000017c 	.word	0x2000017c
 800336c:	0000044b 	.word	0x0000044b
 8003370:	48000800 	.word	0x48000800
 8003374:	0800813c 	.word	0x0800813c
 8003378:	200000e8 	.word	0x200000e8
 800337c:	08008114 	.word	0x08008114
 8003380:	0800811c 	.word	0x0800811c

08003384 <pageCalib50draw.15>:
void pageCalib50draw(void){
 8003384:	b590      	push	{r4, r7, lr}
 8003386:	b085      	sub	sp, #20
 8003388:	af02      	add	r7, sp, #8
 800338a:	4664      	mov	r4, ip
 800338c:	4663      	mov	r3, ip
 800338e:	607b      	str	r3, [r7, #4]
	lcdPrint(0, 0, " SET NKPR for CH4",   1);
 8003390:	4a83      	ldr	r2, [pc, #524]	@ (80035a0 <pageCalib50draw.15+0x21c>)
 8003392:	46a4      	mov	ip, r4
 8003394:	2301      	movs	r3, #1
 8003396:	2100      	movs	r1, #0
 8003398:	2000      	movs	r0, #0
 800339a:	f7fe fe3b 	bl	8002014 <lcdPrint.0>
	lcdPrint(0, 12, " 45",   1);	if (selected == 1) {lcdPrint(0, 11, "-", 1);};
 800339e:	4a81      	ldr	r2, [pc, #516]	@ (80035a4 <pageCalib50draw.15+0x220>)
 80033a0:	46a4      	mov	ip, r4
 80033a2:	2301      	movs	r3, #1
 80033a4:	210c      	movs	r1, #12
 80033a6:	2000      	movs	r0, #0
 80033a8:	f7fe fe34 	bl	8002014 <lcdPrint.0>
 80033ac:	4b7e      	ldr	r3, [pc, #504]	@ (80035a8 <pageCalib50draw.15+0x224>)
 80033ae:	781b      	ldrb	r3, [r3, #0]
 80033b0:	2b01      	cmp	r3, #1
 80033b2:	d106      	bne.n	80033c2 <pageCalib50draw.15+0x3e>
 80033b4:	4a7d      	ldr	r2, [pc, #500]	@ (80035ac <pageCalib50draw.15+0x228>)
 80033b6:	46a4      	mov	ip, r4
 80033b8:	2301      	movs	r3, #1
 80033ba:	210b      	movs	r1, #11
 80033bc:	2000      	movs	r0, #0
 80033be:	f7fe fe29 	bl	8002014 <lcdPrint.0>
	lcdPrint(0, 22, " 46",   1);	if (selected == 2) {lcdPrint(0, 21, "-", 1);};
 80033c2:	4a7b      	ldr	r2, [pc, #492]	@ (80035b0 <pageCalib50draw.15+0x22c>)
 80033c4:	46a4      	mov	ip, r4
 80033c6:	2301      	movs	r3, #1
 80033c8:	2116      	movs	r1, #22
 80033ca:	2000      	movs	r0, #0
 80033cc:	f7fe fe22 	bl	8002014 <lcdPrint.0>
 80033d0:	4b75      	ldr	r3, [pc, #468]	@ (80035a8 <pageCalib50draw.15+0x224>)
 80033d2:	781b      	ldrb	r3, [r3, #0]
 80033d4:	2b02      	cmp	r3, #2
 80033d6:	d106      	bne.n	80033e6 <pageCalib50draw.15+0x62>
 80033d8:	4a74      	ldr	r2, [pc, #464]	@ (80035ac <pageCalib50draw.15+0x228>)
 80033da:	46a4      	mov	ip, r4
 80033dc:	2301      	movs	r3, #1
 80033de:	2115      	movs	r1, #21
 80033e0:	2000      	movs	r0, #0
 80033e2:	f7fe fe17 	bl	8002014 <lcdPrint.0>
	lcdPrint(0, 32, " 47",   1);	if (selected == 3) {lcdPrint(0, 31, "-", 1);};
 80033e6:	4a73      	ldr	r2, [pc, #460]	@ (80035b4 <pageCalib50draw.15+0x230>)
 80033e8:	46a4      	mov	ip, r4
 80033ea:	2301      	movs	r3, #1
 80033ec:	2120      	movs	r1, #32
 80033ee:	2000      	movs	r0, #0
 80033f0:	f7fe fe10 	bl	8002014 <lcdPrint.0>
 80033f4:	4b6c      	ldr	r3, [pc, #432]	@ (80035a8 <pageCalib50draw.15+0x224>)
 80033f6:	781b      	ldrb	r3, [r3, #0]
 80033f8:	2b03      	cmp	r3, #3
 80033fa:	d106      	bne.n	800340a <pageCalib50draw.15+0x86>
 80033fc:	4a6b      	ldr	r2, [pc, #428]	@ (80035ac <pageCalib50draw.15+0x228>)
 80033fe:	46a4      	mov	ip, r4
 8003400:	2301      	movs	r3, #1
 8003402:	211f      	movs	r1, #31
 8003404:	2000      	movs	r0, #0
 8003406:	f7fe fe05 	bl	8002014 <lcdPrint.0>
	lcdPrint(0, 42, " 48",   1);	if (selected == 4) {lcdPrint(0, 41, "-", 1);};
 800340a:	4a6b      	ldr	r2, [pc, #428]	@ (80035b8 <pageCalib50draw.15+0x234>)
 800340c:	46a4      	mov	ip, r4
 800340e:	2301      	movs	r3, #1
 8003410:	212a      	movs	r1, #42	@ 0x2a
 8003412:	2000      	movs	r0, #0
 8003414:	f7fe fdfe 	bl	8002014 <lcdPrint.0>
 8003418:	4b63      	ldr	r3, [pc, #396]	@ (80035a8 <pageCalib50draw.15+0x224>)
 800341a:	781b      	ldrb	r3, [r3, #0]
 800341c:	2b04      	cmp	r3, #4
 800341e:	d106      	bne.n	800342e <pageCalib50draw.15+0xaa>
 8003420:	4a62      	ldr	r2, [pc, #392]	@ (80035ac <pageCalib50draw.15+0x228>)
 8003422:	46a4      	mov	ip, r4
 8003424:	2301      	movs	r3, #1
 8003426:	2129      	movs	r1, #41	@ 0x29
 8003428:	2000      	movs	r0, #0
 800342a:	f7fe fdf3 	bl	8002014 <lcdPrint.0>
	lcdPrint(28, 12, " 49",   1);	if (selected == 5) {lcdPrint(28, 11, "-", 1);};
 800342e:	4a63      	ldr	r2, [pc, #396]	@ (80035bc <pageCalib50draw.15+0x238>)
 8003430:	46a4      	mov	ip, r4
 8003432:	2301      	movs	r3, #1
 8003434:	210c      	movs	r1, #12
 8003436:	201c      	movs	r0, #28
 8003438:	f7fe fdec 	bl	8002014 <lcdPrint.0>
 800343c:	4b5a      	ldr	r3, [pc, #360]	@ (80035a8 <pageCalib50draw.15+0x224>)
 800343e:	781b      	ldrb	r3, [r3, #0]
 8003440:	2b05      	cmp	r3, #5
 8003442:	d106      	bne.n	8003452 <pageCalib50draw.15+0xce>
 8003444:	4a59      	ldr	r2, [pc, #356]	@ (80035ac <pageCalib50draw.15+0x228>)
 8003446:	46a4      	mov	ip, r4
 8003448:	2301      	movs	r3, #1
 800344a:	210b      	movs	r1, #11
 800344c:	201c      	movs	r0, #28
 800344e:	f7fe fde1 	bl	8002014 <lcdPrint.0>
	lcdPrint(28, 22, " 50",   1);	if (selected == 6) {lcdPrint(28, 21, "-", 1);};
 8003452:	4a5b      	ldr	r2, [pc, #364]	@ (80035c0 <pageCalib50draw.15+0x23c>)
 8003454:	46a4      	mov	ip, r4
 8003456:	2301      	movs	r3, #1
 8003458:	2116      	movs	r1, #22
 800345a:	201c      	movs	r0, #28
 800345c:	f7fe fdda 	bl	8002014 <lcdPrint.0>
 8003460:	4b51      	ldr	r3, [pc, #324]	@ (80035a8 <pageCalib50draw.15+0x224>)
 8003462:	781b      	ldrb	r3, [r3, #0]
 8003464:	2b06      	cmp	r3, #6
 8003466:	d106      	bne.n	8003476 <pageCalib50draw.15+0xf2>
 8003468:	4a50      	ldr	r2, [pc, #320]	@ (80035ac <pageCalib50draw.15+0x228>)
 800346a:	46a4      	mov	ip, r4
 800346c:	2301      	movs	r3, #1
 800346e:	2115      	movs	r1, #21
 8003470:	201c      	movs	r0, #28
 8003472:	f7fe fdcf 	bl	8002014 <lcdPrint.0>
	lcdPrint(28, 32, " 51",   1);	if (selected == 7) {lcdPrint(28, 31, "-", 1);};
 8003476:	4a53      	ldr	r2, [pc, #332]	@ (80035c4 <pageCalib50draw.15+0x240>)
 8003478:	46a4      	mov	ip, r4
 800347a:	2301      	movs	r3, #1
 800347c:	2120      	movs	r1, #32
 800347e:	201c      	movs	r0, #28
 8003480:	f7fe fdc8 	bl	8002014 <lcdPrint.0>
 8003484:	4b48      	ldr	r3, [pc, #288]	@ (80035a8 <pageCalib50draw.15+0x224>)
 8003486:	781b      	ldrb	r3, [r3, #0]
 8003488:	2b07      	cmp	r3, #7
 800348a:	d106      	bne.n	800349a <pageCalib50draw.15+0x116>
 800348c:	4a47      	ldr	r2, [pc, #284]	@ (80035ac <pageCalib50draw.15+0x228>)
 800348e:	46a4      	mov	ip, r4
 8003490:	2301      	movs	r3, #1
 8003492:	211f      	movs	r1, #31
 8003494:	201c      	movs	r0, #28
 8003496:	f7fe fdbd 	bl	8002014 <lcdPrint.0>
	lcdPrint(28, 42, " 52",   1);	if (selected == 8) {lcdPrint(28, 41, "-", 1);};
 800349a:	4a4b      	ldr	r2, [pc, #300]	@ (80035c8 <pageCalib50draw.15+0x244>)
 800349c:	46a4      	mov	ip, r4
 800349e:	2301      	movs	r3, #1
 80034a0:	212a      	movs	r1, #42	@ 0x2a
 80034a2:	201c      	movs	r0, #28
 80034a4:	f7fe fdb6 	bl	8002014 <lcdPrint.0>
 80034a8:	4b3f      	ldr	r3, [pc, #252]	@ (80035a8 <pageCalib50draw.15+0x224>)
 80034aa:	781b      	ldrb	r3, [r3, #0]
 80034ac:	2b08      	cmp	r3, #8
 80034ae:	d106      	bne.n	80034be <pageCalib50draw.15+0x13a>
 80034b0:	4a3e      	ldr	r2, [pc, #248]	@ (80035ac <pageCalib50draw.15+0x228>)
 80034b2:	46a4      	mov	ip, r4
 80034b4:	2301      	movs	r3, #1
 80034b6:	2129      	movs	r1, #41	@ 0x29
 80034b8:	201c      	movs	r0, #28
 80034ba:	f7fe fdab 	bl	8002014 <lcdPrint.0>
	lcdPrint(56, 12, " 53",   1);	if (selected == 9) {lcdPrint(56, 11, "-", 1);};
 80034be:	4a43      	ldr	r2, [pc, #268]	@ (80035cc <pageCalib50draw.15+0x248>)
 80034c0:	46a4      	mov	ip, r4
 80034c2:	2301      	movs	r3, #1
 80034c4:	210c      	movs	r1, #12
 80034c6:	2038      	movs	r0, #56	@ 0x38
 80034c8:	f7fe fda4 	bl	8002014 <lcdPrint.0>
 80034cc:	4b36      	ldr	r3, [pc, #216]	@ (80035a8 <pageCalib50draw.15+0x224>)
 80034ce:	781b      	ldrb	r3, [r3, #0]
 80034d0:	2b09      	cmp	r3, #9
 80034d2:	d106      	bne.n	80034e2 <pageCalib50draw.15+0x15e>
 80034d4:	4a35      	ldr	r2, [pc, #212]	@ (80035ac <pageCalib50draw.15+0x228>)
 80034d6:	46a4      	mov	ip, r4
 80034d8:	2301      	movs	r3, #1
 80034da:	210b      	movs	r1, #11
 80034dc:	2038      	movs	r0, #56	@ 0x38
 80034de:	f7fe fd99 	bl	8002014 <lcdPrint.0>
	lcdPrint(56, 22, " 54",   1);	if (selected == 10) {lcdPrint(56, 21, "-", 1);};
 80034e2:	4a3b      	ldr	r2, [pc, #236]	@ (80035d0 <pageCalib50draw.15+0x24c>)
 80034e4:	46a4      	mov	ip, r4
 80034e6:	2301      	movs	r3, #1
 80034e8:	2116      	movs	r1, #22
 80034ea:	2038      	movs	r0, #56	@ 0x38
 80034ec:	f7fe fd92 	bl	8002014 <lcdPrint.0>
 80034f0:	4b2d      	ldr	r3, [pc, #180]	@ (80035a8 <pageCalib50draw.15+0x224>)
 80034f2:	781b      	ldrb	r3, [r3, #0]
 80034f4:	2b0a      	cmp	r3, #10
 80034f6:	d106      	bne.n	8003506 <pageCalib50draw.15+0x182>
 80034f8:	4a2c      	ldr	r2, [pc, #176]	@ (80035ac <pageCalib50draw.15+0x228>)
 80034fa:	46a4      	mov	ip, r4
 80034fc:	2301      	movs	r3, #1
 80034fe:	2115      	movs	r1, #21
 8003500:	2038      	movs	r0, #56	@ 0x38
 8003502:	f7fe fd87 	bl	8002014 <lcdPrint.0>
	lcdPrint(56, 32, " 55",   1);	if (selected == 11) {lcdPrint(56, 31, "-", 1);};
 8003506:	4a33      	ldr	r2, [pc, #204]	@ (80035d4 <pageCalib50draw.15+0x250>)
 8003508:	46a4      	mov	ip, r4
 800350a:	2301      	movs	r3, #1
 800350c:	2120      	movs	r1, #32
 800350e:	2038      	movs	r0, #56	@ 0x38
 8003510:	f7fe fd80 	bl	8002014 <lcdPrint.0>
 8003514:	4b24      	ldr	r3, [pc, #144]	@ (80035a8 <pageCalib50draw.15+0x224>)
 8003516:	781b      	ldrb	r3, [r3, #0]
 8003518:	2b0b      	cmp	r3, #11
 800351a:	d106      	bne.n	800352a <pageCalib50draw.15+0x1a6>
 800351c:	4a23      	ldr	r2, [pc, #140]	@ (80035ac <pageCalib50draw.15+0x228>)
 800351e:	46a4      	mov	ip, r4
 8003520:	2301      	movs	r3, #1
 8003522:	211f      	movs	r1, #31
 8003524:	2038      	movs	r0, #56	@ 0x38
 8003526:	f7fe fd75 	bl	8002014 <lcdPrint.0>
	lcdPrint(56, 42, " 56",   1);	if (selected == 12) {lcdPrint(56, 41, "-", 1);};
 800352a:	4a2b      	ldr	r2, [pc, #172]	@ (80035d8 <pageCalib50draw.15+0x254>)
 800352c:	46a4      	mov	ip, r4
 800352e:	2301      	movs	r3, #1
 8003530:	212a      	movs	r1, #42	@ 0x2a
 8003532:	2038      	movs	r0, #56	@ 0x38
 8003534:	f7fe fd6e 	bl	8002014 <lcdPrint.0>
 8003538:	4b1b      	ldr	r3, [pc, #108]	@ (80035a8 <pageCalib50draw.15+0x224>)
 800353a:	781b      	ldrb	r3, [r3, #0]
 800353c:	2b0c      	cmp	r3, #12
 800353e:	d106      	bne.n	800354e <pageCalib50draw.15+0x1ca>
 8003540:	4a1a      	ldr	r2, [pc, #104]	@ (80035ac <pageCalib50draw.15+0x228>)
 8003542:	46a4      	mov	ip, r4
 8003544:	2301      	movs	r3, #1
 8003546:	2129      	movs	r1, #41	@ 0x29
 8003548:	2038      	movs	r0, #56	@ 0x38
 800354a:	f7fe fd63 	bl	8002014 <lcdPrint.0>
	lcdPrint(0, 53, " Exit",   1);	if (selected == 0) {lcdPrint(0, 53, "-", 1);};
 800354e:	4a23      	ldr	r2, [pc, #140]	@ (80035dc <pageCalib50draw.15+0x258>)
 8003550:	46a4      	mov	ip, r4
 8003552:	2301      	movs	r3, #1
 8003554:	2135      	movs	r1, #53	@ 0x35
 8003556:	2000      	movs	r0, #0
 8003558:	f7fe fd5c 	bl	8002014 <lcdPrint.0>
 800355c:	4b12      	ldr	r3, [pc, #72]	@ (80035a8 <pageCalib50draw.15+0x224>)
 800355e:	781b      	ldrb	r3, [r3, #0]
 8003560:	2b00      	cmp	r3, #0
 8003562:	d106      	bne.n	8003572 <pageCalib50draw.15+0x1ee>
 8003564:	4a11      	ldr	r2, [pc, #68]	@ (80035ac <pageCalib50draw.15+0x228>)
 8003566:	46a4      	mov	ip, r4
 8003568:	2301      	movs	r3, #1
 800356a:	2135      	movs	r1, #53	@ 0x35
 800356c:	2000      	movs	r0, #0
 800356e:	f7fe fd51 	bl	8002014 <lcdPrint.0>
	SSD1306_DrawLine(0, 10, 128, 10, 1); SSD1306_DrawLine(0, 51, 128, 51, 1);
 8003572:	2301      	movs	r3, #1
 8003574:	9300      	str	r3, [sp, #0]
 8003576:	230a      	movs	r3, #10
 8003578:	2280      	movs	r2, #128	@ 0x80
 800357a:	210a      	movs	r1, #10
 800357c:	2000      	movs	r0, #0
 800357e:	f001 f8e9 	bl	8004754 <SSD1306_DrawLine>
 8003582:	2301      	movs	r3, #1
 8003584:	9300      	str	r3, [sp, #0]
 8003586:	2333      	movs	r3, #51	@ 0x33
 8003588:	2280      	movs	r2, #128	@ 0x80
 800358a:	2133      	movs	r1, #51	@ 0x33
 800358c:	2000      	movs	r0, #0
 800358e:	f001 f8e1 	bl	8004754 <SSD1306_DrawLine>
	SSD1306_UpdateScreen();
 8003592:	f000 ff63 	bl	800445c <SSD1306_UpdateScreen>
}
 8003596:	46c0      	nop			@ (mov r8, r8)
 8003598:	46bd      	mov	sp, r7
 800359a:	b003      	add	sp, #12
 800359c:	bd90      	pop	{r4, r7, pc}
 800359e:	46c0      	nop			@ (mov r8, r8)
 80035a0:	08008144 	.word	0x08008144
 80035a4:	08008158 	.word	0x08008158
 80035a8:	20000179 	.word	0x20000179
 80035ac:	080080b4 	.word	0x080080b4
 80035b0:	0800815c 	.word	0x0800815c
 80035b4:	08008160 	.word	0x08008160
 80035b8:	08008164 	.word	0x08008164
 80035bc:	08008168 	.word	0x08008168
 80035c0:	0800816c 	.word	0x0800816c
 80035c4:	08008170 	.word	0x08008170
 80035c8:	08008174 	.word	0x08008174
 80035cc:	08008178 	.word	0x08008178
 80035d0:	0800817c 	.word	0x0800817c
 80035d4:	08008180 	.word	0x08008180
 80035d8:	08008184 	.word	0x08008184
 80035dc:	080080ac 	.word	0x080080ac

080035e0 <setPGSfunk.5>:
void setPGSfunk(void){
 80035e0:	b5f0      	push	{r4, r5, r6, r7, lr}
 80035e2:	b08b      	sub	sp, #44	@ 0x2c
 80035e4:	af00      	add	r7, sp, #0
 80035e6:	4664      	mov	r4, ip
 80035e8:	4663      	mov	r3, ip
 80035ea:	607b      	str	r3, [r7, #4]
	SSD1306_Clear();
 80035ec:	f001 fa41 	bl	8004a72 <SSD1306_Clear>
	while (HAL_GetTick()-lastPing < 1100) { }
 80035f0:	46c0      	nop			@ (mov r8, r8)
 80035f2:	f001 fc89 	bl	8004f08 <HAL_GetTick>
 80035f6:	0002      	movs	r2, r0
 80035f8:	4b4e      	ldr	r3, [pc, #312]	@ (8003734 <setPGSfunk.5+0x154>)
 80035fa:	681b      	ldr	r3, [r3, #0]
 80035fc:	1ad3      	subs	r3, r2, r3
 80035fe:	4a4e      	ldr	r2, [pc, #312]	@ (8003738 <setPGSfunk.5+0x158>)
 8003600:	4293      	cmp	r3, r2
 8003602:	d9f6      	bls.n	80035f2 <setPGSfunk.5+0x12>
	HAL_GPIO_WritePin(GPIOC, GPIO_PIN_13, RESET);
 8003604:	2380      	movs	r3, #128	@ 0x80
 8003606:	019b      	lsls	r3, r3, #6
 8003608:	484c      	ldr	r0, [pc, #304]	@ (800373c <setPGSfunk.5+0x15c>)
 800360a:	2200      	movs	r2, #0
 800360c:	0019      	movs	r1, r3
 800360e:	f001 feea 	bl	80053e6 <HAL_GPIO_WritePin>
	uint16_t NKPR = round(193.6+(selected*4.4));
 8003612:	4b4b      	ldr	r3, [pc, #300]	@ (8003740 <setPGSfunk.5+0x160>)
 8003614:	781b      	ldrb	r3, [r3, #0]
 8003616:	0018      	movs	r0, r3
 8003618:	f7fe fb48 	bl	8001cac <__aeabi_i2d>
 800361c:	4a49      	ldr	r2, [pc, #292]	@ (8003744 <setPGSfunk.5+0x164>)
 800361e:	4b4a      	ldr	r3, [pc, #296]	@ (8003748 <setPGSfunk.5+0x168>)
 8003620:	f7fd fca4 	bl	8000f6c <__aeabi_dmul>
 8003624:	0002      	movs	r2, r0
 8003626:	000b      	movs	r3, r1
 8003628:	0010      	movs	r0, r2
 800362a:	0019      	movs	r1, r3
 800362c:	4a47      	ldr	r2, [pc, #284]	@ (800374c <setPGSfunk.5+0x16c>)
 800362e:	4b48      	ldr	r3, [pc, #288]	@ (8003750 <setPGSfunk.5+0x170>)
 8003630:	f7fc fe1e 	bl	8000270 <__aeabi_dadd>
 8003634:	0002      	movs	r2, r0
 8003636:	000b      	movs	r3, r1
 8003638:	0010      	movs	r0, r2
 800363a:	0019      	movs	r1, r3
 800363c:	f004 fc3c 	bl	8007eb8 <round>
 8003640:	0002      	movs	r2, r0
 8003642:	000b      	movs	r3, r1
 8003644:	2626      	movs	r6, #38	@ 0x26
 8003646:	19bd      	adds	r5, r7, r6
 8003648:	0010      	movs	r0, r2
 800364a:	0019      	movs	r1, r3
 800364c:	f7fc fdf2 	bl	8000234 <__aeabi_d2uiz>
 8003650:	0003      	movs	r3, r0
 8003652:	802b      	strh	r3, [r5, #0]
	uint8_t msg[10]={0};
 8003654:	251c      	movs	r5, #28
 8003656:	197b      	adds	r3, r7, r5
 8003658:	2200      	movs	r2, #0
 800365a:	601a      	str	r2, [r3, #0]
 800365c:	3304      	adds	r3, #4
 800365e:	2206      	movs	r2, #6
 8003660:	2100      	movs	r1, #0
 8003662:	0018      	movs	r0, r3
 8003664:	f003 ff96 	bl	8007594 <memset>
	sprintf (msg, "CALB 0%d\r", NKPR);
 8003668:	19bb      	adds	r3, r7, r6
 800366a:	881a      	ldrh	r2, [r3, #0]
 800366c:	4939      	ldr	r1, [pc, #228]	@ (8003754 <setPGSfunk.5+0x174>)
 800366e:	197b      	adds	r3, r7, r5
 8003670:	0018      	movs	r0, r3
 8003672:	f003 ff6f 	bl	8007554 <siprintf>
	lcdPrintUpdate(20, 21, msg,   2);
 8003676:	197a      	adds	r2, r7, r5
 8003678:	46a4      	mov	ip, r4
 800367a:	2302      	movs	r3, #2
 800367c:	2115      	movs	r1, #21
 800367e:	2014      	movs	r0, #20
 8003680:	f7fe fff4 	bl	800266c <lcdPrintUpdate.10>
	HAL_Delay(800);
 8003684:	23c8      	movs	r3, #200	@ 0xc8
 8003686:	009b      	lsls	r3, r3, #2
 8003688:	0018      	movs	r0, r3
 800368a:	f001 fc47 	bl	8004f1c <HAL_Delay>
	uint8_t rx_buff[15]={0};
 800368e:	260c      	movs	r6, #12
 8003690:	19bb      	adds	r3, r7, r6
 8003692:	2200      	movs	r2, #0
 8003694:	601a      	str	r2, [r3, #0]
 8003696:	3304      	adds	r3, #4
 8003698:	220b      	movs	r2, #11
 800369a:	2100      	movs	r1, #0
 800369c:	0018      	movs	r0, r3
 800369e:	f003 ff79 	bl	8007594 <memset>
	MX_USART2_UART_Init();
 80036a2:	f000 fd4d 	bl	8004140 <MX_USART2_UART_Init>
	HAL_UART_Transmit(&huart2, msg, sizeof(msg), 50);
 80036a6:	1979      	adds	r1, r7, r5
 80036a8:	482b      	ldr	r0, [pc, #172]	@ (8003758 <setPGSfunk.5+0x178>)
 80036aa:	2332      	movs	r3, #50	@ 0x32
 80036ac:	220a      	movs	r2, #10
 80036ae:	f003 f9d1 	bl	8006a54 <HAL_UART_Transmit>
	HAL_UART_Receive(&huart2, rx_buff, 15, 50);
 80036b2:	19b9      	adds	r1, r7, r6
 80036b4:	4828      	ldr	r0, [pc, #160]	@ (8003758 <setPGSfunk.5+0x178>)
 80036b6:	2332      	movs	r3, #50	@ 0x32
 80036b8:	220f      	movs	r2, #15
 80036ba:	f003 fa6b 	bl	8006b94 <HAL_UART_Receive>
	lastPing = HAL_GetTick();
 80036be:	f001 fc23 	bl	8004f08 <HAL_GetTick>
 80036c2:	0002      	movs	r2, r0
 80036c4:	4b1b      	ldr	r3, [pc, #108]	@ (8003734 <setPGSfunk.5+0x154>)
 80036c6:	601a      	str	r2, [r3, #0]
	if (rx_buff[10]==0x4F && rx_buff[11]==0x4B){lcdPrintUpdate(10, 21, "    OK    ",  2); page = 2; selected = 3;}
 80036c8:	19bb      	adds	r3, r7, r6
 80036ca:	7a9b      	ldrb	r3, [r3, #10]
 80036cc:	2b4f      	cmp	r3, #79	@ 0x4f
 80036ce:	d111      	bne.n	80036f4 <setPGSfunk.5+0x114>
 80036d0:	19bb      	adds	r3, r7, r6
 80036d2:	7adb      	ldrb	r3, [r3, #11]
 80036d4:	2b4b      	cmp	r3, #75	@ 0x4b
 80036d6:	d10d      	bne.n	80036f4 <setPGSfunk.5+0x114>
 80036d8:	4a20      	ldr	r2, [pc, #128]	@ (800375c <setPGSfunk.5+0x17c>)
 80036da:	46a4      	mov	ip, r4
 80036dc:	2302      	movs	r3, #2
 80036de:	2115      	movs	r1, #21
 80036e0:	200a      	movs	r0, #10
 80036e2:	f7fe ffc3 	bl	800266c <lcdPrintUpdate.10>
 80036e6:	4b1e      	ldr	r3, [pc, #120]	@ (8003760 <setPGSfunk.5+0x180>)
 80036e8:	2202      	movs	r2, #2
 80036ea:	701a      	strb	r2, [r3, #0]
 80036ec:	4b14      	ldr	r3, [pc, #80]	@ (8003740 <setPGSfunk.5+0x160>)
 80036ee:	2203      	movs	r2, #3
 80036f0:	701a      	strb	r2, [r3, #0]
 80036f2:	e00c      	b.n	800370e <setPGSfunk.5+0x12e>
	else {lcdPrintUpdate(10, 21, "  FAULT    ",  2); page = 2; selected = 3;}
 80036f4:	4a1b      	ldr	r2, [pc, #108]	@ (8003764 <setPGSfunk.5+0x184>)
 80036f6:	46a4      	mov	ip, r4
 80036f8:	2302      	movs	r3, #2
 80036fa:	2115      	movs	r1, #21
 80036fc:	200a      	movs	r0, #10
 80036fe:	f7fe ffb5 	bl	800266c <lcdPrintUpdate.10>
 8003702:	4b17      	ldr	r3, [pc, #92]	@ (8003760 <setPGSfunk.5+0x180>)
 8003704:	2202      	movs	r2, #2
 8003706:	701a      	strb	r2, [r3, #0]
 8003708:	4b0d      	ldr	r3, [pc, #52]	@ (8003740 <setPGSfunk.5+0x160>)
 800370a:	2203      	movs	r2, #3
 800370c:	701a      	strb	r2, [r3, #0]
	HAL_GPIO_WritePin(GPIOC, GPIO_PIN_13, SET);
 800370e:	2380      	movs	r3, #128	@ 0x80
 8003710:	019b      	lsls	r3, r3, #6
 8003712:	480a      	ldr	r0, [pc, #40]	@ (800373c <setPGSfunk.5+0x15c>)
 8003714:	2201      	movs	r2, #1
 8003716:	0019      	movs	r1, r3
 8003718:	f001 fe65 	bl	80053e6 <HAL_GPIO_WritePin>
	HAL_Delay(1000);
 800371c:	23fa      	movs	r3, #250	@ 0xfa
 800371e:	009b      	lsls	r3, r3, #2
 8003720:	0018      	movs	r0, r3
 8003722:	f001 fbfb 	bl	8004f1c <HAL_Delay>
	SSD1306_Clear();
 8003726:	f001 f9a4 	bl	8004a72 <SSD1306_Clear>
}
 800372a:	46c0      	nop			@ (mov r8, r8)
 800372c:	46bd      	mov	sp, r7
 800372e:	b00b      	add	sp, #44	@ 0x2c
 8003730:	bdf0      	pop	{r4, r5, r6, r7, pc}
 8003732:	46c0      	nop			@ (mov r8, r8)
 8003734:	2000017c 	.word	0x2000017c
 8003738:	0000044b 	.word	0x0000044b
 800373c:	48000800 	.word	0x48000800
 8003740:	20000179 	.word	0x20000179
 8003744:	9999999a 	.word	0x9999999a
 8003748:	40119999 	.word	0x40119999
 800374c:	33333333 	.word	0x33333333
 8003750:	40683333 	.word	0x40683333
 8003754:	08008188 	.word	0x08008188
 8003758:	200000e8 	.word	0x200000e8
 800375c:	08008194 	.word	0x08008194
 8003760:	20000178 	.word	0x20000178
 8003764:	080081a0 	.word	0x080081a0

08003768 <pageSettingsDraw.16>:
void pageSettingsDraw(void){
 8003768:	b590      	push	{r4, r7, lr}
 800376a:	b083      	sub	sp, #12
 800376c:	af00      	add	r7, sp, #0
 800376e:	4664      	mov	r4, ip
 8003770:	4663      	mov	r3, ip
 8003772:	607b      	str	r3, [r7, #4]
	lcdPrint(0, 50, " Exit", 	 1);		if (selected == 0) {lcdPrint(0, 50, "-", 1);};
 8003774:	4a38      	ldr	r2, [pc, #224]	@ (8003858 <pageSettingsDraw.16+0xf0>)
 8003776:	46a4      	mov	ip, r4
 8003778:	2301      	movs	r3, #1
 800377a:	2132      	movs	r1, #50	@ 0x32
 800377c:	2000      	movs	r0, #0
 800377e:	f7fe fc49 	bl	8002014 <lcdPrint.0>
 8003782:	4b36      	ldr	r3, [pc, #216]	@ (800385c <pageSettingsDraw.16+0xf4>)
 8003784:	781b      	ldrb	r3, [r3, #0]
 8003786:	2b00      	cmp	r3, #0
 8003788:	d106      	bne.n	8003798 <pageSettingsDraw.16+0x30>
 800378a:	4a35      	ldr	r2, [pc, #212]	@ (8003860 <pageSettingsDraw.16+0xf8>)
 800378c:	46a4      	mov	ip, r4
 800378e:	2301      	movs	r3, #1
 8003790:	2132      	movs	r1, #50	@ 0x32
 8003792:	2000      	movs	r0, #0
 8003794:	f7fe fc3e 	bl	8002014 <lcdPrint.0>
	lcdPrint(0, 0,	" OEM/USR?",   1);		if (selected == 1) {lcdPrint(0, 0, "-", 1);};
 8003798:	4a32      	ldr	r2, [pc, #200]	@ (8003864 <pageSettingsDraw.16+0xfc>)
 800379a:	46a4      	mov	ip, r4
 800379c:	2301      	movs	r3, #1
 800379e:	2100      	movs	r1, #0
 80037a0:	2000      	movs	r0, #0
 80037a2:	f7fe fc37 	bl	8002014 <lcdPrint.0>
 80037a6:	4b2d      	ldr	r3, [pc, #180]	@ (800385c <pageSettingsDraw.16+0xf4>)
 80037a8:	781b      	ldrb	r3, [r3, #0]
 80037aa:	2b01      	cmp	r3, #1
 80037ac:	d106      	bne.n	80037bc <pageSettingsDraw.16+0x54>
 80037ae:	4a2c      	ldr	r2, [pc, #176]	@ (8003860 <pageSettingsDraw.16+0xf8>)
 80037b0:	46a4      	mov	ip, r4
 80037b2:	2301      	movs	r3, #1
 80037b4:	2100      	movs	r1, #0
 80037b6:	2000      	movs	r0, #0
 80037b8:	f7fe fc2c 	bl	8002014 <lcdPrint.0>
	lcdPrint(0, 10, " set OEM",	 1);		if (selected == 2) {lcdPrint(0, 10, "-", 1);};
 80037bc:	4a2a      	ldr	r2, [pc, #168]	@ (8003868 <pageSettingsDraw.16+0x100>)
 80037be:	46a4      	mov	ip, r4
 80037c0:	2301      	movs	r3, #1
 80037c2:	210a      	movs	r1, #10
 80037c4:	2000      	movs	r0, #0
 80037c6:	f7fe fc25 	bl	8002014 <lcdPrint.0>
 80037ca:	4b24      	ldr	r3, [pc, #144]	@ (800385c <pageSettingsDraw.16+0xf4>)
 80037cc:	781b      	ldrb	r3, [r3, #0]
 80037ce:	2b02      	cmp	r3, #2
 80037d0:	d106      	bne.n	80037e0 <pageSettingsDraw.16+0x78>
 80037d2:	4a23      	ldr	r2, [pc, #140]	@ (8003860 <pageSettingsDraw.16+0xf8>)
 80037d4:	46a4      	mov	ip, r4
 80037d6:	2301      	movs	r3, #1
 80037d8:	210a      	movs	r1, #10
 80037da:	2000      	movs	r0, #0
 80037dc:	f7fe fc1a 	bl	8002014 <lcdPrint.0>
	lcdPrint(0, 20, " set USER",	 1);	if (selected == 3) {lcdPrint(0, 20, "-", 1);};
 80037e0:	4a22      	ldr	r2, [pc, #136]	@ (800386c <pageSettingsDraw.16+0x104>)
 80037e2:	46a4      	mov	ip, r4
 80037e4:	2301      	movs	r3, #1
 80037e6:	2114      	movs	r1, #20
 80037e8:	2000      	movs	r0, #0
 80037ea:	f7fe fc13 	bl	8002014 <lcdPrint.0>
 80037ee:	4b1b      	ldr	r3, [pc, #108]	@ (800385c <pageSettingsDraw.16+0xf4>)
 80037f0:	781b      	ldrb	r3, [r3, #0]
 80037f2:	2b03      	cmp	r3, #3
 80037f4:	d106      	bne.n	8003804 <pageSettingsDraw.16+0x9c>
 80037f6:	4a1a      	ldr	r2, [pc, #104]	@ (8003860 <pageSettingsDraw.16+0xf8>)
 80037f8:	46a4      	mov	ip, r4
 80037fa:	2301      	movs	r3, #1
 80037fc:	2114      	movs	r1, #20
 80037fe:	2000      	movs	r0, #0
 8003800:	f7fe fc08 	bl	8002014 <lcdPrint.0>
	lcdPrint(0, 30, " LOWPWR_0",	 1);	if (selected == 4) {lcdPrint(0, 30, "-", 1);};
 8003804:	4a1a      	ldr	r2, [pc, #104]	@ (8003870 <pageSettingsDraw.16+0x108>)
 8003806:	46a4      	mov	ip, r4
 8003808:	2301      	movs	r3, #1
 800380a:	211e      	movs	r1, #30
 800380c:	2000      	movs	r0, #0
 800380e:	f7fe fc01 	bl	8002014 <lcdPrint.0>
 8003812:	4b12      	ldr	r3, [pc, #72]	@ (800385c <pageSettingsDraw.16+0xf4>)
 8003814:	781b      	ldrb	r3, [r3, #0]
 8003816:	2b04      	cmp	r3, #4
 8003818:	d106      	bne.n	8003828 <pageSettingsDraw.16+0xc0>
 800381a:	4a11      	ldr	r2, [pc, #68]	@ (8003860 <pageSettingsDraw.16+0xf8>)
 800381c:	46a4      	mov	ip, r4
 800381e:	2301      	movs	r3, #1
 8003820:	211e      	movs	r1, #30
 8003822:	2000      	movs	r0, #0
 8003824:	f7fe fbf6 	bl	8002014 <lcdPrint.0>
	lcdPrint(0, 40, " LOWPWR_1",	 1);	if (selected == 5) {lcdPrint(0, 40, "-", 1);};
 8003828:	4a12      	ldr	r2, [pc, #72]	@ (8003874 <pageSettingsDraw.16+0x10c>)
 800382a:	46a4      	mov	ip, r4
 800382c:	2301      	movs	r3, #1
 800382e:	2128      	movs	r1, #40	@ 0x28
 8003830:	2000      	movs	r0, #0
 8003832:	f7fe fbef 	bl	8002014 <lcdPrint.0>
 8003836:	4b09      	ldr	r3, [pc, #36]	@ (800385c <pageSettingsDraw.16+0xf4>)
 8003838:	781b      	ldrb	r3, [r3, #0]
 800383a:	2b05      	cmp	r3, #5
 800383c:	d106      	bne.n	800384c <pageSettingsDraw.16+0xe4>
 800383e:	4a08      	ldr	r2, [pc, #32]	@ (8003860 <pageSettingsDraw.16+0xf8>)
 8003840:	46a4      	mov	ip, r4
 8003842:	2301      	movs	r3, #1
 8003844:	2128      	movs	r1, #40	@ 0x28
 8003846:	2000      	movs	r0, #0
 8003848:	f7fe fbe4 	bl	8002014 <lcdPrint.0>
	SSD1306_UpdateScreen();
 800384c:	f000 fe06 	bl	800445c <SSD1306_UpdateScreen>
}
 8003850:	46c0      	nop			@ (mov r8, r8)
 8003852:	46bd      	mov	sp, r7
 8003854:	b003      	add	sp, #12
 8003856:	bd90      	pop	{r4, r7, pc}
 8003858:	080080ac 	.word	0x080080ac
 800385c:	20000179 	.word	0x20000179
 8003860:	080080b4 	.word	0x080080b4
 8003864:	080081ac 	.word	0x080081ac
 8003868:	080081b8 	.word	0x080081b8
 800386c:	080081c4 	.word	0x080081c4
 8003870:	080081d0 	.word	0x080081d0
 8003874:	080081dc 	.word	0x080081dc

08003878 <oemUserQuestion.6>:
void oemUserQuestion(void){
 8003878:	b5f0      	push	{r4, r5, r6, r7, lr}
 800387a:	b089      	sub	sp, #36	@ 0x24
 800387c:	af00      	add	r7, sp, #0
 800387e:	4664      	mov	r4, ip
 8003880:	4663      	mov	r3, ip
 8003882:	607b      	str	r3, [r7, #4]
	while (HAL_GetTick()-lastPing < 1100) { }
 8003884:	46c0      	nop			@ (mov r8, r8)
 8003886:	f001 fb3f 	bl	8004f08 <HAL_GetTick>
 800388a:	0002      	movs	r2, r0
 800388c:	4b34      	ldr	r3, [pc, #208]	@ (8003960 <oemUserQuestion.6+0xe8>)
 800388e:	681b      	ldr	r3, [r3, #0]
 8003890:	1ad3      	subs	r3, r2, r3
 8003892:	4a34      	ldr	r2, [pc, #208]	@ (8003964 <oemUserQuestion.6+0xec>)
 8003894:	4293      	cmp	r3, r2
 8003896:	d9f6      	bls.n	8003886 <oemUserQuestion.6+0xe>
		HAL_GPIO_WritePin(GPIOC, GPIO_PIN_13, RESET);
 8003898:	2380      	movs	r3, #128	@ 0x80
 800389a:	019b      	lsls	r3, r3, #6
 800389c:	4832      	ldr	r0, [pc, #200]	@ (8003968 <oemUserQuestion.6+0xf0>)
 800389e:	2200      	movs	r2, #0
 80038a0:	0019      	movs	r1, r3
 80038a2:	f001 fda0 	bl	80053e6 <HAL_GPIO_WritePin>
		lcdPrint(7, 0,	"        ",   1);
 80038a6:	4a31      	ldr	r2, [pc, #196]	@ (800396c <oemUserQuestion.6+0xf4>)
 80038a8:	46a4      	mov	ip, r4
 80038aa:	2301      	movs	r3, #1
 80038ac:	2100      	movs	r1, #0
 80038ae:	2007      	movs	r0, #7
 80038b0:	f7fe fbb0 	bl	8002014 <lcdPrint.0>
		uint8_t msg[]="UART?\r";	uint8_t rx_buff[10]={0};	MX_USART2_UART_Init();
 80038b4:	2618      	movs	r6, #24
 80038b6:	19bb      	adds	r3, r7, r6
 80038b8:	4a2d      	ldr	r2, [pc, #180]	@ (8003970 <oemUserQuestion.6+0xf8>)
 80038ba:	6811      	ldr	r1, [r2, #0]
 80038bc:	6019      	str	r1, [r3, #0]
 80038be:	8891      	ldrh	r1, [r2, #4]
 80038c0:	8099      	strh	r1, [r3, #4]
 80038c2:	7992      	ldrb	r2, [r2, #6]
 80038c4:	719a      	strb	r2, [r3, #6]
 80038c6:	250c      	movs	r5, #12
 80038c8:	197b      	adds	r3, r7, r5
 80038ca:	2200      	movs	r2, #0
 80038cc:	601a      	str	r2, [r3, #0]
 80038ce:	3304      	adds	r3, #4
 80038d0:	2206      	movs	r2, #6
 80038d2:	2100      	movs	r1, #0
 80038d4:	0018      	movs	r0, r3
 80038d6:	f003 fe5d 	bl	8007594 <memset>
 80038da:	f000 fc31 	bl	8004140 <MX_USART2_UART_Init>
		HAL_UART_Transmit(&huart2, msg, sizeof(msg), 50);
 80038de:	19b9      	adds	r1, r7, r6
 80038e0:	4824      	ldr	r0, [pc, #144]	@ (8003974 <oemUserQuestion.6+0xfc>)
 80038e2:	2332      	movs	r3, #50	@ 0x32
 80038e4:	2207      	movs	r2, #7
 80038e6:	f003 f8b5 	bl	8006a54 <HAL_UART_Transmit>
		HAL_UART_Receive(&huart2, rx_buff, 10, 50);
 80038ea:	1979      	adds	r1, r7, r5
 80038ec:	4821      	ldr	r0, [pc, #132]	@ (8003974 <oemUserQuestion.6+0xfc>)
 80038ee:	2332      	movs	r3, #50	@ 0x32
 80038f0:	220a      	movs	r2, #10
 80038f2:	f003 f94f 	bl	8006b94 <HAL_UART_Receive>
		lastPing = HAL_GetTick();
 80038f6:	f001 fb07 	bl	8004f08 <HAL_GetTick>
 80038fa:	0002      	movs	r2, r0
 80038fc:	4b18      	ldr	r3, [pc, #96]	@ (8003960 <oemUserQuestion.6+0xe8>)
 80038fe:	601a      	str	r2, [r3, #0]
		if (rx_buff[0] == 0x4F ) {lcdPrintUpdate(7, 0, "OEM",  1);}
 8003900:	197b      	adds	r3, r7, r5
 8003902:	781b      	ldrb	r3, [r3, #0]
 8003904:	2b4f      	cmp	r3, #79	@ 0x4f
 8003906:	d107      	bne.n	8003918 <oemUserQuestion.6+0xa0>
 8003908:	4a1b      	ldr	r2, [pc, #108]	@ (8003978 <oemUserQuestion.6+0x100>)
 800390a:	46a4      	mov	ip, r4
 800390c:	2301      	movs	r3, #1
 800390e:	2100      	movs	r1, #0
 8003910:	2007      	movs	r0, #7
 8003912:	f7fe feab 	bl	800266c <lcdPrintUpdate.10>
 8003916:	e013      	b.n	8003940 <oemUserQuestion.6+0xc8>
		else if (rx_buff[0] == 0x55 ) {lcdPrintUpdate(7, 0, "USER",  1);}
 8003918:	230c      	movs	r3, #12
 800391a:	18fb      	adds	r3, r7, r3
 800391c:	781b      	ldrb	r3, [r3, #0]
 800391e:	2b55      	cmp	r3, #85	@ 0x55
 8003920:	d107      	bne.n	8003932 <oemUserQuestion.6+0xba>
 8003922:	4a16      	ldr	r2, [pc, #88]	@ (800397c <oemUserQuestion.6+0x104>)
 8003924:	46a4      	mov	ip, r4
 8003926:	2301      	movs	r3, #1
 8003928:	2100      	movs	r1, #0
 800392a:	2007      	movs	r0, #7
 800392c:	f7fe fe9e 	bl	800266c <lcdPrintUpdate.10>
 8003930:	e006      	b.n	8003940 <oemUserQuestion.6+0xc8>
		else {lcdPrintUpdate(7, 0, "FAULT",  1);}
 8003932:	4a13      	ldr	r2, [pc, #76]	@ (8003980 <oemUserQuestion.6+0x108>)
 8003934:	46a4      	mov	ip, r4
 8003936:	2301      	movs	r3, #1
 8003938:	2100      	movs	r1, #0
 800393a:	2007      	movs	r0, #7
 800393c:	f7fe fe96 	bl	800266c <lcdPrintUpdate.10>
		HAL_GPIO_WritePin(GPIOC, GPIO_PIN_13, SET);
 8003940:	2380      	movs	r3, #128	@ 0x80
 8003942:	019b      	lsls	r3, r3, #6
 8003944:	4808      	ldr	r0, [pc, #32]	@ (8003968 <oemUserQuestion.6+0xf0>)
 8003946:	2201      	movs	r2, #1
 8003948:	0019      	movs	r1, r3
 800394a:	f001 fd4c 	bl	80053e6 <HAL_GPIO_WritePin>
		HAL_Delay(1000);
 800394e:	23fa      	movs	r3, #250	@ 0xfa
 8003950:	009b      	lsls	r3, r3, #2
 8003952:	0018      	movs	r0, r3
 8003954:	f001 fae2 	bl	8004f1c <HAL_Delay>
}
 8003958:	46c0      	nop			@ (mov r8, r8)
 800395a:	46bd      	mov	sp, r7
 800395c:	b009      	add	sp, #36	@ 0x24
 800395e:	bdf0      	pop	{r4, r5, r6, r7, pc}
 8003960:	2000017c 	.word	0x2000017c
 8003964:	0000044b 	.word	0x0000044b
 8003968:	48000800 	.word	0x48000800
 800396c:	080081e8 	.word	0x080081e8
 8003970:	08008208 	.word	0x08008208
 8003974:	200000e8 	.word	0x200000e8
 8003978:	080081f4 	.word	0x080081f4
 800397c:	080081f8 	.word	0x080081f8
 8003980:	08008200 	.word	0x08008200

08003984 <oem.7>:
void oem(void){
 8003984:	b5f0      	push	{r4, r5, r6, r7, lr}
 8003986:	b089      	sub	sp, #36	@ 0x24
 8003988:	af00      	add	r7, sp, #0
 800398a:	4664      	mov	r4, ip
 800398c:	4663      	mov	r3, ip
 800398e:	607b      	str	r3, [r7, #4]
	while (HAL_GetTick()-lastPing < 1100) { }
 8003990:	46c0      	nop			@ (mov r8, r8)
 8003992:	f001 fab9 	bl	8004f08 <HAL_GetTick>
 8003996:	0002      	movs	r2, r0
 8003998:	4b2d      	ldr	r3, [pc, #180]	@ (8003a50 <oem.7+0xcc>)
 800399a:	681b      	ldr	r3, [r3, #0]
 800399c:	1ad3      	subs	r3, r2, r3
 800399e:	4a2d      	ldr	r2, [pc, #180]	@ (8003a54 <oem.7+0xd0>)
 80039a0:	4293      	cmp	r3, r2
 80039a2:	d9f6      	bls.n	8003992 <oem.7+0xe>
		HAL_GPIO_WritePin(GPIOC, GPIO_PIN_13, RESET);
 80039a4:	2380      	movs	r3, #128	@ 0x80
 80039a6:	019b      	lsls	r3, r3, #6
 80039a8:	482b      	ldr	r0, [pc, #172]	@ (8003a58 <oem.7+0xd4>)
 80039aa:	2200      	movs	r2, #0
 80039ac:	0019      	movs	r1, r3
 80039ae:	f001 fd1a 	bl	80053e6 <HAL_GPIO_WritePin>
		lcdPrint(7, 10,	"        ",   1);
 80039b2:	4a2a      	ldr	r2, [pc, #168]	@ (8003a5c <oem.7+0xd8>)
 80039b4:	46a4      	mov	ip, r4
 80039b6:	2301      	movs	r3, #1
 80039b8:	210a      	movs	r1, #10
 80039ba:	2007      	movs	r0, #7
 80039bc:	f7fe fb2a 	bl	8002014 <lcdPrint.0>
		uint8_t msg[]="OEM 0000\r";	uint8_t rx_buff[10]={0};	MX_USART2_UART_Init();
 80039c0:	2614      	movs	r6, #20
 80039c2:	19bb      	adds	r3, r7, r6
 80039c4:	4a26      	ldr	r2, [pc, #152]	@ (8003a60 <oem.7+0xdc>)
 80039c6:	ca03      	ldmia	r2!, {r0, r1}
 80039c8:	c303      	stmia	r3!, {r0, r1}
 80039ca:	8812      	ldrh	r2, [r2, #0]
 80039cc:	801a      	strh	r2, [r3, #0]
 80039ce:	2508      	movs	r5, #8
 80039d0:	197b      	adds	r3, r7, r5
 80039d2:	2200      	movs	r2, #0
 80039d4:	601a      	str	r2, [r3, #0]
 80039d6:	3304      	adds	r3, #4
 80039d8:	2206      	movs	r2, #6
 80039da:	2100      	movs	r1, #0
 80039dc:	0018      	movs	r0, r3
 80039de:	f003 fdd9 	bl	8007594 <memset>
 80039e2:	f000 fbad 	bl	8004140 <MX_USART2_UART_Init>
		HAL_UART_Transmit(&huart2, msg, sizeof(msg), 50);
 80039e6:	19b9      	adds	r1, r7, r6
 80039e8:	481e      	ldr	r0, [pc, #120]	@ (8003a64 <oem.7+0xe0>)
 80039ea:	2332      	movs	r3, #50	@ 0x32
 80039ec:	220a      	movs	r2, #10
 80039ee:	f003 f831 	bl	8006a54 <HAL_UART_Transmit>
		HAL_UART_Receive(&huart2, rx_buff, 10, 50);
 80039f2:	1979      	adds	r1, r7, r5
 80039f4:	481b      	ldr	r0, [pc, #108]	@ (8003a64 <oem.7+0xe0>)
 80039f6:	2332      	movs	r3, #50	@ 0x32
 80039f8:	220a      	movs	r2, #10
 80039fa:	f003 f8cb 	bl	8006b94 <HAL_UART_Receive>
		lastPing = HAL_GetTick();
 80039fe:	f001 fa83 	bl	8004f08 <HAL_GetTick>
 8003a02:	0002      	movs	r2, r0
 8003a04:	4b12      	ldr	r3, [pc, #72]	@ (8003a50 <oem.7+0xcc>)
 8003a06:	601a      	str	r2, [r3, #0]
		if (rx_buff[0] == 0x4F ) {lcdPrintUpdate(7, 10, "OK",  1);}
 8003a08:	197b      	adds	r3, r7, r5
 8003a0a:	781b      	ldrb	r3, [r3, #0]
 8003a0c:	2b4f      	cmp	r3, #79	@ 0x4f
 8003a0e:	d107      	bne.n	8003a20 <oem.7+0x9c>
 8003a10:	4a15      	ldr	r2, [pc, #84]	@ (8003a68 <oem.7+0xe4>)
 8003a12:	46a4      	mov	ip, r4
 8003a14:	2301      	movs	r3, #1
 8003a16:	210a      	movs	r1, #10
 8003a18:	2007      	movs	r0, #7
 8003a1a:	f7fe fe27 	bl	800266c <lcdPrintUpdate.10>
 8003a1e:	e006      	b.n	8003a2e <oem.7+0xaa>
		else {lcdPrintUpdate(7, 10, "FAULT",  1);}
 8003a20:	4a12      	ldr	r2, [pc, #72]	@ (8003a6c <oem.7+0xe8>)
 8003a22:	46a4      	mov	ip, r4
 8003a24:	2301      	movs	r3, #1
 8003a26:	210a      	movs	r1, #10
 8003a28:	2007      	movs	r0, #7
 8003a2a:	f7fe fe1f 	bl	800266c <lcdPrintUpdate.10>
		HAL_GPIO_WritePin(GPIOC, GPIO_PIN_13, SET);
 8003a2e:	2380      	movs	r3, #128	@ 0x80
 8003a30:	019b      	lsls	r3, r3, #6
 8003a32:	4809      	ldr	r0, [pc, #36]	@ (8003a58 <oem.7+0xd4>)
 8003a34:	2201      	movs	r2, #1
 8003a36:	0019      	movs	r1, r3
 8003a38:	f001 fcd5 	bl	80053e6 <HAL_GPIO_WritePin>
		HAL_Delay(1000);
 8003a3c:	23fa      	movs	r3, #250	@ 0xfa
 8003a3e:	009b      	lsls	r3, r3, #2
 8003a40:	0018      	movs	r0, r3
 8003a42:	f001 fa6b 	bl	8004f1c <HAL_Delay>
}
 8003a46:	46c0      	nop			@ (mov r8, r8)
 8003a48:	46bd      	mov	sp, r7
 8003a4a:	b009      	add	sp, #36	@ 0x24
 8003a4c:	bdf0      	pop	{r4, r5, r6, r7, pc}
 8003a4e:	46c0      	nop			@ (mov r8, r8)
 8003a50:	2000017c 	.word	0x2000017c
 8003a54:	0000044b 	.word	0x0000044b
 8003a58:	48000800 	.word	0x48000800
 8003a5c:	080081e8 	.word	0x080081e8
 8003a60:	08008210 	.word	0x08008210
 8003a64:	200000e8 	.word	0x200000e8
 8003a68:	08007f9c 	.word	0x08007f9c
 8003a6c:	08008200 	.word	0x08008200

08003a70 <user.8>:
void user(void){
 8003a70:	b5f0      	push	{r4, r5, r6, r7, lr}
 8003a72:	b089      	sub	sp, #36	@ 0x24
 8003a74:	af00      	add	r7, sp, #0
 8003a76:	4664      	mov	r4, ip
 8003a78:	4663      	mov	r3, ip
 8003a7a:	607b      	str	r3, [r7, #4]
	while (HAL_GetTick()-lastPing < 1100) { }
 8003a7c:	46c0      	nop			@ (mov r8, r8)
 8003a7e:	f001 fa43 	bl	8004f08 <HAL_GetTick>
 8003a82:	0002      	movs	r2, r0
 8003a84:	4b2d      	ldr	r3, [pc, #180]	@ (8003b3c <user.8+0xcc>)
 8003a86:	681b      	ldr	r3, [r3, #0]
 8003a88:	1ad3      	subs	r3, r2, r3
 8003a8a:	4a2d      	ldr	r2, [pc, #180]	@ (8003b40 <user.8+0xd0>)
 8003a8c:	4293      	cmp	r3, r2
 8003a8e:	d9f6      	bls.n	8003a7e <user.8+0xe>
		HAL_GPIO_WritePin(GPIOC, GPIO_PIN_13, RESET);
 8003a90:	2380      	movs	r3, #128	@ 0x80
 8003a92:	019b      	lsls	r3, r3, #6
 8003a94:	482b      	ldr	r0, [pc, #172]	@ (8003b44 <user.8+0xd4>)
 8003a96:	2200      	movs	r2, #0
 8003a98:	0019      	movs	r1, r3
 8003a9a:	f001 fca4 	bl	80053e6 <HAL_GPIO_WritePin>
		lcdPrint(7, 20,	"        ",   1);
 8003a9e:	4a2a      	ldr	r2, [pc, #168]	@ (8003b48 <user.8+0xd8>)
 8003aa0:	46a4      	mov	ip, r4
 8003aa2:	2301      	movs	r3, #1
 8003aa4:	2114      	movs	r1, #20
 8003aa6:	2007      	movs	r0, #7
 8003aa8:	f7fe fab4 	bl	8002014 <lcdPrint.0>
		uint8_t msg[]="USER\r";	uint8_t rx_buff[10]={0};	MX_USART2_UART_Init();
 8003aac:	2618      	movs	r6, #24
 8003aae:	19bb      	adds	r3, r7, r6
 8003ab0:	4a26      	ldr	r2, [pc, #152]	@ (8003b4c <user.8+0xdc>)
 8003ab2:	6811      	ldr	r1, [r2, #0]
 8003ab4:	6019      	str	r1, [r3, #0]
 8003ab6:	8892      	ldrh	r2, [r2, #4]
 8003ab8:	809a      	strh	r2, [r3, #4]
 8003aba:	250c      	movs	r5, #12
 8003abc:	197b      	adds	r3, r7, r5
 8003abe:	2200      	movs	r2, #0
 8003ac0:	601a      	str	r2, [r3, #0]
 8003ac2:	3304      	adds	r3, #4
 8003ac4:	2206      	movs	r2, #6
 8003ac6:	2100      	movs	r1, #0
 8003ac8:	0018      	movs	r0, r3
 8003aca:	f003 fd63 	bl	8007594 <memset>
 8003ace:	f000 fb37 	bl	8004140 <MX_USART2_UART_Init>
		HAL_UART_Transmit(&huart2, msg, sizeof(msg), 50);
 8003ad2:	19b9      	adds	r1, r7, r6
 8003ad4:	481e      	ldr	r0, [pc, #120]	@ (8003b50 <user.8+0xe0>)
 8003ad6:	2332      	movs	r3, #50	@ 0x32
 8003ad8:	2206      	movs	r2, #6
 8003ada:	f002 ffbb 	bl	8006a54 <HAL_UART_Transmit>
		HAL_UART_Receive(&huart2, rx_buff, 10, 50);
 8003ade:	1979      	adds	r1, r7, r5
 8003ae0:	481b      	ldr	r0, [pc, #108]	@ (8003b50 <user.8+0xe0>)
 8003ae2:	2332      	movs	r3, #50	@ 0x32
 8003ae4:	220a      	movs	r2, #10
 8003ae6:	f003 f855 	bl	8006b94 <HAL_UART_Receive>
		lastPing = HAL_GetTick();
 8003aea:	f001 fa0d 	bl	8004f08 <HAL_GetTick>
 8003aee:	0002      	movs	r2, r0
 8003af0:	4b12      	ldr	r3, [pc, #72]	@ (8003b3c <user.8+0xcc>)
 8003af2:	601a      	str	r2, [r3, #0]
		if (rx_buff[0] == 0x55 ) {lcdPrintUpdate(7, 20, "OK",  1);}
 8003af4:	197b      	adds	r3, r7, r5
 8003af6:	781b      	ldrb	r3, [r3, #0]
 8003af8:	2b55      	cmp	r3, #85	@ 0x55
 8003afa:	d107      	bne.n	8003b0c <user.8+0x9c>
 8003afc:	4a15      	ldr	r2, [pc, #84]	@ (8003b54 <user.8+0xe4>)
 8003afe:	46a4      	mov	ip, r4
 8003b00:	2301      	movs	r3, #1
 8003b02:	2114      	movs	r1, #20
 8003b04:	2007      	movs	r0, #7
 8003b06:	f7fe fdb1 	bl	800266c <lcdPrintUpdate.10>
 8003b0a:	e006      	b.n	8003b1a <user.8+0xaa>
		else {lcdPrintUpdate(7, 20, "FAULT",  1);}
 8003b0c:	4a12      	ldr	r2, [pc, #72]	@ (8003b58 <user.8+0xe8>)
 8003b0e:	46a4      	mov	ip, r4
 8003b10:	2301      	movs	r3, #1
 8003b12:	2114      	movs	r1, #20
 8003b14:	2007      	movs	r0, #7
 8003b16:	f7fe fda9 	bl	800266c <lcdPrintUpdate.10>
		HAL_GPIO_WritePin(GPIOC, GPIO_PIN_13, SET);
 8003b1a:	2380      	movs	r3, #128	@ 0x80
 8003b1c:	019b      	lsls	r3, r3, #6
 8003b1e:	4809      	ldr	r0, [pc, #36]	@ (8003b44 <user.8+0xd4>)
 8003b20:	2201      	movs	r2, #1
 8003b22:	0019      	movs	r1, r3
 8003b24:	f001 fc5f 	bl	80053e6 <HAL_GPIO_WritePin>
		HAL_Delay(1000);
 8003b28:	23fa      	movs	r3, #250	@ 0xfa
 8003b2a:	009b      	lsls	r3, r3, #2
 8003b2c:	0018      	movs	r0, r3
 8003b2e:	f001 f9f5 	bl	8004f1c <HAL_Delay>
}
 8003b32:	46c0      	nop			@ (mov r8, r8)
 8003b34:	46bd      	mov	sp, r7
 8003b36:	b009      	add	sp, #36	@ 0x24
 8003b38:	bdf0      	pop	{r4, r5, r6, r7, pc}
 8003b3a:	46c0      	nop			@ (mov r8, r8)
 8003b3c:	2000017c 	.word	0x2000017c
 8003b40:	0000044b 	.word	0x0000044b
 8003b44:	48000800 	.word	0x48000800
 8003b48:	080081e8 	.word	0x080081e8
 8003b4c:	0800821c 	.word	0x0800821c
 8003b50:	200000e8 	.word	0x200000e8
 8003b54:	08007f9c 	.word	0x08007f9c
 8003b58:	08008200 	.word	0x08008200

08003b5c <LOWPWR0.9>:
void LOWPWR0(void){
 8003b5c:	b5f0      	push	{r4, r5, r6, r7, lr}
 8003b5e:	b089      	sub	sp, #36	@ 0x24
 8003b60:	af00      	add	r7, sp, #0
 8003b62:	4664      	mov	r4, ip
 8003b64:	4663      	mov	r3, ip
 8003b66:	607b      	str	r3, [r7, #4]
	while (HAL_GetTick()-lastPing < 1100) { }
 8003b68:	46c0      	nop			@ (mov r8, r8)
 8003b6a:	f001 f9cd 	bl	8004f08 <HAL_GetTick>
 8003b6e:	0002      	movs	r2, r0
 8003b70:	4b2c      	ldr	r3, [pc, #176]	@ (8003c24 <LOWPWR0.9+0xc8>)
 8003b72:	681b      	ldr	r3, [r3, #0]
 8003b74:	1ad3      	subs	r3, r2, r3
 8003b76:	4a2c      	ldr	r2, [pc, #176]	@ (8003c28 <LOWPWR0.9+0xcc>)
 8003b78:	4293      	cmp	r3, r2
 8003b7a:	d9f6      	bls.n	8003b6a <LOWPWR0.9+0xe>
		lcdPrint(7, 30,	"        ",   1);
 8003b7c:	4a2b      	ldr	r2, [pc, #172]	@ (8003c2c <LOWPWR0.9+0xd0>)
 8003b7e:	46a4      	mov	ip, r4
 8003b80:	2301      	movs	r3, #1
 8003b82:	211e      	movs	r1, #30
 8003b84:	2007      	movs	r0, #7
 8003b86:	f7fe fa45 	bl	8002014 <lcdPrint.0>
		uint8_t rx_buff[15]={0};
 8003b8a:	2510      	movs	r5, #16
 8003b8c:	197b      	adds	r3, r7, r5
 8003b8e:	2200      	movs	r2, #0
 8003b90:	601a      	str	r2, [r3, #0]
 8003b92:	3304      	adds	r3, #4
 8003b94:	220b      	movs	r2, #11
 8003b96:	2100      	movs	r1, #0
 8003b98:	0018      	movs	r0, r3
 8003b9a:	f003 fcfb 	bl	8007594 <memset>
		HAL_GPIO_WritePin(GPIOC, GPIO_PIN_13, RESET);
 8003b9e:	2380      	movs	r3, #128	@ 0x80
 8003ba0:	019b      	lsls	r3, r3, #6
 8003ba2:	4823      	ldr	r0, [pc, #140]	@ (8003c30 <LOWPWR0.9+0xd4>)
 8003ba4:	2200      	movs	r2, #0
 8003ba6:	0019      	movs	r1, r3
 8003ba8:	f001 fc1d 	bl	80053e6 <HAL_GPIO_WritePin>
		uint8_t msg[]="LOWPW0\r";
 8003bac:	2608      	movs	r6, #8
 8003bae:	19bb      	adds	r3, r7, r6
 8003bb0:	4a20      	ldr	r2, [pc, #128]	@ (8003c34 <LOWPWR0.9+0xd8>)
 8003bb2:	ca03      	ldmia	r2!, {r0, r1}
 8003bb4:	c303      	stmia	r3!, {r0, r1}
		MX_USART2_UART_Init();
 8003bb6:	f000 fac3 	bl	8004140 <MX_USART2_UART_Init>
		HAL_UART_Transmit(&huart2, msg, sizeof(msg), 50);
 8003bba:	19b9      	adds	r1, r7, r6
 8003bbc:	481e      	ldr	r0, [pc, #120]	@ (8003c38 <LOWPWR0.9+0xdc>)
 8003bbe:	2332      	movs	r3, #50	@ 0x32
 8003bc0:	2208      	movs	r2, #8
 8003bc2:	f002 ff47 	bl	8006a54 <HAL_UART_Transmit>
		HAL_UART_Receive(&huart2, rx_buff, 15, 50);
 8003bc6:	1979      	adds	r1, r7, r5
 8003bc8:	481b      	ldr	r0, [pc, #108]	@ (8003c38 <LOWPWR0.9+0xdc>)
 8003bca:	2332      	movs	r3, #50	@ 0x32
 8003bcc:	220f      	movs	r2, #15
 8003bce:	f002 ffe1 	bl	8006b94 <HAL_UART_Receive>
		lastPing = HAL_GetTick();
 8003bd2:	f001 f999 	bl	8004f08 <HAL_GetTick>
 8003bd6:	0002      	movs	r2, r0
 8003bd8:	4b12      	ldr	r3, [pc, #72]	@ (8003c24 <LOWPWR0.9+0xc8>)
 8003bda:	601a      	str	r2, [r3, #0]
		if (rx_buff[7] == 0x4F ) {lcdPrintUpdate(7, 30, "OK",  1);}
 8003bdc:	197b      	adds	r3, r7, r5
 8003bde:	79db      	ldrb	r3, [r3, #7]
 8003be0:	2b4f      	cmp	r3, #79	@ 0x4f
 8003be2:	d107      	bne.n	8003bf4 <LOWPWR0.9+0x98>
 8003be4:	4a15      	ldr	r2, [pc, #84]	@ (8003c3c <LOWPWR0.9+0xe0>)
 8003be6:	46a4      	mov	ip, r4
 8003be8:	2301      	movs	r3, #1
 8003bea:	211e      	movs	r1, #30
 8003bec:	2007      	movs	r0, #7
 8003bee:	f7fe fd3d 	bl	800266c <lcdPrintUpdate.10>
 8003bf2:	e006      	b.n	8003c02 <LOWPWR0.9+0xa6>
		else {lcdPrintUpdate(7, 30, "FAULT",  1);}
 8003bf4:	4a12      	ldr	r2, [pc, #72]	@ (8003c40 <LOWPWR0.9+0xe4>)
 8003bf6:	46a4      	mov	ip, r4
 8003bf8:	2301      	movs	r3, #1
 8003bfa:	211e      	movs	r1, #30
 8003bfc:	2007      	movs	r0, #7
 8003bfe:	f7fe fd35 	bl	800266c <lcdPrintUpdate.10>
		HAL_GPIO_WritePin(GPIOC, GPIO_PIN_13, SET);
 8003c02:	2380      	movs	r3, #128	@ 0x80
 8003c04:	019b      	lsls	r3, r3, #6
 8003c06:	480a      	ldr	r0, [pc, #40]	@ (8003c30 <LOWPWR0.9+0xd4>)
 8003c08:	2201      	movs	r2, #1
 8003c0a:	0019      	movs	r1, r3
 8003c0c:	f001 fbeb 	bl	80053e6 <HAL_GPIO_WritePin>
		HAL_Delay(1000);
 8003c10:	23fa      	movs	r3, #250	@ 0xfa
 8003c12:	009b      	lsls	r3, r3, #2
 8003c14:	0018      	movs	r0, r3
 8003c16:	f001 f981 	bl	8004f1c <HAL_Delay>
}
 8003c1a:	46c0      	nop			@ (mov r8, r8)
 8003c1c:	46bd      	mov	sp, r7
 8003c1e:	b009      	add	sp, #36	@ 0x24
 8003c20:	bdf0      	pop	{r4, r5, r6, r7, pc}
 8003c22:	46c0      	nop			@ (mov r8, r8)
 8003c24:	2000017c 	.word	0x2000017c
 8003c28:	0000044b 	.word	0x0000044b
 8003c2c:	080081e8 	.word	0x080081e8
 8003c30:	48000800 	.word	0x48000800
 8003c34:	08008224 	.word	0x08008224
 8003c38:	200000e8 	.word	0x200000e8
 8003c3c:	08007f9c 	.word	0x08007f9c
 8003c40:	08008200 	.word	0x08008200

08003c44 <LOWPWR1.11>:
void LOWPWR1(void){
 8003c44:	b5f0      	push	{r4, r5, r6, r7, lr}
 8003c46:	b089      	sub	sp, #36	@ 0x24
 8003c48:	af00      	add	r7, sp, #0
 8003c4a:	4664      	mov	r4, ip
 8003c4c:	4663      	mov	r3, ip
 8003c4e:	607b      	str	r3, [r7, #4]
	while (HAL_GetTick()-lastPing < 1100) { }
 8003c50:	46c0      	nop			@ (mov r8, r8)
 8003c52:	f001 f959 	bl	8004f08 <HAL_GetTick>
 8003c56:	0002      	movs	r2, r0
 8003c58:	4b2c      	ldr	r3, [pc, #176]	@ (8003d0c <LOWPWR1.11+0xc8>)
 8003c5a:	681b      	ldr	r3, [r3, #0]
 8003c5c:	1ad3      	subs	r3, r2, r3
 8003c5e:	4a2c      	ldr	r2, [pc, #176]	@ (8003d10 <LOWPWR1.11+0xcc>)
 8003c60:	4293      	cmp	r3, r2
 8003c62:	d9f6      	bls.n	8003c52 <LOWPWR1.11+0xe>
		lcdPrint(7, 40,	"        ",   1);
 8003c64:	4a2b      	ldr	r2, [pc, #172]	@ (8003d14 <LOWPWR1.11+0xd0>)
 8003c66:	46a4      	mov	ip, r4
 8003c68:	2301      	movs	r3, #1
 8003c6a:	2128      	movs	r1, #40	@ 0x28
 8003c6c:	2007      	movs	r0, #7
 8003c6e:	f7fe f9d1 	bl	8002014 <lcdPrint.0>
		uint8_t rx_buff[15]={0};
 8003c72:	2510      	movs	r5, #16
 8003c74:	197b      	adds	r3, r7, r5
 8003c76:	2200      	movs	r2, #0
 8003c78:	601a      	str	r2, [r3, #0]
 8003c7a:	3304      	adds	r3, #4
 8003c7c:	220b      	movs	r2, #11
 8003c7e:	2100      	movs	r1, #0
 8003c80:	0018      	movs	r0, r3
 8003c82:	f003 fc87 	bl	8007594 <memset>
		HAL_GPIO_WritePin(GPIOC, GPIO_PIN_13, RESET);
 8003c86:	2380      	movs	r3, #128	@ 0x80
 8003c88:	019b      	lsls	r3, r3, #6
 8003c8a:	4823      	ldr	r0, [pc, #140]	@ (8003d18 <LOWPWR1.11+0xd4>)
 8003c8c:	2200      	movs	r2, #0
 8003c8e:	0019      	movs	r1, r3
 8003c90:	f001 fba9 	bl	80053e6 <HAL_GPIO_WritePin>
		uint8_t msg[]="LOWPW1\r";
 8003c94:	2608      	movs	r6, #8
 8003c96:	19bb      	adds	r3, r7, r6
 8003c98:	4a20      	ldr	r2, [pc, #128]	@ (8003d1c <LOWPWR1.11+0xd8>)
 8003c9a:	ca03      	ldmia	r2!, {r0, r1}
 8003c9c:	c303      	stmia	r3!, {r0, r1}
		MX_USART2_UART_Init();
 8003c9e:	f000 fa4f 	bl	8004140 <MX_USART2_UART_Init>
		HAL_UART_Transmit(&huart2, msg, sizeof(msg), 50);
 8003ca2:	19b9      	adds	r1, r7, r6
 8003ca4:	481e      	ldr	r0, [pc, #120]	@ (8003d20 <LOWPWR1.11+0xdc>)
 8003ca6:	2332      	movs	r3, #50	@ 0x32
 8003ca8:	2208      	movs	r2, #8
 8003caa:	f002 fed3 	bl	8006a54 <HAL_UART_Transmit>
		HAL_UART_Receive(&huart2, rx_buff, 15, 50);
 8003cae:	1979      	adds	r1, r7, r5
 8003cb0:	481b      	ldr	r0, [pc, #108]	@ (8003d20 <LOWPWR1.11+0xdc>)
 8003cb2:	2332      	movs	r3, #50	@ 0x32
 8003cb4:	220f      	movs	r2, #15
 8003cb6:	f002 ff6d 	bl	8006b94 <HAL_UART_Receive>
		lastPing = HAL_GetTick();
 8003cba:	f001 f925 	bl	8004f08 <HAL_GetTick>
 8003cbe:	0002      	movs	r2, r0
 8003cc0:	4b12      	ldr	r3, [pc, #72]	@ (8003d0c <LOWPWR1.11+0xc8>)
 8003cc2:	601a      	str	r2, [r3, #0]
		if (rx_buff[1] == 0x4F ) {lcdPrintUpdate(7, 40, "OK",  1);}
 8003cc4:	197b      	adds	r3, r7, r5
 8003cc6:	785b      	ldrb	r3, [r3, #1]
 8003cc8:	2b4f      	cmp	r3, #79	@ 0x4f
 8003cca:	d107      	bne.n	8003cdc <LOWPWR1.11+0x98>
 8003ccc:	4a15      	ldr	r2, [pc, #84]	@ (8003d24 <LOWPWR1.11+0xe0>)
 8003cce:	46a4      	mov	ip, r4
 8003cd0:	2301      	movs	r3, #1
 8003cd2:	2128      	movs	r1, #40	@ 0x28
 8003cd4:	2007      	movs	r0, #7
 8003cd6:	f7fe fcc9 	bl	800266c <lcdPrintUpdate.10>
 8003cda:	e006      	b.n	8003cea <LOWPWR1.11+0xa6>
		else {lcdPrintUpdate(7, 40, "FAULT",  1);}
 8003cdc:	4a12      	ldr	r2, [pc, #72]	@ (8003d28 <LOWPWR1.11+0xe4>)
 8003cde:	46a4      	mov	ip, r4
 8003ce0:	2301      	movs	r3, #1
 8003ce2:	2128      	movs	r1, #40	@ 0x28
 8003ce4:	2007      	movs	r0, #7
 8003ce6:	f7fe fcc1 	bl	800266c <lcdPrintUpdate.10>
		HAL_GPIO_WritePin(GPIOC, GPIO_PIN_13, SET);
 8003cea:	2380      	movs	r3, #128	@ 0x80
 8003cec:	019b      	lsls	r3, r3, #6
 8003cee:	480a      	ldr	r0, [pc, #40]	@ (8003d18 <LOWPWR1.11+0xd4>)
 8003cf0:	2201      	movs	r2, #1
 8003cf2:	0019      	movs	r1, r3
 8003cf4:	f001 fb77 	bl	80053e6 <HAL_GPIO_WritePin>
		HAL_Delay(1000);
 8003cf8:	23fa      	movs	r3, #250	@ 0xfa
 8003cfa:	009b      	lsls	r3, r3, #2
 8003cfc:	0018      	movs	r0, r3
 8003cfe:	f001 f90d 	bl	8004f1c <HAL_Delay>
}
 8003d02:	46c0      	nop			@ (mov r8, r8)
 8003d04:	46bd      	mov	sp, r7
 8003d06:	b009      	add	sp, #36	@ 0x24
 8003d08:	bdf0      	pop	{r4, r5, r6, r7, pc}
 8003d0a:	46c0      	nop			@ (mov r8, r8)
 8003d0c:	2000017c 	.word	0x2000017c
 8003d10:	0000044b 	.word	0x0000044b
 8003d14:	080081e8 	.word	0x080081e8
 8003d18:	48000800 	.word	0x48000800
 8003d1c:	0800822c 	.word	0x0800822c
 8003d20:	200000e8 	.word	0x200000e8
 8003d24:	08007f9c 	.word	0x08007f9c
 8003d28:	08008200 	.word	0x08008200

08003d2c <pageParamsDraw.17>:
void pageParamsDraw(void){
 8003d2c:	b5f0      	push	{r4, r5, r6, r7, lr}
 8003d2e:	b0a7      	sub	sp, #156	@ 0x9c
 8003d30:	af00      	add	r7, sp, #0
 8003d32:	4664      	mov	r4, ip
 8003d34:	4663      	mov	r3, ip
 8003d36:	607b      	str	r3, [r7, #4]
	if (HAL_GetTick()-lastPing > 1100){//  
 8003d38:	f001 f8e6 	bl	8004f08 <HAL_GetTick>
 8003d3c:	0002      	movs	r2, r0
 8003d3e:	4b9d      	ldr	r3, [pc, #628]	@ (8003fb4 <pageParamsDraw.17+0x288>)
 8003d40:	681b      	ldr	r3, [r3, #0]
 8003d42:	1ad3      	subs	r3, r2, r3
 8003d44:	4a9c      	ldr	r2, [pc, #624]	@ (8003fb8 <pageParamsDraw.17+0x28c>)
 8003d46:	4293      	cmp	r3, r2
 8003d48:	d800      	bhi.n	8003d4c <pageParamsDraw.17+0x20>
 8003d4a:	e12e      	b.n	8003faa <pageParamsDraw.17+0x27e>
		 HAL_GPIO_WritePin(GPIOC, GPIO_PIN_13, RESET);
 8003d4c:	2380      	movs	r3, #128	@ 0x80
 8003d4e:	019b      	lsls	r3, r3, #6
 8003d50:	489a      	ldr	r0, [pc, #616]	@ (8003fbc <pageParamsDraw.17+0x290>)
 8003d52:	2200      	movs	r2, #0
 8003d54:	0019      	movs	r1, r3
 8003d56:	f001 fb46 	bl	80053e6 <HAL_GPIO_WritePin>
		 uint8_t msg[]={0x46,0x0D};  uint8_t rx_buffer[73]={0};  MX_USART2_UART_Init();
 8003d5a:	2694      	movs	r6, #148	@ 0x94
 8003d5c:	19bb      	adds	r3, r7, r6
 8003d5e:	4a98      	ldr	r2, [pc, #608]	@ (8003fc0 <pageParamsDraw.17+0x294>)
 8003d60:	801a      	strh	r2, [r3, #0]
 8003d62:	2508      	movs	r5, #8
 8003d64:	197b      	adds	r3, r7, r5
 8003d66:	2200      	movs	r2, #0
 8003d68:	601a      	str	r2, [r3, #0]
 8003d6a:	3304      	adds	r3, #4
 8003d6c:	2245      	movs	r2, #69	@ 0x45
 8003d6e:	2100      	movs	r1, #0
 8003d70:	0018      	movs	r0, r3
 8003d72:	f003 fc0f 	bl	8007594 <memset>
 8003d76:	f000 f9e3 	bl	8004140 <MX_USART2_UART_Init>
		 HAL_UART_Transmit(&huart2, msg, sizeof(msg), 50);
 8003d7a:	19b9      	adds	r1, r7, r6
 8003d7c:	4891      	ldr	r0, [pc, #580]	@ (8003fc4 <pageParamsDraw.17+0x298>)
 8003d7e:	2332      	movs	r3, #50	@ 0x32
 8003d80:	2202      	movs	r2, #2
 8003d82:	f002 fe67 	bl	8006a54 <HAL_UART_Transmit>
		 HAL_UART_Receive(&huart2, rx_buffer, 73, 100);
 8003d86:	1979      	adds	r1, r7, r5
 8003d88:	488e      	ldr	r0, [pc, #568]	@ (8003fc4 <pageParamsDraw.17+0x298>)
 8003d8a:	2364      	movs	r3, #100	@ 0x64
 8003d8c:	2249      	movs	r2, #73	@ 0x49
 8003d8e:	f002 ff01 	bl	8006b94 <HAL_UART_Receive>
		 lastPing = HAL_GetTick();
 8003d92:	f001 f8b9 	bl	8004f08 <HAL_GetTick>
 8003d96:	0002      	movs	r2, r0
 8003d98:	4b86      	ldr	r3, [pc, #536]	@ (8003fb4 <pageParamsDraw.17+0x288>)
 8003d9a:	601a      	str	r2, [r3, #0]
		 char C[6]={0}; char C1[6]={0}; char Um[6]={0}; char Ur[6]={0}; char Stz0[6]={0}; char Stz[6]={0}; char St[6]={0};  char Stzkt[6]={0};
 8003d9c:	268c      	movs	r6, #140	@ 0x8c
 8003d9e:	19bb      	adds	r3, r7, r6
 8003da0:	2200      	movs	r2, #0
 8003da2:	601a      	str	r2, [r3, #0]
 8003da4:	2200      	movs	r2, #0
 8003da6:	809a      	strh	r2, [r3, #4]
 8003da8:	2384      	movs	r3, #132	@ 0x84
 8003daa:	18fb      	adds	r3, r7, r3
 8003dac:	2200      	movs	r2, #0
 8003dae:	601a      	str	r2, [r3, #0]
 8003db0:	2200      	movs	r2, #0
 8003db2:	809a      	strh	r2, [r3, #4]
 8003db4:	227c      	movs	r2, #124	@ 0x7c
 8003db6:	18bb      	adds	r3, r7, r2
 8003db8:	2200      	movs	r2, #0
 8003dba:	601a      	str	r2, [r3, #0]
 8003dbc:	2200      	movs	r2, #0
 8003dbe:	809a      	strh	r2, [r3, #4]
 8003dc0:	2174      	movs	r1, #116	@ 0x74
 8003dc2:	187b      	adds	r3, r7, r1
 8003dc4:	2200      	movs	r2, #0
 8003dc6:	601a      	str	r2, [r3, #0]
 8003dc8:	2200      	movs	r2, #0
 8003dca:	809a      	strh	r2, [r3, #4]
 8003dcc:	206c      	movs	r0, #108	@ 0x6c
 8003dce:	183b      	adds	r3, r7, r0
 8003dd0:	2200      	movs	r2, #0
 8003dd2:	601a      	str	r2, [r3, #0]
 8003dd4:	2200      	movs	r2, #0
 8003dd6:	809a      	strh	r2, [r3, #4]
 8003dd8:	2164      	movs	r1, #100	@ 0x64
 8003dda:	187b      	adds	r3, r7, r1
 8003ddc:	2200      	movs	r2, #0
 8003dde:	601a      	str	r2, [r3, #0]
 8003de0:	2200      	movs	r2, #0
 8003de2:	809a      	strh	r2, [r3, #4]
 8003de4:	235c      	movs	r3, #92	@ 0x5c
 8003de6:	18fb      	adds	r3, r7, r3
 8003de8:	2200      	movs	r2, #0
 8003dea:	601a      	str	r2, [r3, #0]
 8003dec:	2200      	movs	r2, #0
 8003dee:	809a      	strh	r2, [r3, #4]
 8003df0:	2154      	movs	r1, #84	@ 0x54
 8003df2:	187b      	adds	r3, r7, r1
 8003df4:	2200      	movs	r2, #0
 8003df6:	601a      	str	r2, [r3, #0]
 8003df8:	2200      	movs	r2, #0
 8003dfa:	809a      	strh	r2, [r3, #4]
		 strncpy(C , &rx_buffer[43] , 5); strncpy(C1 , &rx_buffer[49] , 5);
 8003dfc:	197b      	adds	r3, r7, r5
 8003dfe:	0019      	movs	r1, r3
 8003e00:	312b      	adds	r1, #43	@ 0x2b
 8003e02:	19bb      	adds	r3, r7, r6
 8003e04:	2205      	movs	r2, #5
 8003e06:	0018      	movs	r0, r3
 8003e08:	f003 fbcc 	bl	80075a4 <strncpy>
 8003e0c:	197b      	adds	r3, r7, r5
 8003e0e:	0019      	movs	r1, r3
 8003e10:	3131      	adds	r1, #49	@ 0x31
 8003e12:	2384      	movs	r3, #132	@ 0x84
 8003e14:	18fb      	adds	r3, r7, r3
 8003e16:	2205      	movs	r2, #5
 8003e18:	0018      	movs	r0, r3
 8003e1a:	f003 fbc3 	bl	80075a4 <strncpy>
		 strncpy(Stz0 , &rx_buffer[25] , 5); strncpy(Stz , &rx_buffer[31] , 5);
 8003e1e:	197b      	adds	r3, r7, r5
 8003e20:	0019      	movs	r1, r3
 8003e22:	3119      	adds	r1, #25
 8003e24:	206c      	movs	r0, #108	@ 0x6c
 8003e26:	183b      	adds	r3, r7, r0
 8003e28:	2205      	movs	r2, #5
 8003e2a:	0018      	movs	r0, r3
 8003e2c:	f003 fbba 	bl	80075a4 <strncpy>
 8003e30:	197b      	adds	r3, r7, r5
 8003e32:	0019      	movs	r1, r3
 8003e34:	311f      	adds	r1, #31
 8003e36:	2264      	movs	r2, #100	@ 0x64
 8003e38:	18bb      	adds	r3, r7, r2
 8003e3a:	2205      	movs	r2, #5
 8003e3c:	0018      	movs	r0, r3
 8003e3e:	f003 fbb1 	bl	80075a4 <strncpy>
		 strncpy(St , &rx_buffer[7] , 5); strncpy(Stzkt , &rx_buffer[37] , 5);
 8003e42:	197b      	adds	r3, r7, r5
 8003e44:	1dd9      	adds	r1, r3, #7
 8003e46:	235c      	movs	r3, #92	@ 0x5c
 8003e48:	18fb      	adds	r3, r7, r3
 8003e4a:	2205      	movs	r2, #5
 8003e4c:	0018      	movs	r0, r3
 8003e4e:	f003 fba9 	bl	80075a4 <strncpy>
 8003e52:	197b      	adds	r3, r7, r5
 8003e54:	0019      	movs	r1, r3
 8003e56:	3125      	adds	r1, #37	@ 0x25
 8003e58:	2054      	movs	r0, #84	@ 0x54
 8003e5a:	183b      	adds	r3, r7, r0
 8003e5c:	2205      	movs	r2, #5
 8003e5e:	0018      	movs	r0, r3
 8003e60:	f003 fba0 	bl	80075a4 <strncpy>
		 strncpy(Um , &rx_buffer[19] , 5);  strncpy(Ur , &rx_buffer[13] , 5);
 8003e64:	197b      	adds	r3, r7, r5
 8003e66:	0019      	movs	r1, r3
 8003e68:	3113      	adds	r1, #19
 8003e6a:	227c      	movs	r2, #124	@ 0x7c
 8003e6c:	18bb      	adds	r3, r7, r2
 8003e6e:	2205      	movs	r2, #5
 8003e70:	0018      	movs	r0, r3
 8003e72:	f003 fb97 	bl	80075a4 <strncpy>
 8003e76:	197b      	adds	r3, r7, r5
 8003e78:	0019      	movs	r1, r3
 8003e7a:	310d      	adds	r1, #13
 8003e7c:	2574      	movs	r5, #116	@ 0x74
 8003e7e:	197b      	adds	r3, r7, r5
 8003e80:	2205      	movs	r2, #5
 8003e82:	0018      	movs	r0, r3
 8003e84:	f003 fb8e 	bl	80075a4 <strncpy>
		 lcdPrint(0, 0, "C :     ", 1); lcdPrint(21, 0, C, 1); lcdPrint(63, 0, "C1 :     ", 1); lcdPrint(91, 0, C1, 1);
 8003e88:	4a4f      	ldr	r2, [pc, #316]	@ (8003fc8 <pageParamsDraw.17+0x29c>)
 8003e8a:	46a4      	mov	ip, r4
 8003e8c:	2301      	movs	r3, #1
 8003e8e:	2100      	movs	r1, #0
 8003e90:	2000      	movs	r0, #0
 8003e92:	f7fe f8bf 	bl	8002014 <lcdPrint.0>
 8003e96:	19ba      	adds	r2, r7, r6
 8003e98:	46a4      	mov	ip, r4
 8003e9a:	2301      	movs	r3, #1
 8003e9c:	2100      	movs	r1, #0
 8003e9e:	2015      	movs	r0, #21
 8003ea0:	f7fe f8b8 	bl	8002014 <lcdPrint.0>
 8003ea4:	4a49      	ldr	r2, [pc, #292]	@ (8003fcc <pageParamsDraw.17+0x2a0>)
 8003ea6:	46a4      	mov	ip, r4
 8003ea8:	2301      	movs	r3, #1
 8003eaa:	2100      	movs	r1, #0
 8003eac:	203f      	movs	r0, #63	@ 0x3f
 8003eae:	f7fe f8b1 	bl	8002014 <lcdPrint.0>
 8003eb2:	2384      	movs	r3, #132	@ 0x84
 8003eb4:	18fa      	adds	r2, r7, r3
 8003eb6:	46a4      	mov	ip, r4
 8003eb8:	2301      	movs	r3, #1
 8003eba:	2100      	movs	r1, #0
 8003ebc:	205b      	movs	r0, #91	@ 0x5b
 8003ebe:	f7fe f8a9 	bl	8002014 <lcdPrint.0>
		 lcdPrint(0, 15, "S0:     ", 1); lcdPrint(21, 15, Stz0, 1);	lcdPrint(63, 15, "Stz:     ", 1); lcdPrint(91, 15, Stz, 1);
 8003ec2:	4a43      	ldr	r2, [pc, #268]	@ (8003fd0 <pageParamsDraw.17+0x2a4>)
 8003ec4:	46a4      	mov	ip, r4
 8003ec6:	2301      	movs	r3, #1
 8003ec8:	210f      	movs	r1, #15
 8003eca:	2000      	movs	r0, #0
 8003ecc:	f7fe f8a2 	bl	8002014 <lcdPrint.0>
 8003ed0:	206c      	movs	r0, #108	@ 0x6c
 8003ed2:	183a      	adds	r2, r7, r0
 8003ed4:	46a4      	mov	ip, r4
 8003ed6:	2301      	movs	r3, #1
 8003ed8:	210f      	movs	r1, #15
 8003eda:	2015      	movs	r0, #21
 8003edc:	f7fe f89a 	bl	8002014 <lcdPrint.0>
 8003ee0:	4a3c      	ldr	r2, [pc, #240]	@ (8003fd4 <pageParamsDraw.17+0x2a8>)
 8003ee2:	46a4      	mov	ip, r4
 8003ee4:	2301      	movs	r3, #1
 8003ee6:	210f      	movs	r1, #15
 8003ee8:	203f      	movs	r0, #63	@ 0x3f
 8003eea:	f7fe f893 	bl	8002014 <lcdPrint.0>
 8003eee:	2164      	movs	r1, #100	@ 0x64
 8003ef0:	187a      	adds	r2, r7, r1
 8003ef2:	46a4      	mov	ip, r4
 8003ef4:	2301      	movs	r3, #1
 8003ef6:	210f      	movs	r1, #15
 8003ef8:	205b      	movs	r0, #91	@ 0x5b
 8003efa:	f7fe f88b 	bl	8002014 <lcdPrint.0>
		 lcdPrint(0, 25, "St:     ", 1); lcdPrint(21, 25, St, 1);	lcdPrint(63, 25, "Skt:     ", 1); lcdPrint(91, 25, Stzkt, 1);
 8003efe:	4a36      	ldr	r2, [pc, #216]	@ (8003fd8 <pageParamsDraw.17+0x2ac>)
 8003f00:	46a4      	mov	ip, r4
 8003f02:	2301      	movs	r3, #1
 8003f04:	2119      	movs	r1, #25
 8003f06:	2000      	movs	r0, #0
 8003f08:	f7fe f884 	bl	8002014 <lcdPrint.0>
 8003f0c:	235c      	movs	r3, #92	@ 0x5c
 8003f0e:	18fa      	adds	r2, r7, r3
 8003f10:	46a4      	mov	ip, r4
 8003f12:	2301      	movs	r3, #1
 8003f14:	2119      	movs	r1, #25
 8003f16:	2015      	movs	r0, #21
 8003f18:	f7fe f87c 	bl	8002014 <lcdPrint.0>
 8003f1c:	4a2f      	ldr	r2, [pc, #188]	@ (8003fdc <pageParamsDraw.17+0x2b0>)
 8003f1e:	46a4      	mov	ip, r4
 8003f20:	2301      	movs	r3, #1
 8003f22:	2119      	movs	r1, #25
 8003f24:	203f      	movs	r0, #63	@ 0x3f
 8003f26:	f7fe f875 	bl	8002014 <lcdPrint.0>
 8003f2a:	2054      	movs	r0, #84	@ 0x54
 8003f2c:	183a      	adds	r2, r7, r0
 8003f2e:	46a4      	mov	ip, r4
 8003f30:	2301      	movs	r3, #1
 8003f32:	2119      	movs	r1, #25
 8003f34:	205b      	movs	r0, #91	@ 0x5b
 8003f36:	f7fe f86d 	bl	8002014 <lcdPrint.0>
		 lcdPrint(0, 40, "Um:     ", 1); lcdPrint(21, 40, Um, 1);  lcdPrint(63, 40, "Ur :     ", 1);  lcdPrint(91, 40, Ur, 1);
 8003f3a:	4a29      	ldr	r2, [pc, #164]	@ (8003fe0 <pageParamsDraw.17+0x2b4>)
 8003f3c:	46a4      	mov	ip, r4
 8003f3e:	2301      	movs	r3, #1
 8003f40:	2128      	movs	r1, #40	@ 0x28
 8003f42:	2000      	movs	r0, #0
 8003f44:	f7fe f866 	bl	8002014 <lcdPrint.0>
 8003f48:	227c      	movs	r2, #124	@ 0x7c
 8003f4a:	18ba      	adds	r2, r7, r2
 8003f4c:	46a4      	mov	ip, r4
 8003f4e:	2301      	movs	r3, #1
 8003f50:	2128      	movs	r1, #40	@ 0x28
 8003f52:	2015      	movs	r0, #21
 8003f54:	f7fe f85e 	bl	8002014 <lcdPrint.0>
 8003f58:	4a22      	ldr	r2, [pc, #136]	@ (8003fe4 <pageParamsDraw.17+0x2b8>)
 8003f5a:	46a4      	mov	ip, r4
 8003f5c:	2301      	movs	r3, #1
 8003f5e:	2128      	movs	r1, #40	@ 0x28
 8003f60:	203f      	movs	r0, #63	@ 0x3f
 8003f62:	f7fe f857 	bl	8002014 <lcdPrint.0>
 8003f66:	197a      	adds	r2, r7, r5
 8003f68:	46a4      	mov	ip, r4
 8003f6a:	2301      	movs	r3, #1
 8003f6c:	2128      	movs	r1, #40	@ 0x28
 8003f6e:	205b      	movs	r0, #91	@ 0x5b
 8003f70:	f7fe f850 	bl	8002014 <lcdPrint.0>
		 lcdPrint(0, 53, " Exit",   1);	if (selected == 0) {lcdPrint(0, 53, "-", 1);};
 8003f74:	4a1c      	ldr	r2, [pc, #112]	@ (8003fe8 <pageParamsDraw.17+0x2bc>)
 8003f76:	46a4      	mov	ip, r4
 8003f78:	2301      	movs	r3, #1
 8003f7a:	2135      	movs	r1, #53	@ 0x35
 8003f7c:	2000      	movs	r0, #0
 8003f7e:	f7fe f849 	bl	8002014 <lcdPrint.0>
 8003f82:	4b1a      	ldr	r3, [pc, #104]	@ (8003fec <pageParamsDraw.17+0x2c0>)
 8003f84:	781b      	ldrb	r3, [r3, #0]
 8003f86:	2b00      	cmp	r3, #0
 8003f88:	d106      	bne.n	8003f98 <pageParamsDraw.17+0x26c>
 8003f8a:	4a19      	ldr	r2, [pc, #100]	@ (8003ff0 <pageParamsDraw.17+0x2c4>)
 8003f8c:	46a4      	mov	ip, r4
 8003f8e:	2301      	movs	r3, #1
 8003f90:	2135      	movs	r1, #53	@ 0x35
 8003f92:	2000      	movs	r0, #0
 8003f94:	f7fe f83e 	bl	8002014 <lcdPrint.0>
		 HAL_GPIO_WritePin(GPIOC, GPIO_PIN_13, SET);
 8003f98:	2380      	movs	r3, #128	@ 0x80
 8003f9a:	019b      	lsls	r3, r3, #6
 8003f9c:	4807      	ldr	r0, [pc, #28]	@ (8003fbc <pageParamsDraw.17+0x290>)
 8003f9e:	2201      	movs	r2, #1
 8003fa0:	0019      	movs	r1, r3
 8003fa2:	f001 fa20 	bl	80053e6 <HAL_GPIO_WritePin>
		 SSD1306_UpdateScreen();
 8003fa6:	f000 fa59 	bl	800445c <SSD1306_UpdateScreen>
}
 8003faa:	46c0      	nop			@ (mov r8, r8)
 8003fac:	46bd      	mov	sp, r7
 8003fae:	b027      	add	sp, #156	@ 0x9c
 8003fb0:	bdf0      	pop	{r4, r5, r6, r7, pc}
 8003fb2:	46c0      	nop			@ (mov r8, r8)
 8003fb4:	2000017c 	.word	0x2000017c
 8003fb8:	0000044c 	.word	0x0000044c
 8003fbc:	48000800 	.word	0x48000800
 8003fc0:	00000d46 	.word	0x00000d46
 8003fc4:	200000e8 	.word	0x200000e8
 8003fc8:	08008234 	.word	0x08008234
 8003fcc:	08008240 	.word	0x08008240
 8003fd0:	0800824c 	.word	0x0800824c
 8003fd4:	08008258 	.word	0x08008258
 8003fd8:	08008264 	.word	0x08008264
 8003fdc:	08008270 	.word	0x08008270
 8003fe0:	0800827c 	.word	0x0800827c
 8003fe4:	08008288 	.word	0x08008288
 8003fe8:	080080ac 	.word	0x080080ac
 8003fec:	20000179 	.word	0x20000179
 8003ff0:	080080b4 	.word	0x080080b4

08003ff4 <SystemClock_Config>:
/**
  * @brief System Clock Configuration
  * @retval None
  */
void SystemClock_Config(void)
{
 8003ff4:	b590      	push	{r4, r7, lr}
 8003ff6:	b095      	sub	sp, #84	@ 0x54
 8003ff8:	af00      	add	r7, sp, #0
  RCC_OscInitTypeDef RCC_OscInitStruct = {0};
 8003ffa:	2420      	movs	r4, #32
 8003ffc:	193b      	adds	r3, r7, r4
 8003ffe:	0018      	movs	r0, r3
 8004000:	2330      	movs	r3, #48	@ 0x30
 8004002:	001a      	movs	r2, r3
 8004004:	2100      	movs	r1, #0
 8004006:	f003 fac5 	bl	8007594 <memset>
  RCC_ClkInitTypeDef RCC_ClkInitStruct = {0};
 800400a:	2310      	movs	r3, #16
 800400c:	18fb      	adds	r3, r7, r3
 800400e:	0018      	movs	r0, r3
 8004010:	2310      	movs	r3, #16
 8004012:	001a      	movs	r2, r3
 8004014:	2100      	movs	r1, #0
 8004016:	f003 fabd 	bl	8007594 <memset>
  RCC_PeriphCLKInitTypeDef PeriphClkInit = {0};
 800401a:	003b      	movs	r3, r7
 800401c:	0018      	movs	r0, r3
 800401e:	2310      	movs	r3, #16
 8004020:	001a      	movs	r2, r3
 8004022:	2100      	movs	r1, #0
 8004024:	f003 fab6 	bl	8007594 <memset>

  /** Initializes the RCC Oscillators according to the specified parameters
  * in the RCC_OscInitTypeDef structure.
  */
  RCC_OscInitStruct.OscillatorType = RCC_OSCILLATORTYPE_HSI|RCC_OSCILLATORTYPE_HSE;
 8004028:	0021      	movs	r1, r4
 800402a:	187b      	adds	r3, r7, r1
 800402c:	2203      	movs	r2, #3
 800402e:	601a      	str	r2, [r3, #0]
  RCC_OscInitStruct.HSEState = RCC_HSE_ON;
 8004030:	187b      	adds	r3, r7, r1
 8004032:	2201      	movs	r2, #1
 8004034:	605a      	str	r2, [r3, #4]
  RCC_OscInitStruct.HSIState = RCC_HSI_ON;
 8004036:	187b      	adds	r3, r7, r1
 8004038:	2201      	movs	r2, #1
 800403a:	60da      	str	r2, [r3, #12]
  RCC_OscInitStruct.HSICalibrationValue = RCC_HSICALIBRATION_DEFAULT;
 800403c:	187b      	adds	r3, r7, r1
 800403e:	2210      	movs	r2, #16
 8004040:	611a      	str	r2, [r3, #16]
  RCC_OscInitStruct.PLL.PLLState = RCC_PLL_ON;
 8004042:	187b      	adds	r3, r7, r1
 8004044:	2202      	movs	r2, #2
 8004046:	621a      	str	r2, [r3, #32]
  RCC_OscInitStruct.PLL.PLLSource = RCC_PLLSOURCE_HSE;
 8004048:	187b      	adds	r3, r7, r1
 800404a:	2280      	movs	r2, #128	@ 0x80
 800404c:	0252      	lsls	r2, r2, #9
 800404e:	625a      	str	r2, [r3, #36]	@ 0x24
  RCC_OscInitStruct.PLL.PLLMUL = RCC_PLL_MUL6;
 8004050:	187b      	adds	r3, r7, r1
 8004052:	2280      	movs	r2, #128	@ 0x80
 8004054:	0352      	lsls	r2, r2, #13
 8004056:	629a      	str	r2, [r3, #40]	@ 0x28
  RCC_OscInitStruct.PLL.PREDIV = RCC_PREDIV_DIV1;
 8004058:	187b      	adds	r3, r7, r1
 800405a:	2200      	movs	r2, #0
 800405c:	62da      	str	r2, [r3, #44]	@ 0x2c
  if (HAL_RCC_OscConfig(&RCC_OscInitStruct) != HAL_OK)
 800405e:	187b      	adds	r3, r7, r1
 8004060:	0018      	movs	r0, r3
 8004062:	f001 ff77 	bl	8005f54 <HAL_RCC_OscConfig>
 8004066:	1e03      	subs	r3, r0, #0
 8004068:	d001      	beq.n	800406e <SystemClock_Config+0x7a>
  {
    Error_Handler();
 800406a:	f000 f92d 	bl	80042c8 <Error_Handler>
  }

  /** Initializes the CPU, AHB and APB buses clocks
  */
  RCC_ClkInitStruct.ClockType = RCC_CLOCKTYPE_HCLK|RCC_CLOCKTYPE_SYSCLK
 800406e:	2110      	movs	r1, #16
 8004070:	187b      	adds	r3, r7, r1
 8004072:	2207      	movs	r2, #7
 8004074:	601a      	str	r2, [r3, #0]
                              |RCC_CLOCKTYPE_PCLK1;
  RCC_ClkInitStruct.SYSCLKSource = RCC_SYSCLKSOURCE_PLLCLK;
 8004076:	187b      	adds	r3, r7, r1
 8004078:	2202      	movs	r2, #2
 800407a:	605a      	str	r2, [r3, #4]
  RCC_ClkInitStruct.AHBCLKDivider = RCC_SYSCLK_DIV1;
 800407c:	187b      	adds	r3, r7, r1
 800407e:	2200      	movs	r2, #0
 8004080:	609a      	str	r2, [r3, #8]
  RCC_ClkInitStruct.APB1CLKDivider = RCC_HCLK_DIV1;
 8004082:	187b      	adds	r3, r7, r1
 8004084:	2200      	movs	r2, #0
 8004086:	60da      	str	r2, [r3, #12]

  if (HAL_RCC_ClockConfig(&RCC_ClkInitStruct, FLASH_LATENCY_1) != HAL_OK)
 8004088:	187b      	adds	r3, r7, r1
 800408a:	2101      	movs	r1, #1
 800408c:	0018      	movs	r0, r3
 800408e:	f002 fa7b 	bl	8006588 <HAL_RCC_ClockConfig>
 8004092:	1e03      	subs	r3, r0, #0
 8004094:	d001      	beq.n	800409a <SystemClock_Config+0xa6>
  {
    Error_Handler();
 8004096:	f000 f917 	bl	80042c8 <Error_Handler>
  }
  PeriphClkInit.PeriphClockSelection = RCC_PERIPHCLK_I2C1;
 800409a:	003b      	movs	r3, r7
 800409c:	2220      	movs	r2, #32
 800409e:	601a      	str	r2, [r3, #0]
  PeriphClkInit.I2c1ClockSelection = RCC_I2C1CLKSOURCE_HSI;
 80040a0:	003b      	movs	r3, r7
 80040a2:	2200      	movs	r2, #0
 80040a4:	60da      	str	r2, [r3, #12]
  if (HAL_RCCEx_PeriphCLKConfig(&PeriphClkInit) != HAL_OK)
 80040a6:	003b      	movs	r3, r7
 80040a8:	0018      	movs	r0, r3
 80040aa:	f002 fbb1 	bl	8006810 <HAL_RCCEx_PeriphCLKConfig>
 80040ae:	1e03      	subs	r3, r0, #0
 80040b0:	d001      	beq.n	80040b6 <SystemClock_Config+0xc2>
  {
    Error_Handler();
 80040b2:	f000 f909 	bl	80042c8 <Error_Handler>
  }
}
 80040b6:	46c0      	nop			@ (mov r8, r8)
 80040b8:	46bd      	mov	sp, r7
 80040ba:	b015      	add	sp, #84	@ 0x54
 80040bc:	bd90      	pop	{r4, r7, pc}
	...

080040c0 <MX_I2C1_Init>:
  * @brief I2C1 Initialization Function
  * @param None
  * @retval None
  */
static void MX_I2C1_Init(void)
{
 80040c0:	b580      	push	{r7, lr}
 80040c2:	af00      	add	r7, sp, #0
  /* USER CODE END I2C1_Init 0 */

  /* USER CODE BEGIN I2C1_Init 1 */

  /* USER CODE END I2C1_Init 1 */
  hi2c1.Instance = I2C1;
 80040c4:	4b1b      	ldr	r3, [pc, #108]	@ (8004134 <MX_I2C1_Init+0x74>)
 80040c6:	4a1c      	ldr	r2, [pc, #112]	@ (8004138 <MX_I2C1_Init+0x78>)
 80040c8:	601a      	str	r2, [r3, #0]
  hi2c1.Init.Timing = 0x0010020A;
 80040ca:	4b1a      	ldr	r3, [pc, #104]	@ (8004134 <MX_I2C1_Init+0x74>)
 80040cc:	4a1b      	ldr	r2, [pc, #108]	@ (800413c <MX_I2C1_Init+0x7c>)
 80040ce:	605a      	str	r2, [r3, #4]
  hi2c1.Init.OwnAddress1 = 0;
 80040d0:	4b18      	ldr	r3, [pc, #96]	@ (8004134 <MX_I2C1_Init+0x74>)
 80040d2:	2200      	movs	r2, #0
 80040d4:	609a      	str	r2, [r3, #8]
  hi2c1.Init.AddressingMode = I2C_ADDRESSINGMODE_7BIT;
 80040d6:	4b17      	ldr	r3, [pc, #92]	@ (8004134 <MX_I2C1_Init+0x74>)
 80040d8:	2201      	movs	r2, #1
 80040da:	60da      	str	r2, [r3, #12]
  hi2c1.Init.DualAddressMode = I2C_DUALADDRESS_DISABLE;
 80040dc:	4b15      	ldr	r3, [pc, #84]	@ (8004134 <MX_I2C1_Init+0x74>)
 80040de:	2200      	movs	r2, #0
 80040e0:	611a      	str	r2, [r3, #16]
  hi2c1.Init.OwnAddress2 = 0;
 80040e2:	4b14      	ldr	r3, [pc, #80]	@ (8004134 <MX_I2C1_Init+0x74>)
 80040e4:	2200      	movs	r2, #0
 80040e6:	615a      	str	r2, [r3, #20]
  hi2c1.Init.OwnAddress2Masks = I2C_OA2_NOMASK;
 80040e8:	4b12      	ldr	r3, [pc, #72]	@ (8004134 <MX_I2C1_Init+0x74>)
 80040ea:	2200      	movs	r2, #0
 80040ec:	619a      	str	r2, [r3, #24]
  hi2c1.Init.GeneralCallMode = I2C_GENERALCALL_DISABLE;
 80040ee:	4b11      	ldr	r3, [pc, #68]	@ (8004134 <MX_I2C1_Init+0x74>)
 80040f0:	2200      	movs	r2, #0
 80040f2:	61da      	str	r2, [r3, #28]
  hi2c1.Init.NoStretchMode = I2C_NOSTRETCH_DISABLE;
 80040f4:	4b0f      	ldr	r3, [pc, #60]	@ (8004134 <MX_I2C1_Init+0x74>)
 80040f6:	2200      	movs	r2, #0
 80040f8:	621a      	str	r2, [r3, #32]
  if (HAL_I2C_Init(&hi2c1) != HAL_OK)
 80040fa:	4b0e      	ldr	r3, [pc, #56]	@ (8004134 <MX_I2C1_Init+0x74>)
 80040fc:	0018      	movs	r0, r3
 80040fe:	f001 f98f 	bl	8005420 <HAL_I2C_Init>
 8004102:	1e03      	subs	r3, r0, #0
 8004104:	d001      	beq.n	800410a <MX_I2C1_Init+0x4a>
  {
    Error_Handler();
 8004106:	f000 f8df 	bl	80042c8 <Error_Handler>
  }

  /** Configure Analogue filter
  */
  if (HAL_I2CEx_ConfigAnalogFilter(&hi2c1, I2C_ANALOGFILTER_ENABLE) != HAL_OK)
 800410a:	4b0a      	ldr	r3, [pc, #40]	@ (8004134 <MX_I2C1_Init+0x74>)
 800410c:	2100      	movs	r1, #0
 800410e:	0018      	movs	r0, r3
 8004110:	f001 fe88 	bl	8005e24 <HAL_I2CEx_ConfigAnalogFilter>
 8004114:	1e03      	subs	r3, r0, #0
 8004116:	d001      	beq.n	800411c <MX_I2C1_Init+0x5c>
  {
    Error_Handler();
 8004118:	f000 f8d6 	bl	80042c8 <Error_Handler>
  }

  /** Configure Digital filter
  */
  if (HAL_I2CEx_ConfigDigitalFilter(&hi2c1, 0) != HAL_OK)
 800411c:	4b05      	ldr	r3, [pc, #20]	@ (8004134 <MX_I2C1_Init+0x74>)
 800411e:	2100      	movs	r1, #0
 8004120:	0018      	movs	r0, r3
 8004122:	f001 fecb 	bl	8005ebc <HAL_I2CEx_ConfigDigitalFilter>
 8004126:	1e03      	subs	r3, r0, #0
 8004128:	d001      	beq.n	800412e <MX_I2C1_Init+0x6e>
  {
    Error_Handler();
 800412a:	f000 f8cd 	bl	80042c8 <Error_Handler>
  }
  /* USER CODE BEGIN I2C1_Init 2 */

  /* USER CODE END I2C1_Init 2 */

}
 800412e:	46c0      	nop			@ (mov r8, r8)
 8004130:	46bd      	mov	sp, r7
 8004132:	bd80      	pop	{r7, pc}
 8004134:	20000094 	.word	0x20000094
 8004138:	40005400 	.word	0x40005400
 800413c:	0010020a 	.word	0x0010020a

08004140 <MX_USART2_UART_Init>:
  * @brief USART2 Initialization Function
  * @param None
  * @retval None
  */
static void MX_USART2_UART_Init(void)
{
 8004140:	b580      	push	{r7, lr}
 8004142:	af00      	add	r7, sp, #0
  /* USER CODE END USART2_Init 0 */

  /* USER CODE BEGIN USART2_Init 1 */

  /* USER CODE END USART2_Init 1 */
  huart2.Instance = USART2;
 8004144:	4b14      	ldr	r3, [pc, #80]	@ (8004198 <MX_USART2_UART_Init+0x58>)
 8004146:	4a15      	ldr	r2, [pc, #84]	@ (800419c <MX_USART2_UART_Init+0x5c>)
 8004148:	601a      	str	r2, [r3, #0]
  huart2.Init.BaudRate = 9600;
 800414a:	4b13      	ldr	r3, [pc, #76]	@ (8004198 <MX_USART2_UART_Init+0x58>)
 800414c:	2296      	movs	r2, #150	@ 0x96
 800414e:	0192      	lsls	r2, r2, #6
 8004150:	605a      	str	r2, [r3, #4]
  huart2.Init.WordLength = UART_WORDLENGTH_8B;
 8004152:	4b11      	ldr	r3, [pc, #68]	@ (8004198 <MX_USART2_UART_Init+0x58>)
 8004154:	2200      	movs	r2, #0
 8004156:	609a      	str	r2, [r3, #8]
  huart2.Init.StopBits = UART_STOPBITS_1;
 8004158:	4b0f      	ldr	r3, [pc, #60]	@ (8004198 <MX_USART2_UART_Init+0x58>)
 800415a:	2200      	movs	r2, #0
 800415c:	60da      	str	r2, [r3, #12]
  huart2.Init.Parity = UART_PARITY_NONE;
 800415e:	4b0e      	ldr	r3, [pc, #56]	@ (8004198 <MX_USART2_UART_Init+0x58>)
 8004160:	2200      	movs	r2, #0
 8004162:	611a      	str	r2, [r3, #16]
  huart2.Init.Mode = UART_MODE_TX_RX;
 8004164:	4b0c      	ldr	r3, [pc, #48]	@ (8004198 <MX_USART2_UART_Init+0x58>)
 8004166:	220c      	movs	r2, #12
 8004168:	615a      	str	r2, [r3, #20]
  huart2.Init.HwFlowCtl = UART_HWCONTROL_NONE;
 800416a:	4b0b      	ldr	r3, [pc, #44]	@ (8004198 <MX_USART2_UART_Init+0x58>)
 800416c:	2200      	movs	r2, #0
 800416e:	619a      	str	r2, [r3, #24]
  huart2.Init.OverSampling = UART_OVERSAMPLING_16;
 8004170:	4b09      	ldr	r3, [pc, #36]	@ (8004198 <MX_USART2_UART_Init+0x58>)
 8004172:	2200      	movs	r2, #0
 8004174:	61da      	str	r2, [r3, #28]
  huart2.Init.OneBitSampling = UART_ONE_BIT_SAMPLE_DISABLE;
 8004176:	4b08      	ldr	r3, [pc, #32]	@ (8004198 <MX_USART2_UART_Init+0x58>)
 8004178:	2200      	movs	r2, #0
 800417a:	621a      	str	r2, [r3, #32]
  huart2.AdvancedInit.AdvFeatureInit = UART_ADVFEATURE_NO_INIT;
 800417c:	4b06      	ldr	r3, [pc, #24]	@ (8004198 <MX_USART2_UART_Init+0x58>)
 800417e:	2200      	movs	r2, #0
 8004180:	625a      	str	r2, [r3, #36]	@ 0x24
  if (HAL_UART_Init(&huart2) != HAL_OK)
 8004182:	4b05      	ldr	r3, [pc, #20]	@ (8004198 <MX_USART2_UART_Init+0x58>)
 8004184:	0018      	movs	r0, r3
 8004186:	f002 fc11 	bl	80069ac <HAL_UART_Init>
 800418a:	1e03      	subs	r3, r0, #0
 800418c:	d001      	beq.n	8004192 <MX_USART2_UART_Init+0x52>
  {
    Error_Handler();
 800418e:	f000 f89b 	bl	80042c8 <Error_Handler>
  }
  /* USER CODE BEGIN USART2_Init 2 */

  /* USER CODE END USART2_Init 2 */

}
 8004192:	46c0      	nop			@ (mov r8, r8)
 8004194:	46bd      	mov	sp, r7
 8004196:	bd80      	pop	{r7, pc}
 8004198:	200000e8 	.word	0x200000e8
 800419c:	40004400 	.word	0x40004400

080041a0 <MX_GPIO_Init>:
  * @brief GPIO Initialization Function
  * @param None
  * @retval None
  */
static void MX_GPIO_Init(void)
{
 80041a0:	b590      	push	{r4, r7, lr}
 80041a2:	b08b      	sub	sp, #44	@ 0x2c
 80041a4:	af00      	add	r7, sp, #0
  GPIO_InitTypeDef GPIO_InitStruct = {0};
 80041a6:	2414      	movs	r4, #20
 80041a8:	193b      	adds	r3, r7, r4
 80041aa:	0018      	movs	r0, r3
 80041ac:	2314      	movs	r3, #20
 80041ae:	001a      	movs	r2, r3
 80041b0:	2100      	movs	r1, #0
 80041b2:	f003 f9ef 	bl	8007594 <memset>
/* USER CODE BEGIN MX_GPIO_Init_1 */
/* USER CODE END MX_GPIO_Init_1 */

  /* GPIO Ports Clock Enable */
  __HAL_RCC_GPIOC_CLK_ENABLE();
 80041b6:	4b41      	ldr	r3, [pc, #260]	@ (80042bc <MX_GPIO_Init+0x11c>)
 80041b8:	695a      	ldr	r2, [r3, #20]
 80041ba:	4b40      	ldr	r3, [pc, #256]	@ (80042bc <MX_GPIO_Init+0x11c>)
 80041bc:	2180      	movs	r1, #128	@ 0x80
 80041be:	0309      	lsls	r1, r1, #12
 80041c0:	430a      	orrs	r2, r1
 80041c2:	615a      	str	r2, [r3, #20]
 80041c4:	4b3d      	ldr	r3, [pc, #244]	@ (80042bc <MX_GPIO_Init+0x11c>)
 80041c6:	695a      	ldr	r2, [r3, #20]
 80041c8:	2380      	movs	r3, #128	@ 0x80
 80041ca:	031b      	lsls	r3, r3, #12
 80041cc:	4013      	ands	r3, r2
 80041ce:	613b      	str	r3, [r7, #16]
 80041d0:	693b      	ldr	r3, [r7, #16]
  __HAL_RCC_GPIOF_CLK_ENABLE();
 80041d2:	4b3a      	ldr	r3, [pc, #232]	@ (80042bc <MX_GPIO_Init+0x11c>)
 80041d4:	695a      	ldr	r2, [r3, #20]
 80041d6:	4b39      	ldr	r3, [pc, #228]	@ (80042bc <MX_GPIO_Init+0x11c>)
 80041d8:	2180      	movs	r1, #128	@ 0x80
 80041da:	03c9      	lsls	r1, r1, #15
 80041dc:	430a      	orrs	r2, r1
 80041de:	615a      	str	r2, [r3, #20]
 80041e0:	4b36      	ldr	r3, [pc, #216]	@ (80042bc <MX_GPIO_Init+0x11c>)
 80041e2:	695a      	ldr	r2, [r3, #20]
 80041e4:	2380      	movs	r3, #128	@ 0x80
 80041e6:	03db      	lsls	r3, r3, #15
 80041e8:	4013      	ands	r3, r2
 80041ea:	60fb      	str	r3, [r7, #12]
 80041ec:	68fb      	ldr	r3, [r7, #12]
  __HAL_RCC_GPIOA_CLK_ENABLE();
 80041ee:	4b33      	ldr	r3, [pc, #204]	@ (80042bc <MX_GPIO_Init+0x11c>)
 80041f0:	695a      	ldr	r2, [r3, #20]
 80041f2:	4b32      	ldr	r3, [pc, #200]	@ (80042bc <MX_GPIO_Init+0x11c>)
 80041f4:	2180      	movs	r1, #128	@ 0x80
 80041f6:	0289      	lsls	r1, r1, #10
 80041f8:	430a      	orrs	r2, r1
 80041fa:	615a      	str	r2, [r3, #20]
 80041fc:	4b2f      	ldr	r3, [pc, #188]	@ (80042bc <MX_GPIO_Init+0x11c>)
 80041fe:	695a      	ldr	r2, [r3, #20]
 8004200:	2380      	movs	r3, #128	@ 0x80
 8004202:	029b      	lsls	r3, r3, #10
 8004204:	4013      	ands	r3, r2
 8004206:	60bb      	str	r3, [r7, #8]
 8004208:	68bb      	ldr	r3, [r7, #8]
  __HAL_RCC_GPIOB_CLK_ENABLE();
 800420a:	4b2c      	ldr	r3, [pc, #176]	@ (80042bc <MX_GPIO_Init+0x11c>)
 800420c:	695a      	ldr	r2, [r3, #20]
 800420e:	4b2b      	ldr	r3, [pc, #172]	@ (80042bc <MX_GPIO_Init+0x11c>)
 8004210:	2180      	movs	r1, #128	@ 0x80
 8004212:	02c9      	lsls	r1, r1, #11
 8004214:	430a      	orrs	r2, r1
 8004216:	615a      	str	r2, [r3, #20]
 8004218:	4b28      	ldr	r3, [pc, #160]	@ (80042bc <MX_GPIO_Init+0x11c>)
 800421a:	695a      	ldr	r2, [r3, #20]
 800421c:	2380      	movs	r3, #128	@ 0x80
 800421e:	02db      	lsls	r3, r3, #11
 8004220:	4013      	ands	r3, r2
 8004222:	607b      	str	r3, [r7, #4]
 8004224:	687b      	ldr	r3, [r7, #4]

  /*Configure GPIO pin Output Level */
  HAL_GPIO_WritePin(LED_sys_GPIO_Port, LED_sys_Pin, GPIO_PIN_RESET);
 8004226:	2380      	movs	r3, #128	@ 0x80
 8004228:	019b      	lsls	r3, r3, #6
 800422a:	4825      	ldr	r0, [pc, #148]	@ (80042c0 <MX_GPIO_Init+0x120>)
 800422c:	2200      	movs	r2, #0
 800422e:	0019      	movs	r1, r3
 8004230:	f001 f8d9 	bl	80053e6 <HAL_GPIO_WritePin>

  /*Configure GPIO pin Output Level */
  HAL_GPIO_WritePin(OLED_RESET_GPIO_Port, OLED_RESET_Pin, GPIO_PIN_RESET);
 8004234:	2380      	movs	r3, #128	@ 0x80
 8004236:	005b      	lsls	r3, r3, #1
 8004238:	4822      	ldr	r0, [pc, #136]	@ (80042c4 <MX_GPIO_Init+0x124>)
 800423a:	2200      	movs	r2, #0
 800423c:	0019      	movs	r1, r3
 800423e:	f001 f8d2 	bl	80053e6 <HAL_GPIO_WritePin>

  /*Configure GPIO pin : LED_sys_Pin */
  GPIO_InitStruct.Pin = LED_sys_Pin;
 8004242:	193b      	adds	r3, r7, r4
 8004244:	2280      	movs	r2, #128	@ 0x80
 8004246:	0192      	lsls	r2, r2, #6
 8004248:	601a      	str	r2, [r3, #0]
  GPIO_InitStruct.Mode = GPIO_MODE_OUTPUT_PP;
 800424a:	193b      	adds	r3, r7, r4
 800424c:	2201      	movs	r2, #1
 800424e:	605a      	str	r2, [r3, #4]
  GPIO_InitStruct.Pull = GPIO_NOPULL;
 8004250:	193b      	adds	r3, r7, r4
 8004252:	2200      	movs	r2, #0
 8004254:	609a      	str	r2, [r3, #8]
  GPIO_InitStruct.Speed = GPIO_SPEED_FREQ_LOW;
 8004256:	193b      	adds	r3, r7, r4
 8004258:	2200      	movs	r2, #0
 800425a:	60da      	str	r2, [r3, #12]
  HAL_GPIO_Init(LED_sys_GPIO_Port, &GPIO_InitStruct);
 800425c:	193b      	adds	r3, r7, r4
 800425e:	4a18      	ldr	r2, [pc, #96]	@ (80042c0 <MX_GPIO_Init+0x120>)
 8004260:	0019      	movs	r1, r3
 8004262:	0010      	movs	r0, r2
 8004264:	f000 ff32 	bl	80050cc <HAL_GPIO_Init>

  /*Configure GPIO pin : PB12 */
  GPIO_InitStruct.Pin = GPIO_PIN_12;
 8004268:	0021      	movs	r1, r4
 800426a:	187b      	adds	r3, r7, r1
 800426c:	2280      	movs	r2, #128	@ 0x80
 800426e:	0152      	lsls	r2, r2, #5
 8004270:	601a      	str	r2, [r3, #0]
  GPIO_InitStruct.Mode = GPIO_MODE_INPUT;
 8004272:	000c      	movs	r4, r1
 8004274:	193b      	adds	r3, r7, r4
 8004276:	2200      	movs	r2, #0
 8004278:	605a      	str	r2, [r3, #4]
  GPIO_InitStruct.Pull = GPIO_PULLUP;
 800427a:	193b      	adds	r3, r7, r4
 800427c:	2201      	movs	r2, #1
 800427e:	609a      	str	r2, [r3, #8]
  HAL_GPIO_Init(GPIOB, &GPIO_InitStruct);
 8004280:	193b      	adds	r3, r7, r4
 8004282:	4a10      	ldr	r2, [pc, #64]	@ (80042c4 <MX_GPIO_Init+0x124>)
 8004284:	0019      	movs	r1, r3
 8004286:	0010      	movs	r0, r2
 8004288:	f000 ff20 	bl	80050cc <HAL_GPIO_Init>

  /*Configure GPIO pin : OLED_RESET_Pin */
  GPIO_InitStruct.Pin = OLED_RESET_Pin;
 800428c:	0021      	movs	r1, r4
 800428e:	187b      	adds	r3, r7, r1
 8004290:	2280      	movs	r2, #128	@ 0x80
 8004292:	0052      	lsls	r2, r2, #1
 8004294:	601a      	str	r2, [r3, #0]
  GPIO_InitStruct.Mode = GPIO_MODE_OUTPUT_PP;
 8004296:	187b      	adds	r3, r7, r1
 8004298:	2201      	movs	r2, #1
 800429a:	605a      	str	r2, [r3, #4]
  GPIO_InitStruct.Pull = GPIO_NOPULL;
 800429c:	187b      	adds	r3, r7, r1
 800429e:	2200      	movs	r2, #0
 80042a0:	609a      	str	r2, [r3, #8]
  GPIO_InitStruct.Speed = GPIO_SPEED_FREQ_LOW;
 80042a2:	187b      	adds	r3, r7, r1
 80042a4:	2200      	movs	r2, #0
 80042a6:	60da      	str	r2, [r3, #12]
  HAL_GPIO_Init(OLED_RESET_GPIO_Port, &GPIO_InitStruct);
 80042a8:	187b      	adds	r3, r7, r1
 80042aa:	4a06      	ldr	r2, [pc, #24]	@ (80042c4 <MX_GPIO_Init+0x124>)
 80042ac:	0019      	movs	r1, r3
 80042ae:	0010      	movs	r0, r2
 80042b0:	f000 ff0c 	bl	80050cc <HAL_GPIO_Init>

/* USER CODE BEGIN MX_GPIO_Init_2 */
/* USER CODE END MX_GPIO_Init_2 */
}
 80042b4:	46c0      	nop			@ (mov r8, r8)
 80042b6:	46bd      	mov	sp, r7
 80042b8:	b00b      	add	sp, #44	@ 0x2c
 80042ba:	bd90      	pop	{r4, r7, pc}
 80042bc:	40021000 	.word	0x40021000
 80042c0:	48000800 	.word	0x48000800
 80042c4:	48000400 	.word	0x48000400

080042c8 <Error_Handler>:
/**
  * @brief  This function is executed in case of error occurrence.
  * @retval None
  */
void Error_Handler(void)
{
 80042c8:	b580      	push	{r7, lr}
 80042ca:	af00      	add	r7, sp, #0
  \details Disables IRQ interrupts by setting the I-bit in the CPSR.
           Can only be executed in Privileged modes.
 */
__STATIC_FORCEINLINE void __disable_irq(void)
{
  __ASM volatile ("cpsid i" : : : "memory");
 80042cc:	b672      	cpsid	i
}
 80042ce:	46c0      	nop			@ (mov r8, r8)
  /* USER CODE BEGIN Error_Handler_Debug */
  /* User can add his own implementation to report the HAL error return state */
  __disable_irq();
  while (1)
 80042d0:	46c0      	nop			@ (mov r8, r8)
 80042d2:	e7fd      	b.n	80042d0 <Error_Handler+0x8>

080042d4 <SSD1306_Init>:
 80042d4:	b580      	push	{r7, lr}
 80042d6:	b082      	sub	sp, #8
 80042d8:	af00      	add	r7, sp, #0
 80042da:	f000 fbd5 	bl	8004a88 <ssd1306_I2C_Init>
 80042de:	4b5b      	ldr	r3, [pc, #364]	@ (800444c <SSD1306_Init+0x178>)
 80042e0:	485b      	ldr	r0, [pc, #364]	@ (8004450 <SSD1306_Init+0x17c>)
 80042e2:	2201      	movs	r2, #1
 80042e4:	2178      	movs	r1, #120	@ 0x78
 80042e6:	f001 fa6b 	bl	80057c0 <HAL_I2C_IsDeviceReady>
 80042ea:	1e03      	subs	r3, r0, #0
 80042ec:	d001      	beq.n	80042f2 <SSD1306_Init+0x1e>
 80042ee:	2300      	movs	r3, #0
 80042f0:	e0a8      	b.n	8004444 <SSD1306_Init+0x170>
 80042f2:	4b58      	ldr	r3, [pc, #352]	@ (8004454 <SSD1306_Init+0x180>)
 80042f4:	607b      	str	r3, [r7, #4]
 80042f6:	e002      	b.n	80042fe <SSD1306_Init+0x2a>
 80042f8:	687b      	ldr	r3, [r7, #4]
 80042fa:	3b01      	subs	r3, #1
 80042fc:	607b      	str	r3, [r7, #4]
 80042fe:	687b      	ldr	r3, [r7, #4]
 8004300:	2b00      	cmp	r3, #0
 8004302:	d1f9      	bne.n	80042f8 <SSD1306_Init+0x24>
 8004304:	22ae      	movs	r2, #174	@ 0xae
 8004306:	2100      	movs	r1, #0
 8004308:	2078      	movs	r0, #120	@ 0x78
 800430a:	f000 fc3d 	bl	8004b88 <ssd1306_I2C_Write>
 800430e:	2220      	movs	r2, #32
 8004310:	2100      	movs	r1, #0
 8004312:	2078      	movs	r0, #120	@ 0x78
 8004314:	f000 fc38 	bl	8004b88 <ssd1306_I2C_Write>
 8004318:	2210      	movs	r2, #16
 800431a:	2100      	movs	r1, #0
 800431c:	2078      	movs	r0, #120	@ 0x78
 800431e:	f000 fc33 	bl	8004b88 <ssd1306_I2C_Write>
 8004322:	22b0      	movs	r2, #176	@ 0xb0
 8004324:	2100      	movs	r1, #0
 8004326:	2078      	movs	r0, #120	@ 0x78
 8004328:	f000 fc2e 	bl	8004b88 <ssd1306_I2C_Write>
 800432c:	22c8      	movs	r2, #200	@ 0xc8
 800432e:	2100      	movs	r1, #0
 8004330:	2078      	movs	r0, #120	@ 0x78
 8004332:	f000 fc29 	bl	8004b88 <ssd1306_I2C_Write>
 8004336:	2200      	movs	r2, #0
 8004338:	2100      	movs	r1, #0
 800433a:	2078      	movs	r0, #120	@ 0x78
 800433c:	f000 fc24 	bl	8004b88 <ssd1306_I2C_Write>
 8004340:	2210      	movs	r2, #16
 8004342:	2100      	movs	r1, #0
 8004344:	2078      	movs	r0, #120	@ 0x78
 8004346:	f000 fc1f 	bl	8004b88 <ssd1306_I2C_Write>
 800434a:	2240      	movs	r2, #64	@ 0x40
 800434c:	2100      	movs	r1, #0
 800434e:	2078      	movs	r0, #120	@ 0x78
 8004350:	f000 fc1a 	bl	8004b88 <ssd1306_I2C_Write>
 8004354:	2281      	movs	r2, #129	@ 0x81
 8004356:	2100      	movs	r1, #0
 8004358:	2078      	movs	r0, #120	@ 0x78
 800435a:	f000 fc15 	bl	8004b88 <ssd1306_I2C_Write>
 800435e:	22ff      	movs	r2, #255	@ 0xff
 8004360:	2100      	movs	r1, #0
 8004362:	2078      	movs	r0, #120	@ 0x78
 8004364:	f000 fc10 	bl	8004b88 <ssd1306_I2C_Write>
 8004368:	22a1      	movs	r2, #161	@ 0xa1
 800436a:	2100      	movs	r1, #0
 800436c:	2078      	movs	r0, #120	@ 0x78
 800436e:	f000 fc0b 	bl	8004b88 <ssd1306_I2C_Write>
 8004372:	22a6      	movs	r2, #166	@ 0xa6
 8004374:	2100      	movs	r1, #0
 8004376:	2078      	movs	r0, #120	@ 0x78
 8004378:	f000 fc06 	bl	8004b88 <ssd1306_I2C_Write>
 800437c:	22a8      	movs	r2, #168	@ 0xa8
 800437e:	2100      	movs	r1, #0
 8004380:	2078      	movs	r0, #120	@ 0x78
 8004382:	f000 fc01 	bl	8004b88 <ssd1306_I2C_Write>
 8004386:	223f      	movs	r2, #63	@ 0x3f
 8004388:	2100      	movs	r1, #0
 800438a:	2078      	movs	r0, #120	@ 0x78
 800438c:	f000 fbfc 	bl	8004b88 <ssd1306_I2C_Write>
 8004390:	22a4      	movs	r2, #164	@ 0xa4
 8004392:	2100      	movs	r1, #0
 8004394:	2078      	movs	r0, #120	@ 0x78
 8004396:	f000 fbf7 	bl	8004b88 <ssd1306_I2C_Write>
 800439a:	22d3      	movs	r2, #211	@ 0xd3
 800439c:	2100      	movs	r1, #0
 800439e:	2078      	movs	r0, #120	@ 0x78
 80043a0:	f000 fbf2 	bl	8004b88 <ssd1306_I2C_Write>
 80043a4:	2200      	movs	r2, #0
 80043a6:	2100      	movs	r1, #0
 80043a8:	2078      	movs	r0, #120	@ 0x78
 80043aa:	f000 fbed 	bl	8004b88 <ssd1306_I2C_Write>
 80043ae:	22d5      	movs	r2, #213	@ 0xd5
 80043b0:	2100      	movs	r1, #0
 80043b2:	2078      	movs	r0, #120	@ 0x78
 80043b4:	f000 fbe8 	bl	8004b88 <ssd1306_I2C_Write>
 80043b8:	22f0      	movs	r2, #240	@ 0xf0
 80043ba:	2100      	movs	r1, #0
 80043bc:	2078      	movs	r0, #120	@ 0x78
 80043be:	f000 fbe3 	bl	8004b88 <ssd1306_I2C_Write>
 80043c2:	22d9      	movs	r2, #217	@ 0xd9
 80043c4:	2100      	movs	r1, #0
 80043c6:	2078      	movs	r0, #120	@ 0x78
 80043c8:	f000 fbde 	bl	8004b88 <ssd1306_I2C_Write>
 80043cc:	2222      	movs	r2, #34	@ 0x22
 80043ce:	2100      	movs	r1, #0
 80043d0:	2078      	movs	r0, #120	@ 0x78
 80043d2:	f000 fbd9 	bl	8004b88 <ssd1306_I2C_Write>
 80043d6:	22da      	movs	r2, #218	@ 0xda
 80043d8:	2100      	movs	r1, #0
 80043da:	2078      	movs	r0, #120	@ 0x78
 80043dc:	f000 fbd4 	bl	8004b88 <ssd1306_I2C_Write>
 80043e0:	2212      	movs	r2, #18
 80043e2:	2100      	movs	r1, #0
 80043e4:	2078      	movs	r0, #120	@ 0x78
 80043e6:	f000 fbcf 	bl	8004b88 <ssd1306_I2C_Write>
 80043ea:	22db      	movs	r2, #219	@ 0xdb
 80043ec:	2100      	movs	r1, #0
 80043ee:	2078      	movs	r0, #120	@ 0x78
 80043f0:	f000 fbca 	bl	8004b88 <ssd1306_I2C_Write>
 80043f4:	2220      	movs	r2, #32
 80043f6:	2100      	movs	r1, #0
 80043f8:	2078      	movs	r0, #120	@ 0x78
 80043fa:	f000 fbc5 	bl	8004b88 <ssd1306_I2C_Write>
 80043fe:	228d      	movs	r2, #141	@ 0x8d
 8004400:	2100      	movs	r1, #0
 8004402:	2078      	movs	r0, #120	@ 0x78
 8004404:	f000 fbc0 	bl	8004b88 <ssd1306_I2C_Write>
 8004408:	2214      	movs	r2, #20
 800440a:	2100      	movs	r1, #0
 800440c:	2078      	movs	r0, #120	@ 0x78
 800440e:	f000 fbbb 	bl	8004b88 <ssd1306_I2C_Write>
 8004412:	22af      	movs	r2, #175	@ 0xaf
 8004414:	2100      	movs	r1, #0
 8004416:	2078      	movs	r0, #120	@ 0x78
 8004418:	f000 fbb6 	bl	8004b88 <ssd1306_I2C_Write>
 800441c:	222e      	movs	r2, #46	@ 0x2e
 800441e:	2100      	movs	r1, #0
 8004420:	2078      	movs	r0, #120	@ 0x78
 8004422:	f000 fbb1 	bl	8004b88 <ssd1306_I2C_Write>
 8004426:	2000      	movs	r0, #0
 8004428:	f000 f84c 	bl	80044c4 <SSD1306_Fill>
 800442c:	f000 f816 	bl	800445c <SSD1306_UpdateScreen>
 8004430:	4b09      	ldr	r3, [pc, #36]	@ (8004458 <SSD1306_Init+0x184>)
 8004432:	2200      	movs	r2, #0
 8004434:	801a      	strh	r2, [r3, #0]
 8004436:	4b08      	ldr	r3, [pc, #32]	@ (8004458 <SSD1306_Init+0x184>)
 8004438:	2200      	movs	r2, #0
 800443a:	805a      	strh	r2, [r3, #2]
 800443c:	4b06      	ldr	r3, [pc, #24]	@ (8004458 <SSD1306_Init+0x184>)
 800443e:	2201      	movs	r2, #1
 8004440:	715a      	strb	r2, [r3, #5]
 8004442:	2301      	movs	r3, #1
 8004444:	0018      	movs	r0, r3
 8004446:	46bd      	mov	sp, r7
 8004448:	b002      	add	sp, #8
 800444a:	bd80      	pop	{r7, pc}
 800444c:	00004e20 	.word	0x00004e20
 8004450:	20000094 	.word	0x20000094
 8004454:	000009c4 	.word	0x000009c4
 8004458:	20000580 	.word	0x20000580

0800445c <SSD1306_UpdateScreen>:
 800445c:	b580      	push	{r7, lr}
 800445e:	b082      	sub	sp, #8
 8004460:	af00      	add	r7, sp, #0
 8004462:	1dfb      	adds	r3, r7, #7
 8004464:	2200      	movs	r2, #0
 8004466:	701a      	strb	r2, [r3, #0]
 8004468:	e021      	b.n	80044ae <SSD1306_UpdateScreen+0x52>
 800446a:	1dfb      	adds	r3, r7, #7
 800446c:	781b      	ldrb	r3, [r3, #0]
 800446e:	3b50      	subs	r3, #80	@ 0x50
 8004470:	b2db      	uxtb	r3, r3
 8004472:	001a      	movs	r2, r3
 8004474:	2100      	movs	r1, #0
 8004476:	2078      	movs	r0, #120	@ 0x78
 8004478:	f000 fb86 	bl	8004b88 <ssd1306_I2C_Write>
 800447c:	2200      	movs	r2, #0
 800447e:	2100      	movs	r1, #0
 8004480:	2078      	movs	r0, #120	@ 0x78
 8004482:	f000 fb81 	bl	8004b88 <ssd1306_I2C_Write>
 8004486:	2210      	movs	r2, #16
 8004488:	2100      	movs	r1, #0
 800448a:	2078      	movs	r0, #120	@ 0x78
 800448c:	f000 fb7c 	bl	8004b88 <ssd1306_I2C_Write>
 8004490:	1dfb      	adds	r3, r7, #7
 8004492:	781b      	ldrb	r3, [r3, #0]
 8004494:	01da      	lsls	r2, r3, #7
 8004496:	4b0a      	ldr	r3, [pc, #40]	@ (80044c0 <SSD1306_UpdateScreen+0x64>)
 8004498:	18d2      	adds	r2, r2, r3
 800449a:	2380      	movs	r3, #128	@ 0x80
 800449c:	2140      	movs	r1, #64	@ 0x40
 800449e:	2078      	movs	r0, #120	@ 0x78
 80044a0:	f000 fb06 	bl	8004ab0 <ssd1306_I2C_WriteMulti>
 80044a4:	1dfb      	adds	r3, r7, #7
 80044a6:	781a      	ldrb	r2, [r3, #0]
 80044a8:	1dfb      	adds	r3, r7, #7
 80044aa:	3201      	adds	r2, #1
 80044ac:	701a      	strb	r2, [r3, #0]
 80044ae:	1dfb      	adds	r3, r7, #7
 80044b0:	781b      	ldrb	r3, [r3, #0]
 80044b2:	2b07      	cmp	r3, #7
 80044b4:	d9d9      	bls.n	800446a <SSD1306_UpdateScreen+0xe>
 80044b6:	46c0      	nop			@ (mov r8, r8)
 80044b8:	46c0      	nop			@ (mov r8, r8)
 80044ba:	46bd      	mov	sp, r7
 80044bc:	b002      	add	sp, #8
 80044be:	bd80      	pop	{r7, pc}
 80044c0:	20000180 	.word	0x20000180

080044c4 <SSD1306_Fill>:
 80044c4:	b580      	push	{r7, lr}
 80044c6:	b082      	sub	sp, #8
 80044c8:	af00      	add	r7, sp, #0
 80044ca:	0002      	movs	r2, r0
 80044cc:	1dfb      	adds	r3, r7, #7
 80044ce:	701a      	strb	r2, [r3, #0]
 80044d0:	1dfb      	adds	r3, r7, #7
 80044d2:	781b      	ldrb	r3, [r3, #0]
 80044d4:	2b00      	cmp	r3, #0
 80044d6:	d101      	bne.n	80044dc <SSD1306_Fill+0x18>
 80044d8:	2300      	movs	r3, #0
 80044da:	e000      	b.n	80044de <SSD1306_Fill+0x1a>
 80044dc:	23ff      	movs	r3, #255	@ 0xff
 80044de:	2280      	movs	r2, #128	@ 0x80
 80044e0:	00d2      	lsls	r2, r2, #3
 80044e2:	4804      	ldr	r0, [pc, #16]	@ (80044f4 <SSD1306_Fill+0x30>)
 80044e4:	0019      	movs	r1, r3
 80044e6:	f003 f855 	bl	8007594 <memset>
 80044ea:	46c0      	nop			@ (mov r8, r8)
 80044ec:	46bd      	mov	sp, r7
 80044ee:	b002      	add	sp, #8
 80044f0:	bd80      	pop	{r7, pc}
 80044f2:	46c0      	nop			@ (mov r8, r8)
 80044f4:	20000180 	.word	0x20000180

080044f8 <SSD1306_DrawPixel>:
 80044f8:	b590      	push	{r4, r7, lr}
 80044fa:	b083      	sub	sp, #12
 80044fc:	af00      	add	r7, sp, #0
 80044fe:	0004      	movs	r4, r0
 8004500:	0008      	movs	r0, r1
 8004502:	0011      	movs	r1, r2
 8004504:	1dbb      	adds	r3, r7, #6
 8004506:	1c22      	adds	r2, r4, #0
 8004508:	801a      	strh	r2, [r3, #0]
 800450a:	1d3b      	adds	r3, r7, #4
 800450c:	1c02      	adds	r2, r0, #0
 800450e:	801a      	strh	r2, [r3, #0]
 8004510:	1cfb      	adds	r3, r7, #3
 8004512:	1c0a      	adds	r2, r1, #0
 8004514:	701a      	strb	r2, [r3, #0]
 8004516:	1dbb      	adds	r3, r7, #6
 8004518:	881b      	ldrh	r3, [r3, #0]
 800451a:	2b7f      	cmp	r3, #127	@ 0x7f
 800451c:	d852      	bhi.n	80045c4 <SSD1306_DrawPixel+0xcc>
 800451e:	1d3b      	adds	r3, r7, #4
 8004520:	881b      	ldrh	r3, [r3, #0]
 8004522:	2b3f      	cmp	r3, #63	@ 0x3f
 8004524:	d84e      	bhi.n	80045c4 <SSD1306_DrawPixel+0xcc>
 8004526:	4b29      	ldr	r3, [pc, #164]	@ (80045cc <SSD1306_DrawPixel+0xd4>)
 8004528:	791b      	ldrb	r3, [r3, #4]
 800452a:	2b00      	cmp	r3, #0
 800452c:	d006      	beq.n	800453c <SSD1306_DrawPixel+0x44>
 800452e:	1cfb      	adds	r3, r7, #3
 8004530:	781b      	ldrb	r3, [r3, #0]
 8004532:	425a      	negs	r2, r3
 8004534:	4153      	adcs	r3, r2
 8004536:	b2da      	uxtb	r2, r3
 8004538:	1cfb      	adds	r3, r7, #3
 800453a:	701a      	strb	r2, [r3, #0]
 800453c:	1cfb      	adds	r3, r7, #3
 800453e:	781b      	ldrb	r3, [r3, #0]
 8004540:	2b01      	cmp	r3, #1
 8004542:	d11e      	bne.n	8004582 <SSD1306_DrawPixel+0x8a>
 8004544:	1dbb      	adds	r3, r7, #6
 8004546:	881a      	ldrh	r2, [r3, #0]
 8004548:	1d3b      	adds	r3, r7, #4
 800454a:	881b      	ldrh	r3, [r3, #0]
 800454c:	08db      	lsrs	r3, r3, #3
 800454e:	b298      	uxth	r0, r3
 8004550:	0003      	movs	r3, r0
 8004552:	01db      	lsls	r3, r3, #7
 8004554:	18d3      	adds	r3, r2, r3
 8004556:	4a1e      	ldr	r2, [pc, #120]	@ (80045d0 <SSD1306_DrawPixel+0xd8>)
 8004558:	5cd3      	ldrb	r3, [r2, r3]
 800455a:	b25a      	sxtb	r2, r3
 800455c:	1d3b      	adds	r3, r7, #4
 800455e:	881b      	ldrh	r3, [r3, #0]
 8004560:	2107      	movs	r1, #7
 8004562:	400b      	ands	r3, r1
 8004564:	2101      	movs	r1, #1
 8004566:	4099      	lsls	r1, r3
 8004568:	000b      	movs	r3, r1
 800456a:	b25b      	sxtb	r3, r3
 800456c:	4313      	orrs	r3, r2
 800456e:	b259      	sxtb	r1, r3
 8004570:	1dbb      	adds	r3, r7, #6
 8004572:	881a      	ldrh	r2, [r3, #0]
 8004574:	0003      	movs	r3, r0
 8004576:	01db      	lsls	r3, r3, #7
 8004578:	18d3      	adds	r3, r2, r3
 800457a:	b2c9      	uxtb	r1, r1
 800457c:	4a14      	ldr	r2, [pc, #80]	@ (80045d0 <SSD1306_DrawPixel+0xd8>)
 800457e:	54d1      	strb	r1, [r2, r3]
 8004580:	e021      	b.n	80045c6 <SSD1306_DrawPixel+0xce>
 8004582:	1dbb      	adds	r3, r7, #6
 8004584:	881a      	ldrh	r2, [r3, #0]
 8004586:	1d3b      	adds	r3, r7, #4
 8004588:	881b      	ldrh	r3, [r3, #0]
 800458a:	08db      	lsrs	r3, r3, #3
 800458c:	b298      	uxth	r0, r3
 800458e:	0003      	movs	r3, r0
 8004590:	01db      	lsls	r3, r3, #7
 8004592:	18d3      	adds	r3, r2, r3
 8004594:	4a0e      	ldr	r2, [pc, #56]	@ (80045d0 <SSD1306_DrawPixel+0xd8>)
 8004596:	5cd3      	ldrb	r3, [r2, r3]
 8004598:	b25b      	sxtb	r3, r3
 800459a:	1d3a      	adds	r2, r7, #4
 800459c:	8812      	ldrh	r2, [r2, #0]
 800459e:	2107      	movs	r1, #7
 80045a0:	400a      	ands	r2, r1
 80045a2:	2101      	movs	r1, #1
 80045a4:	4091      	lsls	r1, r2
 80045a6:	000a      	movs	r2, r1
 80045a8:	b252      	sxtb	r2, r2
 80045aa:	43d2      	mvns	r2, r2
 80045ac:	b252      	sxtb	r2, r2
 80045ae:	4013      	ands	r3, r2
 80045b0:	b259      	sxtb	r1, r3
 80045b2:	1dbb      	adds	r3, r7, #6
 80045b4:	881a      	ldrh	r2, [r3, #0]
 80045b6:	0003      	movs	r3, r0
 80045b8:	01db      	lsls	r3, r3, #7
 80045ba:	18d3      	adds	r3, r2, r3
 80045bc:	b2c9      	uxtb	r1, r1
 80045be:	4a04      	ldr	r2, [pc, #16]	@ (80045d0 <SSD1306_DrawPixel+0xd8>)
 80045c0:	54d1      	strb	r1, [r2, r3]
 80045c2:	e000      	b.n	80045c6 <SSD1306_DrawPixel+0xce>
 80045c4:	46c0      	nop			@ (mov r8, r8)
 80045c6:	46bd      	mov	sp, r7
 80045c8:	b003      	add	sp, #12
 80045ca:	bd90      	pop	{r4, r7, pc}
 80045cc:	20000580 	.word	0x20000580
 80045d0:	20000180 	.word	0x20000180

080045d4 <SSD1306_GotoXY>:
 80045d4:	b580      	push	{r7, lr}
 80045d6:	b082      	sub	sp, #8
 80045d8:	af00      	add	r7, sp, #0
 80045da:	0002      	movs	r2, r0
 80045dc:	1dbb      	adds	r3, r7, #6
 80045de:	801a      	strh	r2, [r3, #0]
 80045e0:	1d3b      	adds	r3, r7, #4
 80045e2:	1c0a      	adds	r2, r1, #0
 80045e4:	801a      	strh	r2, [r3, #0]
 80045e6:	4b06      	ldr	r3, [pc, #24]	@ (8004600 <SSD1306_GotoXY+0x2c>)
 80045e8:	1dba      	adds	r2, r7, #6
 80045ea:	8812      	ldrh	r2, [r2, #0]
 80045ec:	801a      	strh	r2, [r3, #0]
 80045ee:	4b04      	ldr	r3, [pc, #16]	@ (8004600 <SSD1306_GotoXY+0x2c>)
 80045f0:	1d3a      	adds	r2, r7, #4
 80045f2:	8812      	ldrh	r2, [r2, #0]
 80045f4:	805a      	strh	r2, [r3, #2]
 80045f6:	46c0      	nop			@ (mov r8, r8)
 80045f8:	46bd      	mov	sp, r7
 80045fa:	b002      	add	sp, #8
 80045fc:	bd80      	pop	{r7, pc}
 80045fe:	46c0      	nop			@ (mov r8, r8)
 8004600:	20000580 	.word	0x20000580

08004604 <SSD1306_Putc>:
 8004604:	b580      	push	{r7, lr}
 8004606:	b086      	sub	sp, #24
 8004608:	af00      	add	r7, sp, #0
 800460a:	6039      	str	r1, [r7, #0]
 800460c:	0011      	movs	r1, r2
 800460e:	1dfb      	adds	r3, r7, #7
 8004610:	1c02      	adds	r2, r0, #0
 8004612:	701a      	strb	r2, [r3, #0]
 8004614:	1dbb      	adds	r3, r7, #6
 8004616:	1c0a      	adds	r2, r1, #0
 8004618:	701a      	strb	r2, [r3, #0]
 800461a:	4b3a      	ldr	r3, [pc, #232]	@ (8004704 <SSD1306_Putc+0x100>)
 800461c:	881b      	ldrh	r3, [r3, #0]
 800461e:	001a      	movs	r2, r3
 8004620:	683b      	ldr	r3, [r7, #0]
 8004622:	781b      	ldrb	r3, [r3, #0]
 8004624:	18d3      	adds	r3, r2, r3
 8004626:	2b7f      	cmp	r3, #127	@ 0x7f
 8004628:	dc07      	bgt.n	800463a <SSD1306_Putc+0x36>
 800462a:	4b36      	ldr	r3, [pc, #216]	@ (8004704 <SSD1306_Putc+0x100>)
 800462c:	885b      	ldrh	r3, [r3, #2]
 800462e:	001a      	movs	r2, r3
 8004630:	683b      	ldr	r3, [r7, #0]
 8004632:	785b      	ldrb	r3, [r3, #1]
 8004634:	18d3      	adds	r3, r2, r3
 8004636:	2b3f      	cmp	r3, #63	@ 0x3f
 8004638:	dd01      	ble.n	800463e <SSD1306_Putc+0x3a>
 800463a:	2300      	movs	r3, #0
 800463c:	e05d      	b.n	80046fa <SSD1306_Putc+0xf6>
 800463e:	2300      	movs	r3, #0
 8004640:	617b      	str	r3, [r7, #20]
 8004642:	e04a      	b.n	80046da <SSD1306_Putc+0xd6>
 8004644:	683b      	ldr	r3, [r7, #0]
 8004646:	685a      	ldr	r2, [r3, #4]
 8004648:	1dfb      	adds	r3, r7, #7
 800464a:	781b      	ldrb	r3, [r3, #0]
 800464c:	3b20      	subs	r3, #32
 800464e:	6839      	ldr	r1, [r7, #0]
 8004650:	7849      	ldrb	r1, [r1, #1]
 8004652:	434b      	muls	r3, r1
 8004654:	0019      	movs	r1, r3
 8004656:	697b      	ldr	r3, [r7, #20]
 8004658:	18cb      	adds	r3, r1, r3
 800465a:	005b      	lsls	r3, r3, #1
 800465c:	18d3      	adds	r3, r2, r3
 800465e:	881b      	ldrh	r3, [r3, #0]
 8004660:	60fb      	str	r3, [r7, #12]
 8004662:	2300      	movs	r3, #0
 8004664:	613b      	str	r3, [r7, #16]
 8004666:	e02f      	b.n	80046c8 <SSD1306_Putc+0xc4>
 8004668:	68fa      	ldr	r2, [r7, #12]
 800466a:	693b      	ldr	r3, [r7, #16]
 800466c:	409a      	lsls	r2, r3
 800466e:	2380      	movs	r3, #128	@ 0x80
 8004670:	021b      	lsls	r3, r3, #8
 8004672:	4013      	ands	r3, r2
 8004674:	d011      	beq.n	800469a <SSD1306_Putc+0x96>
 8004676:	4b23      	ldr	r3, [pc, #140]	@ (8004704 <SSD1306_Putc+0x100>)
 8004678:	881a      	ldrh	r2, [r3, #0]
 800467a:	693b      	ldr	r3, [r7, #16]
 800467c:	b29b      	uxth	r3, r3
 800467e:	18d3      	adds	r3, r2, r3
 8004680:	b298      	uxth	r0, r3
 8004682:	4b20      	ldr	r3, [pc, #128]	@ (8004704 <SSD1306_Putc+0x100>)
 8004684:	885a      	ldrh	r2, [r3, #2]
 8004686:	697b      	ldr	r3, [r7, #20]
 8004688:	b29b      	uxth	r3, r3
 800468a:	18d3      	adds	r3, r2, r3
 800468c:	b299      	uxth	r1, r3
 800468e:	1dbb      	adds	r3, r7, #6
 8004690:	781b      	ldrb	r3, [r3, #0]
 8004692:	001a      	movs	r2, r3
 8004694:	f7ff ff30 	bl	80044f8 <SSD1306_DrawPixel>
 8004698:	e013      	b.n	80046c2 <SSD1306_Putc+0xbe>
 800469a:	4b1a      	ldr	r3, [pc, #104]	@ (8004704 <SSD1306_Putc+0x100>)
 800469c:	881a      	ldrh	r2, [r3, #0]
 800469e:	693b      	ldr	r3, [r7, #16]
 80046a0:	b29b      	uxth	r3, r3
 80046a2:	18d3      	adds	r3, r2, r3
 80046a4:	b298      	uxth	r0, r3
 80046a6:	4b17      	ldr	r3, [pc, #92]	@ (8004704 <SSD1306_Putc+0x100>)
 80046a8:	885a      	ldrh	r2, [r3, #2]
 80046aa:	697b      	ldr	r3, [r7, #20]
 80046ac:	b29b      	uxth	r3, r3
 80046ae:	18d3      	adds	r3, r2, r3
 80046b0:	b299      	uxth	r1, r3
 80046b2:	1dbb      	adds	r3, r7, #6
 80046b4:	781b      	ldrb	r3, [r3, #0]
 80046b6:	425a      	negs	r2, r3
 80046b8:	4153      	adcs	r3, r2
 80046ba:	b2db      	uxtb	r3, r3
 80046bc:	001a      	movs	r2, r3
 80046be:	f7ff ff1b 	bl	80044f8 <SSD1306_DrawPixel>
 80046c2:	693b      	ldr	r3, [r7, #16]
 80046c4:	3301      	adds	r3, #1
 80046c6:	613b      	str	r3, [r7, #16]
 80046c8:	683b      	ldr	r3, [r7, #0]
 80046ca:	781b      	ldrb	r3, [r3, #0]
 80046cc:	001a      	movs	r2, r3
 80046ce:	693b      	ldr	r3, [r7, #16]
 80046d0:	4293      	cmp	r3, r2
 80046d2:	d3c9      	bcc.n	8004668 <SSD1306_Putc+0x64>
 80046d4:	697b      	ldr	r3, [r7, #20]
 80046d6:	3301      	adds	r3, #1
 80046d8:	617b      	str	r3, [r7, #20]
 80046da:	683b      	ldr	r3, [r7, #0]
 80046dc:	785b      	ldrb	r3, [r3, #1]
 80046de:	001a      	movs	r2, r3
 80046e0:	697b      	ldr	r3, [r7, #20]
 80046e2:	4293      	cmp	r3, r2
 80046e4:	d3ae      	bcc.n	8004644 <SSD1306_Putc+0x40>
 80046e6:	4b07      	ldr	r3, [pc, #28]	@ (8004704 <SSD1306_Putc+0x100>)
 80046e8:	881b      	ldrh	r3, [r3, #0]
 80046ea:	683a      	ldr	r2, [r7, #0]
 80046ec:	7812      	ldrb	r2, [r2, #0]
 80046ee:	189b      	adds	r3, r3, r2
 80046f0:	b29a      	uxth	r2, r3
 80046f2:	4b04      	ldr	r3, [pc, #16]	@ (8004704 <SSD1306_Putc+0x100>)
 80046f4:	801a      	strh	r2, [r3, #0]
 80046f6:	1dfb      	adds	r3, r7, #7
 80046f8:	781b      	ldrb	r3, [r3, #0]
 80046fa:	0018      	movs	r0, r3
 80046fc:	46bd      	mov	sp, r7
 80046fe:	b006      	add	sp, #24
 8004700:	bd80      	pop	{r7, pc}
 8004702:	46c0      	nop			@ (mov r8, r8)
 8004704:	20000580 	.word	0x20000580

08004708 <SSD1306_Puts>:
 8004708:	b580      	push	{r7, lr}
 800470a:	b084      	sub	sp, #16
 800470c:	af00      	add	r7, sp, #0
 800470e:	60f8      	str	r0, [r7, #12]
 8004710:	60b9      	str	r1, [r7, #8]
 8004712:	1dfb      	adds	r3, r7, #7
 8004714:	701a      	strb	r2, [r3, #0]
 8004716:	e013      	b.n	8004740 <SSD1306_Puts+0x38>
 8004718:	68fb      	ldr	r3, [r7, #12]
 800471a:	7818      	ldrb	r0, [r3, #0]
 800471c:	1dfb      	adds	r3, r7, #7
 800471e:	781a      	ldrb	r2, [r3, #0]
 8004720:	68bb      	ldr	r3, [r7, #8]
 8004722:	0019      	movs	r1, r3
 8004724:	f7ff ff6e 	bl	8004604 <SSD1306_Putc>
 8004728:	0003      	movs	r3, r0
 800472a:	001a      	movs	r2, r3
 800472c:	68fb      	ldr	r3, [r7, #12]
 800472e:	781b      	ldrb	r3, [r3, #0]
 8004730:	429a      	cmp	r2, r3
 8004732:	d002      	beq.n	800473a <SSD1306_Puts+0x32>
 8004734:	68fb      	ldr	r3, [r7, #12]
 8004736:	781b      	ldrb	r3, [r3, #0]
 8004738:	e008      	b.n	800474c <SSD1306_Puts+0x44>
 800473a:	68fb      	ldr	r3, [r7, #12]
 800473c:	3301      	adds	r3, #1
 800473e:	60fb      	str	r3, [r7, #12]
 8004740:	68fb      	ldr	r3, [r7, #12]
 8004742:	781b      	ldrb	r3, [r3, #0]
 8004744:	2b00      	cmp	r3, #0
 8004746:	d1e7      	bne.n	8004718 <SSD1306_Puts+0x10>
 8004748:	68fb      	ldr	r3, [r7, #12]
 800474a:	781b      	ldrb	r3, [r3, #0]
 800474c:	0018      	movs	r0, r3
 800474e:	46bd      	mov	sp, r7
 8004750:	b004      	add	sp, #16
 8004752:	bd80      	pop	{r7, pc}

08004754 <SSD1306_DrawLine>:
 8004754:	b5b0      	push	{r4, r5, r7, lr}
 8004756:	b086      	sub	sp, #24
 8004758:	af00      	add	r7, sp, #0
 800475a:	0005      	movs	r5, r0
 800475c:	000c      	movs	r4, r1
 800475e:	0010      	movs	r0, r2
 8004760:	0019      	movs	r1, r3
 8004762:	1dbb      	adds	r3, r7, #6
 8004764:	1c2a      	adds	r2, r5, #0
 8004766:	801a      	strh	r2, [r3, #0]
 8004768:	1d3b      	adds	r3, r7, #4
 800476a:	1c22      	adds	r2, r4, #0
 800476c:	801a      	strh	r2, [r3, #0]
 800476e:	1cbb      	adds	r3, r7, #2
 8004770:	1c02      	adds	r2, r0, #0
 8004772:	801a      	strh	r2, [r3, #0]
 8004774:	003b      	movs	r3, r7
 8004776:	1c0a      	adds	r2, r1, #0
 8004778:	801a      	strh	r2, [r3, #0]
 800477a:	1dbb      	adds	r3, r7, #6
 800477c:	881b      	ldrh	r3, [r3, #0]
 800477e:	2b7f      	cmp	r3, #127	@ 0x7f
 8004780:	d902      	bls.n	8004788 <SSD1306_DrawLine+0x34>
 8004782:	1dbb      	adds	r3, r7, #6
 8004784:	227f      	movs	r2, #127	@ 0x7f
 8004786:	801a      	strh	r2, [r3, #0]
 8004788:	1cbb      	adds	r3, r7, #2
 800478a:	881b      	ldrh	r3, [r3, #0]
 800478c:	2b7f      	cmp	r3, #127	@ 0x7f
 800478e:	d902      	bls.n	8004796 <SSD1306_DrawLine+0x42>
 8004790:	1cbb      	adds	r3, r7, #2
 8004792:	227f      	movs	r2, #127	@ 0x7f
 8004794:	801a      	strh	r2, [r3, #0]
 8004796:	1d3b      	adds	r3, r7, #4
 8004798:	881b      	ldrh	r3, [r3, #0]
 800479a:	2b3f      	cmp	r3, #63	@ 0x3f
 800479c:	d902      	bls.n	80047a4 <SSD1306_DrawLine+0x50>
 800479e:	1d3b      	adds	r3, r7, #4
 80047a0:	223f      	movs	r2, #63	@ 0x3f
 80047a2:	801a      	strh	r2, [r3, #0]
 80047a4:	003b      	movs	r3, r7
 80047a6:	881b      	ldrh	r3, [r3, #0]
 80047a8:	2b3f      	cmp	r3, #63	@ 0x3f
 80047aa:	d902      	bls.n	80047b2 <SSD1306_DrawLine+0x5e>
 80047ac:	003b      	movs	r3, r7
 80047ae:	223f      	movs	r2, #63	@ 0x3f
 80047b0:	801a      	strh	r2, [r3, #0]
 80047b2:	1dba      	adds	r2, r7, #6
 80047b4:	1cbb      	adds	r3, r7, #2
 80047b6:	8812      	ldrh	r2, [r2, #0]
 80047b8:	881b      	ldrh	r3, [r3, #0]
 80047ba:	429a      	cmp	r2, r3
 80047bc:	d207      	bcs.n	80047ce <SSD1306_DrawLine+0x7a>
 80047be:	1cba      	adds	r2, r7, #2
 80047c0:	1dbb      	adds	r3, r7, #6
 80047c2:	8812      	ldrh	r2, [r2, #0]
 80047c4:	881b      	ldrh	r3, [r3, #0]
 80047c6:	1ad3      	subs	r3, r2, r3
 80047c8:	b29b      	uxth	r3, r3
 80047ca:	b21b      	sxth	r3, r3
 80047cc:	e006      	b.n	80047dc <SSD1306_DrawLine+0x88>
 80047ce:	1dba      	adds	r2, r7, #6
 80047d0:	1cbb      	adds	r3, r7, #2
 80047d2:	8812      	ldrh	r2, [r2, #0]
 80047d4:	881b      	ldrh	r3, [r3, #0]
 80047d6:	1ad3      	subs	r3, r2, r3
 80047d8:	b29b      	uxth	r3, r3
 80047da:	b21b      	sxth	r3, r3
 80047dc:	2212      	movs	r2, #18
 80047de:	18ba      	adds	r2, r7, r2
 80047e0:	8013      	strh	r3, [r2, #0]
 80047e2:	1d3a      	adds	r2, r7, #4
 80047e4:	003b      	movs	r3, r7
 80047e6:	8812      	ldrh	r2, [r2, #0]
 80047e8:	881b      	ldrh	r3, [r3, #0]
 80047ea:	429a      	cmp	r2, r3
 80047ec:	d207      	bcs.n	80047fe <SSD1306_DrawLine+0xaa>
 80047ee:	003a      	movs	r2, r7
 80047f0:	1d3b      	adds	r3, r7, #4
 80047f2:	8812      	ldrh	r2, [r2, #0]
 80047f4:	881b      	ldrh	r3, [r3, #0]
 80047f6:	1ad3      	subs	r3, r2, r3
 80047f8:	b29b      	uxth	r3, r3
 80047fa:	b21b      	sxth	r3, r3
 80047fc:	e006      	b.n	800480c <SSD1306_DrawLine+0xb8>
 80047fe:	1d3a      	adds	r2, r7, #4
 8004800:	003b      	movs	r3, r7
 8004802:	8812      	ldrh	r2, [r2, #0]
 8004804:	881b      	ldrh	r3, [r3, #0]
 8004806:	1ad3      	subs	r3, r2, r3
 8004808:	b29b      	uxth	r3, r3
 800480a:	b21b      	sxth	r3, r3
 800480c:	2210      	movs	r2, #16
 800480e:	18ba      	adds	r2, r7, r2
 8004810:	8013      	strh	r3, [r2, #0]
 8004812:	1dba      	adds	r2, r7, #6
 8004814:	1cbb      	adds	r3, r7, #2
 8004816:	8812      	ldrh	r2, [r2, #0]
 8004818:	881b      	ldrh	r3, [r3, #0]
 800481a:	429a      	cmp	r2, r3
 800481c:	d201      	bcs.n	8004822 <SSD1306_DrawLine+0xce>
 800481e:	2201      	movs	r2, #1
 8004820:	e001      	b.n	8004826 <SSD1306_DrawLine+0xd2>
 8004822:	2301      	movs	r3, #1
 8004824:	425a      	negs	r2, r3
 8004826:	230e      	movs	r3, #14
 8004828:	18fb      	adds	r3, r7, r3
 800482a:	801a      	strh	r2, [r3, #0]
 800482c:	1d3a      	adds	r2, r7, #4
 800482e:	003b      	movs	r3, r7
 8004830:	8812      	ldrh	r2, [r2, #0]
 8004832:	881b      	ldrh	r3, [r3, #0]
 8004834:	429a      	cmp	r2, r3
 8004836:	d201      	bcs.n	800483c <SSD1306_DrawLine+0xe8>
 8004838:	2201      	movs	r2, #1
 800483a:	e001      	b.n	8004840 <SSD1306_DrawLine+0xec>
 800483c:	2301      	movs	r3, #1
 800483e:	425a      	negs	r2, r3
 8004840:	230c      	movs	r3, #12
 8004842:	18fb      	adds	r3, r7, r3
 8004844:	801a      	strh	r2, [r3, #0]
 8004846:	2112      	movs	r1, #18
 8004848:	187a      	adds	r2, r7, r1
 800484a:	2310      	movs	r3, #16
 800484c:	18fb      	adds	r3, r7, r3
 800484e:	2000      	movs	r0, #0
 8004850:	5e12      	ldrsh	r2, [r2, r0]
 8004852:	2000      	movs	r0, #0
 8004854:	5e1b      	ldrsh	r3, [r3, r0]
 8004856:	429a      	cmp	r2, r3
 8004858:	dd08      	ble.n	800486c <SSD1306_DrawLine+0x118>
 800485a:	187b      	adds	r3, r7, r1
 800485c:	2200      	movs	r2, #0
 800485e:	5e9b      	ldrsh	r3, [r3, r2]
 8004860:	2b00      	cmp	r3, #0
 8004862:	da00      	bge.n	8004866 <SSD1306_DrawLine+0x112>
 8004864:	3301      	adds	r3, #1
 8004866:	105b      	asrs	r3, r3, #1
 8004868:	b21b      	sxth	r3, r3
 800486a:	e009      	b.n	8004880 <SSD1306_DrawLine+0x12c>
 800486c:	2310      	movs	r3, #16
 800486e:	18fb      	adds	r3, r7, r3
 8004870:	2200      	movs	r2, #0
 8004872:	5e9b      	ldrsh	r3, [r3, r2]
 8004874:	2b00      	cmp	r3, #0
 8004876:	da00      	bge.n	800487a <SSD1306_DrawLine+0x126>
 8004878:	3301      	adds	r3, #1
 800487a:	105b      	asrs	r3, r3, #1
 800487c:	425b      	negs	r3, r3
 800487e:	b21b      	sxth	r3, r3
 8004880:	2216      	movs	r2, #22
 8004882:	18ba      	adds	r2, r7, r2
 8004884:	8013      	strh	r3, [r2, #0]
 8004886:	2312      	movs	r3, #18
 8004888:	18fb      	adds	r3, r7, r3
 800488a:	2200      	movs	r2, #0
 800488c:	5e9b      	ldrsh	r3, [r3, r2]
 800488e:	2b00      	cmp	r3, #0
 8004890:	d148      	bne.n	8004924 <SSD1306_DrawLine+0x1d0>
 8004892:	003a      	movs	r2, r7
 8004894:	1d3b      	adds	r3, r7, #4
 8004896:	8812      	ldrh	r2, [r2, #0]
 8004898:	881b      	ldrh	r3, [r3, #0]
 800489a:	429a      	cmp	r2, r3
 800489c:	d20c      	bcs.n	80048b8 <SSD1306_DrawLine+0x164>
 800489e:	2108      	movs	r1, #8
 80048a0:	187b      	adds	r3, r7, r1
 80048a2:	003a      	movs	r2, r7
 80048a4:	8812      	ldrh	r2, [r2, #0]
 80048a6:	801a      	strh	r2, [r3, #0]
 80048a8:	003b      	movs	r3, r7
 80048aa:	1d3a      	adds	r2, r7, #4
 80048ac:	8812      	ldrh	r2, [r2, #0]
 80048ae:	801a      	strh	r2, [r3, #0]
 80048b0:	1d3b      	adds	r3, r7, #4
 80048b2:	187a      	adds	r2, r7, r1
 80048b4:	8812      	ldrh	r2, [r2, #0]
 80048b6:	801a      	strh	r2, [r3, #0]
 80048b8:	1cba      	adds	r2, r7, #2
 80048ba:	1dbb      	adds	r3, r7, #6
 80048bc:	8812      	ldrh	r2, [r2, #0]
 80048be:	881b      	ldrh	r3, [r3, #0]
 80048c0:	429a      	cmp	r2, r3
 80048c2:	d20c      	bcs.n	80048de <SSD1306_DrawLine+0x18a>
 80048c4:	2108      	movs	r1, #8
 80048c6:	187b      	adds	r3, r7, r1
 80048c8:	1cba      	adds	r2, r7, #2
 80048ca:	8812      	ldrh	r2, [r2, #0]
 80048cc:	801a      	strh	r2, [r3, #0]
 80048ce:	1cbb      	adds	r3, r7, #2
 80048d0:	1dba      	adds	r2, r7, #6
 80048d2:	8812      	ldrh	r2, [r2, #0]
 80048d4:	801a      	strh	r2, [r3, #0]
 80048d6:	1dbb      	adds	r3, r7, #6
 80048d8:	187a      	adds	r2, r7, r1
 80048da:	8812      	ldrh	r2, [r2, #0]
 80048dc:	801a      	strh	r2, [r3, #0]
 80048de:	2314      	movs	r3, #20
 80048e0:	18fb      	adds	r3, r7, r3
 80048e2:	1d3a      	adds	r2, r7, #4
 80048e4:	8812      	ldrh	r2, [r2, #0]
 80048e6:	801a      	strh	r2, [r3, #0]
 80048e8:	e013      	b.n	8004912 <SSD1306_DrawLine+0x1be>
 80048ea:	2414      	movs	r4, #20
 80048ec:	193b      	adds	r3, r7, r4
 80048ee:	8819      	ldrh	r1, [r3, #0]
 80048f0:	2328      	movs	r3, #40	@ 0x28
 80048f2:	18fb      	adds	r3, r7, r3
 80048f4:	781a      	ldrb	r2, [r3, #0]
 80048f6:	1dbb      	adds	r3, r7, #6
 80048f8:	881b      	ldrh	r3, [r3, #0]
 80048fa:	0018      	movs	r0, r3
 80048fc:	f7ff fdfc 	bl	80044f8 <SSD1306_DrawPixel>
 8004900:	0021      	movs	r1, r4
 8004902:	187b      	adds	r3, r7, r1
 8004904:	2200      	movs	r2, #0
 8004906:	5e9b      	ldrsh	r3, [r3, r2]
 8004908:	b29b      	uxth	r3, r3
 800490a:	3301      	adds	r3, #1
 800490c:	b29a      	uxth	r2, r3
 800490e:	187b      	adds	r3, r7, r1
 8004910:	801a      	strh	r2, [r3, #0]
 8004912:	2314      	movs	r3, #20
 8004914:	18fb      	adds	r3, r7, r3
 8004916:	2200      	movs	r2, #0
 8004918:	5e9a      	ldrsh	r2, [r3, r2]
 800491a:	003b      	movs	r3, r7
 800491c:	881b      	ldrh	r3, [r3, #0]
 800491e:	429a      	cmp	r2, r3
 8004920:	dde3      	ble.n	80048ea <SSD1306_DrawLine+0x196>
 8004922:	e0a3      	b.n	8004a6c <SSD1306_DrawLine+0x318>
 8004924:	2310      	movs	r3, #16
 8004926:	18fb      	adds	r3, r7, r3
 8004928:	2200      	movs	r2, #0
 800492a:	5e9b      	ldrsh	r3, [r3, r2]
 800492c:	2b00      	cmp	r3, #0
 800492e:	d148      	bne.n	80049c2 <SSD1306_DrawLine+0x26e>
 8004930:	003a      	movs	r2, r7
 8004932:	1d3b      	adds	r3, r7, #4
 8004934:	8812      	ldrh	r2, [r2, #0]
 8004936:	881b      	ldrh	r3, [r3, #0]
 8004938:	429a      	cmp	r2, r3
 800493a:	d20c      	bcs.n	8004956 <SSD1306_DrawLine+0x202>
 800493c:	2108      	movs	r1, #8
 800493e:	187b      	adds	r3, r7, r1
 8004940:	003a      	movs	r2, r7
 8004942:	8812      	ldrh	r2, [r2, #0]
 8004944:	801a      	strh	r2, [r3, #0]
 8004946:	003b      	movs	r3, r7
 8004948:	1d3a      	adds	r2, r7, #4
 800494a:	8812      	ldrh	r2, [r2, #0]
 800494c:	801a      	strh	r2, [r3, #0]
 800494e:	1d3b      	adds	r3, r7, #4
 8004950:	187a      	adds	r2, r7, r1
 8004952:	8812      	ldrh	r2, [r2, #0]
 8004954:	801a      	strh	r2, [r3, #0]
 8004956:	1cba      	adds	r2, r7, #2
 8004958:	1dbb      	adds	r3, r7, #6
 800495a:	8812      	ldrh	r2, [r2, #0]
 800495c:	881b      	ldrh	r3, [r3, #0]
 800495e:	429a      	cmp	r2, r3
 8004960:	d20c      	bcs.n	800497c <SSD1306_DrawLine+0x228>
 8004962:	2108      	movs	r1, #8
 8004964:	187b      	adds	r3, r7, r1
 8004966:	1cba      	adds	r2, r7, #2
 8004968:	8812      	ldrh	r2, [r2, #0]
 800496a:	801a      	strh	r2, [r3, #0]
 800496c:	1cbb      	adds	r3, r7, #2
 800496e:	1dba      	adds	r2, r7, #6
 8004970:	8812      	ldrh	r2, [r2, #0]
 8004972:	801a      	strh	r2, [r3, #0]
 8004974:	1dbb      	adds	r3, r7, #6
 8004976:	187a      	adds	r2, r7, r1
 8004978:	8812      	ldrh	r2, [r2, #0]
 800497a:	801a      	strh	r2, [r3, #0]
 800497c:	2314      	movs	r3, #20
 800497e:	18fb      	adds	r3, r7, r3
 8004980:	1dba      	adds	r2, r7, #6
 8004982:	8812      	ldrh	r2, [r2, #0]
 8004984:	801a      	strh	r2, [r3, #0]
 8004986:	e013      	b.n	80049b0 <SSD1306_DrawLine+0x25c>
 8004988:	2414      	movs	r4, #20
 800498a:	193b      	adds	r3, r7, r4
 800498c:	8818      	ldrh	r0, [r3, #0]
 800498e:	2328      	movs	r3, #40	@ 0x28
 8004990:	18fb      	adds	r3, r7, r3
 8004992:	781a      	ldrb	r2, [r3, #0]
 8004994:	1d3b      	adds	r3, r7, #4
 8004996:	881b      	ldrh	r3, [r3, #0]
 8004998:	0019      	movs	r1, r3
 800499a:	f7ff fdad 	bl	80044f8 <SSD1306_DrawPixel>
 800499e:	0021      	movs	r1, r4
 80049a0:	187b      	adds	r3, r7, r1
 80049a2:	2200      	movs	r2, #0
 80049a4:	5e9b      	ldrsh	r3, [r3, r2]
 80049a6:	b29b      	uxth	r3, r3
 80049a8:	3301      	adds	r3, #1
 80049aa:	b29a      	uxth	r2, r3
 80049ac:	187b      	adds	r3, r7, r1
 80049ae:	801a      	strh	r2, [r3, #0]
 80049b0:	2314      	movs	r3, #20
 80049b2:	18fb      	adds	r3, r7, r3
 80049b4:	2200      	movs	r2, #0
 80049b6:	5e9a      	ldrsh	r2, [r3, r2]
 80049b8:	1cbb      	adds	r3, r7, #2
 80049ba:	881b      	ldrh	r3, [r3, #0]
 80049bc:	429a      	cmp	r2, r3
 80049be:	dde3      	ble.n	8004988 <SSD1306_DrawLine+0x234>
 80049c0:	e054      	b.n	8004a6c <SSD1306_DrawLine+0x318>
 80049c2:	2328      	movs	r3, #40	@ 0x28
 80049c4:	18fb      	adds	r3, r7, r3
 80049c6:	781a      	ldrb	r2, [r3, #0]
 80049c8:	1d3b      	adds	r3, r7, #4
 80049ca:	8819      	ldrh	r1, [r3, #0]
 80049cc:	1dbb      	adds	r3, r7, #6
 80049ce:	881b      	ldrh	r3, [r3, #0]
 80049d0:	0018      	movs	r0, r3
 80049d2:	f7ff fd91 	bl	80044f8 <SSD1306_DrawPixel>
 80049d6:	1dba      	adds	r2, r7, #6
 80049d8:	1cbb      	adds	r3, r7, #2
 80049da:	8812      	ldrh	r2, [r2, #0]
 80049dc:	881b      	ldrh	r3, [r3, #0]
 80049de:	429a      	cmp	r2, r3
 80049e0:	d105      	bne.n	80049ee <SSD1306_DrawLine+0x29a>
 80049e2:	1d3a      	adds	r2, r7, #4
 80049e4:	003b      	movs	r3, r7
 80049e6:	8812      	ldrh	r2, [r2, #0]
 80049e8:	881b      	ldrh	r3, [r3, #0]
 80049ea:	429a      	cmp	r2, r3
 80049ec:	d03d      	beq.n	8004a6a <SSD1306_DrawLine+0x316>
 80049ee:	200a      	movs	r0, #10
 80049f0:	183b      	adds	r3, r7, r0
 80049f2:	2116      	movs	r1, #22
 80049f4:	187a      	adds	r2, r7, r1
 80049f6:	8812      	ldrh	r2, [r2, #0]
 80049f8:	801a      	strh	r2, [r3, #0]
 80049fa:	183b      	adds	r3, r7, r0
 80049fc:	2200      	movs	r2, #0
 80049fe:	5e9a      	ldrsh	r2, [r3, r2]
 8004a00:	2312      	movs	r3, #18
 8004a02:	18fb      	adds	r3, r7, r3
 8004a04:	2000      	movs	r0, #0
 8004a06:	5e1b      	ldrsh	r3, [r3, r0]
 8004a08:	425b      	negs	r3, r3
 8004a0a:	429a      	cmp	r2, r3
 8004a0c:	dd10      	ble.n	8004a30 <SSD1306_DrawLine+0x2dc>
 8004a0e:	187b      	adds	r3, r7, r1
 8004a10:	881a      	ldrh	r2, [r3, #0]
 8004a12:	2310      	movs	r3, #16
 8004a14:	18fb      	adds	r3, r7, r3
 8004a16:	881b      	ldrh	r3, [r3, #0]
 8004a18:	1ad3      	subs	r3, r2, r3
 8004a1a:	b29a      	uxth	r2, r3
 8004a1c:	187b      	adds	r3, r7, r1
 8004a1e:	801a      	strh	r2, [r3, #0]
 8004a20:	230e      	movs	r3, #14
 8004a22:	18fb      	adds	r3, r7, r3
 8004a24:	8819      	ldrh	r1, [r3, #0]
 8004a26:	1dbb      	adds	r3, r7, #6
 8004a28:	1dba      	adds	r2, r7, #6
 8004a2a:	8812      	ldrh	r2, [r2, #0]
 8004a2c:	188a      	adds	r2, r1, r2
 8004a2e:	801a      	strh	r2, [r3, #0]
 8004a30:	230a      	movs	r3, #10
 8004a32:	18fa      	adds	r2, r7, r3
 8004a34:	2310      	movs	r3, #16
 8004a36:	18fb      	adds	r3, r7, r3
 8004a38:	2100      	movs	r1, #0
 8004a3a:	5e52      	ldrsh	r2, [r2, r1]
 8004a3c:	2100      	movs	r1, #0
 8004a3e:	5e5b      	ldrsh	r3, [r3, r1]
 8004a40:	429a      	cmp	r2, r3
 8004a42:	dabe      	bge.n	80049c2 <SSD1306_DrawLine+0x26e>
 8004a44:	2116      	movs	r1, #22
 8004a46:	187b      	adds	r3, r7, r1
 8004a48:	881a      	ldrh	r2, [r3, #0]
 8004a4a:	2312      	movs	r3, #18
 8004a4c:	18fb      	adds	r3, r7, r3
 8004a4e:	881b      	ldrh	r3, [r3, #0]
 8004a50:	18d3      	adds	r3, r2, r3
 8004a52:	b29a      	uxth	r2, r3
 8004a54:	187b      	adds	r3, r7, r1
 8004a56:	801a      	strh	r2, [r3, #0]
 8004a58:	230c      	movs	r3, #12
 8004a5a:	18fb      	adds	r3, r7, r3
 8004a5c:	8819      	ldrh	r1, [r3, #0]
 8004a5e:	1d3b      	adds	r3, r7, #4
 8004a60:	1d3a      	adds	r2, r7, #4
 8004a62:	8812      	ldrh	r2, [r2, #0]
 8004a64:	188a      	adds	r2, r1, r2
 8004a66:	801a      	strh	r2, [r3, #0]
 8004a68:	e7ab      	b.n	80049c2 <SSD1306_DrawLine+0x26e>
 8004a6a:	46c0      	nop			@ (mov r8, r8)
 8004a6c:	46bd      	mov	sp, r7
 8004a6e:	b006      	add	sp, #24
 8004a70:	bdb0      	pop	{r4, r5, r7, pc}

08004a72 <SSD1306_Clear>:
 8004a72:	b580      	push	{r7, lr}
 8004a74:	af00      	add	r7, sp, #0
 8004a76:	2000      	movs	r0, #0
 8004a78:	f7ff fd24 	bl	80044c4 <SSD1306_Fill>
 8004a7c:	f7ff fcee 	bl	800445c <SSD1306_UpdateScreen>
 8004a80:	46c0      	nop			@ (mov r8, r8)
 8004a82:	46bd      	mov	sp, r7
 8004a84:	bd80      	pop	{r7, pc}
	...

08004a88 <ssd1306_I2C_Init>:
 8004a88:	b580      	push	{r7, lr}
 8004a8a:	b082      	sub	sp, #8
 8004a8c:	af00      	add	r7, sp, #0
 8004a8e:	4b07      	ldr	r3, [pc, #28]	@ (8004aac <ssd1306_I2C_Init+0x24>)
 8004a90:	607b      	str	r3, [r7, #4]
 8004a92:	e002      	b.n	8004a9a <ssd1306_I2C_Init+0x12>
 8004a94:	687b      	ldr	r3, [r7, #4]
 8004a96:	3b01      	subs	r3, #1
 8004a98:	607b      	str	r3, [r7, #4]
 8004a9a:	687b      	ldr	r3, [r7, #4]
 8004a9c:	2b00      	cmp	r3, #0
 8004a9e:	d1f9      	bne.n	8004a94 <ssd1306_I2C_Init+0xc>
 8004aa0:	46c0      	nop			@ (mov r8, r8)
 8004aa2:	46c0      	nop			@ (mov r8, r8)
 8004aa4:	46bd      	mov	sp, r7
 8004aa6:	b002      	add	sp, #8
 8004aa8:	bd80      	pop	{r7, pc}
 8004aaa:	46c0      	nop			@ (mov r8, r8)
 8004aac:	0003d090 	.word	0x0003d090

08004ab0 <ssd1306_I2C_WriteMulti>:
 8004ab0:	b5b0      	push	{r4, r5, r7, lr}
 8004ab2:	b0c6      	sub	sp, #280	@ 0x118
 8004ab4:	af02      	add	r7, sp, #8
 8004ab6:	0004      	movs	r4, r0
 8004ab8:	0008      	movs	r0, r1
 8004aba:	603a      	str	r2, [r7, #0]
 8004abc:	0019      	movs	r1, r3
 8004abe:	4b2d      	ldr	r3, [pc, #180]	@ (8004b74 <ssd1306_I2C_WriteMulti+0xc4>)
 8004ac0:	2588      	movs	r5, #136	@ 0x88
 8004ac2:	006d      	lsls	r5, r5, #1
 8004ac4:	195b      	adds	r3, r3, r5
 8004ac6:	19db      	adds	r3, r3, r7
 8004ac8:	1c22      	adds	r2, r4, #0
 8004aca:	701a      	strb	r2, [r3, #0]
 8004acc:	4b2a      	ldr	r3, [pc, #168]	@ (8004b78 <ssd1306_I2C_WriteMulti+0xc8>)
 8004ace:	002c      	movs	r4, r5
 8004ad0:	191b      	adds	r3, r3, r4
 8004ad2:	19db      	adds	r3, r3, r7
 8004ad4:	1c02      	adds	r2, r0, #0
 8004ad6:	701a      	strb	r2, [r3, #0]
 8004ad8:	4b28      	ldr	r3, [pc, #160]	@ (8004b7c <ssd1306_I2C_WriteMulti+0xcc>)
 8004ada:	0020      	movs	r0, r4
 8004adc:	181b      	adds	r3, r3, r0
 8004ade:	19db      	adds	r3, r3, r7
 8004ae0:	1c0a      	adds	r2, r1, #0
 8004ae2:	801a      	strh	r2, [r3, #0]
 8004ae4:	4b26      	ldr	r3, [pc, #152]	@ (8004b80 <ssd1306_I2C_WriteMulti+0xd0>)
 8004ae6:	181b      	adds	r3, r3, r0
 8004ae8:	19db      	adds	r3, r3, r7
 8004aea:	4a23      	ldr	r2, [pc, #140]	@ (8004b78 <ssd1306_I2C_WriteMulti+0xc8>)
 8004aec:	1812      	adds	r2, r2, r0
 8004aee:	19d2      	adds	r2, r2, r7
 8004af0:	7812      	ldrb	r2, [r2, #0]
 8004af2:	701a      	strb	r2, [r3, #0]
 8004af4:	2310      	movs	r3, #16
 8004af6:	33ff      	adds	r3, #255	@ 0xff
 8004af8:	18fb      	adds	r3, r7, r3
 8004afa:	2200      	movs	r2, #0
 8004afc:	701a      	strb	r2, [r3, #0]
 8004afe:	e014      	b.n	8004b2a <ssd1306_I2C_WriteMulti+0x7a>
 8004b00:	2010      	movs	r0, #16
 8004b02:	30ff      	adds	r0, #255	@ 0xff
 8004b04:	183b      	adds	r3, r7, r0
 8004b06:	781b      	ldrb	r3, [r3, #0]
 8004b08:	683a      	ldr	r2, [r7, #0]
 8004b0a:	18d2      	adds	r2, r2, r3
 8004b0c:	183b      	adds	r3, r7, r0
 8004b0e:	781b      	ldrb	r3, [r3, #0]
 8004b10:	3301      	adds	r3, #1
 8004b12:	7811      	ldrb	r1, [r2, #0]
 8004b14:	4a1a      	ldr	r2, [pc, #104]	@ (8004b80 <ssd1306_I2C_WriteMulti+0xd0>)
 8004b16:	2488      	movs	r4, #136	@ 0x88
 8004b18:	0064      	lsls	r4, r4, #1
 8004b1a:	1912      	adds	r2, r2, r4
 8004b1c:	19d2      	adds	r2, r2, r7
 8004b1e:	54d1      	strb	r1, [r2, r3]
 8004b20:	183b      	adds	r3, r7, r0
 8004b22:	781a      	ldrb	r2, [r3, #0]
 8004b24:	183b      	adds	r3, r7, r0
 8004b26:	3201      	adds	r2, #1
 8004b28:	701a      	strb	r2, [r3, #0]
 8004b2a:	2310      	movs	r3, #16
 8004b2c:	33ff      	adds	r3, #255	@ 0xff
 8004b2e:	18fb      	adds	r3, r7, r3
 8004b30:	781b      	ldrb	r3, [r3, #0]
 8004b32:	b29b      	uxth	r3, r3
 8004b34:	4a11      	ldr	r2, [pc, #68]	@ (8004b7c <ssd1306_I2C_WriteMulti+0xcc>)
 8004b36:	2188      	movs	r1, #136	@ 0x88
 8004b38:	0049      	lsls	r1, r1, #1
 8004b3a:	1852      	adds	r2, r2, r1
 8004b3c:	19d2      	adds	r2, r2, r7
 8004b3e:	8812      	ldrh	r2, [r2, #0]
 8004b40:	429a      	cmp	r2, r3
 8004b42:	d8dd      	bhi.n	8004b00 <ssd1306_I2C_WriteMulti+0x50>
 8004b44:	4b0b      	ldr	r3, [pc, #44]	@ (8004b74 <ssd1306_I2C_WriteMulti+0xc4>)
 8004b46:	000a      	movs	r2, r1
 8004b48:	189b      	adds	r3, r3, r2
 8004b4a:	19db      	adds	r3, r3, r7
 8004b4c:	781b      	ldrb	r3, [r3, #0]
 8004b4e:	b299      	uxth	r1, r3
 8004b50:	4b0a      	ldr	r3, [pc, #40]	@ (8004b7c <ssd1306_I2C_WriteMulti+0xcc>)
 8004b52:	189b      	adds	r3, r3, r2
 8004b54:	19db      	adds	r3, r3, r7
 8004b56:	881b      	ldrh	r3, [r3, #0]
 8004b58:	3301      	adds	r3, #1
 8004b5a:	b29b      	uxth	r3, r3
 8004b5c:	220c      	movs	r2, #12
 8004b5e:	18ba      	adds	r2, r7, r2
 8004b60:	4808      	ldr	r0, [pc, #32]	@ (8004b84 <ssd1306_I2C_WriteMulti+0xd4>)
 8004b62:	240a      	movs	r4, #10
 8004b64:	9400      	str	r4, [sp, #0]
 8004b66:	f000 fd01 	bl	800556c <HAL_I2C_Master_Transmit>
 8004b6a:	46c0      	nop			@ (mov r8, r8)
 8004b6c:	46bd      	mov	sp, r7
 8004b6e:	b044      	add	sp, #272	@ 0x110
 8004b70:	bdb0      	pop	{r4, r5, r7, pc}
 8004b72:	46c0      	nop			@ (mov r8, r8)
 8004b74:	fffffef7 	.word	0xfffffef7
 8004b78:	fffffef6 	.word	0xfffffef6
 8004b7c:	fffffef4 	.word	0xfffffef4
 8004b80:	fffffefc 	.word	0xfffffefc
 8004b84:	20000094 	.word	0x20000094

08004b88 <ssd1306_I2C_Write>:
 8004b88:	b590      	push	{r4, r7, lr}
 8004b8a:	b087      	sub	sp, #28
 8004b8c:	af02      	add	r7, sp, #8
 8004b8e:	0004      	movs	r4, r0
 8004b90:	0008      	movs	r0, r1
 8004b92:	0011      	movs	r1, r2
 8004b94:	1dfb      	adds	r3, r7, #7
 8004b96:	1c22      	adds	r2, r4, #0
 8004b98:	701a      	strb	r2, [r3, #0]
 8004b9a:	1dbb      	adds	r3, r7, #6
 8004b9c:	1c02      	adds	r2, r0, #0
 8004b9e:	701a      	strb	r2, [r3, #0]
 8004ba0:	1d7b      	adds	r3, r7, #5
 8004ba2:	1c0a      	adds	r2, r1, #0
 8004ba4:	701a      	strb	r2, [r3, #0]
 8004ba6:	200c      	movs	r0, #12
 8004ba8:	183b      	adds	r3, r7, r0
 8004baa:	1dba      	adds	r2, r7, #6
 8004bac:	7812      	ldrb	r2, [r2, #0]
 8004bae:	701a      	strb	r2, [r3, #0]
 8004bb0:	183b      	adds	r3, r7, r0
 8004bb2:	1d7a      	adds	r2, r7, #5
 8004bb4:	7812      	ldrb	r2, [r2, #0]
 8004bb6:	705a      	strb	r2, [r3, #1]
 8004bb8:	1dfb      	adds	r3, r7, #7
 8004bba:	781b      	ldrb	r3, [r3, #0]
 8004bbc:	b299      	uxth	r1, r3
 8004bbe:	183a      	adds	r2, r7, r0
 8004bc0:	4804      	ldr	r0, [pc, #16]	@ (8004bd4 <ssd1306_I2C_Write+0x4c>)
 8004bc2:	230a      	movs	r3, #10
 8004bc4:	9300      	str	r3, [sp, #0]
 8004bc6:	2302      	movs	r3, #2
 8004bc8:	f000 fcd0 	bl	800556c <HAL_I2C_Master_Transmit>
 8004bcc:	46c0      	nop			@ (mov r8, r8)
 8004bce:	46bd      	mov	sp, r7
 8004bd0:	b005      	add	sp, #20
 8004bd2:	bd90      	pop	{r4, r7, pc}
 8004bd4:	20000094 	.word	0x20000094

08004bd8 <HAL_MspInit>:
/* USER CODE END 0 */
/**
  * Initializes the Global MSP.
  */
void HAL_MspInit(void)
{
 8004bd8:	b580      	push	{r7, lr}
 8004bda:	b082      	sub	sp, #8
 8004bdc:	af00      	add	r7, sp, #0

  /* USER CODE BEGIN MspInit 0 */

  /* USER CODE END MspInit 0 */

  __HAL_RCC_SYSCFG_CLK_ENABLE();
 8004bde:	4b0f      	ldr	r3, [pc, #60]	@ (8004c1c <HAL_MspInit+0x44>)
 8004be0:	699a      	ldr	r2, [r3, #24]
 8004be2:	4b0e      	ldr	r3, [pc, #56]	@ (8004c1c <HAL_MspInit+0x44>)
 8004be4:	2101      	movs	r1, #1
 8004be6:	430a      	orrs	r2, r1
 8004be8:	619a      	str	r2, [r3, #24]
 8004bea:	4b0c      	ldr	r3, [pc, #48]	@ (8004c1c <HAL_MspInit+0x44>)
 8004bec:	699b      	ldr	r3, [r3, #24]
 8004bee:	2201      	movs	r2, #1
 8004bf0:	4013      	ands	r3, r2
 8004bf2:	607b      	str	r3, [r7, #4]
 8004bf4:	687b      	ldr	r3, [r7, #4]
  __HAL_RCC_PWR_CLK_ENABLE();
 8004bf6:	4b09      	ldr	r3, [pc, #36]	@ (8004c1c <HAL_MspInit+0x44>)
 8004bf8:	69da      	ldr	r2, [r3, #28]
 8004bfa:	4b08      	ldr	r3, [pc, #32]	@ (8004c1c <HAL_MspInit+0x44>)
 8004bfc:	2180      	movs	r1, #128	@ 0x80
 8004bfe:	0549      	lsls	r1, r1, #21
 8004c00:	430a      	orrs	r2, r1
 8004c02:	61da      	str	r2, [r3, #28]
 8004c04:	4b05      	ldr	r3, [pc, #20]	@ (8004c1c <HAL_MspInit+0x44>)
 8004c06:	69da      	ldr	r2, [r3, #28]
 8004c08:	2380      	movs	r3, #128	@ 0x80
 8004c0a:	055b      	lsls	r3, r3, #21
 8004c0c:	4013      	ands	r3, r2
 8004c0e:	603b      	str	r3, [r7, #0]
 8004c10:	683b      	ldr	r3, [r7, #0]
  /* System interrupt init*/

  /* USER CODE BEGIN MspInit 1 */

  /* USER CODE END MspInit 1 */
}
 8004c12:	46c0      	nop			@ (mov r8, r8)
 8004c14:	46bd      	mov	sp, r7
 8004c16:	b002      	add	sp, #8
 8004c18:	bd80      	pop	{r7, pc}
 8004c1a:	46c0      	nop			@ (mov r8, r8)
 8004c1c:	40021000 	.word	0x40021000

08004c20 <HAL_I2C_MspInit>:
* This function configures the hardware resources used in this example
* @param hi2c: I2C handle pointer
* @retval None
*/
void HAL_I2C_MspInit(I2C_HandleTypeDef* hi2c)
{
 8004c20:	b590      	push	{r4, r7, lr}
 8004c22:	b08b      	sub	sp, #44	@ 0x2c
 8004c24:	af00      	add	r7, sp, #0
 8004c26:	6078      	str	r0, [r7, #4]
  GPIO_InitTypeDef GPIO_InitStruct = {0};
 8004c28:	2414      	movs	r4, #20
 8004c2a:	193b      	adds	r3, r7, r4
 8004c2c:	0018      	movs	r0, r3
 8004c2e:	2314      	movs	r3, #20
 8004c30:	001a      	movs	r2, r3
 8004c32:	2100      	movs	r1, #0
 8004c34:	f002 fcae 	bl	8007594 <memset>
  if(hi2c->Instance==I2C1)
 8004c38:	687b      	ldr	r3, [r7, #4]
 8004c3a:	681b      	ldr	r3, [r3, #0]
 8004c3c:	4a1c      	ldr	r2, [pc, #112]	@ (8004cb0 <HAL_I2C_MspInit+0x90>)
 8004c3e:	4293      	cmp	r3, r2
 8004c40:	d131      	bne.n	8004ca6 <HAL_I2C_MspInit+0x86>
  {
  /* USER CODE BEGIN I2C1_MspInit 0 */

  /* USER CODE END I2C1_MspInit 0 */

    __HAL_RCC_GPIOB_CLK_ENABLE();
 8004c42:	4b1c      	ldr	r3, [pc, #112]	@ (8004cb4 <HAL_I2C_MspInit+0x94>)
 8004c44:	695a      	ldr	r2, [r3, #20]
 8004c46:	4b1b      	ldr	r3, [pc, #108]	@ (8004cb4 <HAL_I2C_MspInit+0x94>)
 8004c48:	2180      	movs	r1, #128	@ 0x80
 8004c4a:	02c9      	lsls	r1, r1, #11
 8004c4c:	430a      	orrs	r2, r1
 8004c4e:	615a      	str	r2, [r3, #20]
 8004c50:	4b18      	ldr	r3, [pc, #96]	@ (8004cb4 <HAL_I2C_MspInit+0x94>)
 8004c52:	695a      	ldr	r2, [r3, #20]
 8004c54:	2380      	movs	r3, #128	@ 0x80
 8004c56:	02db      	lsls	r3, r3, #11
 8004c58:	4013      	ands	r3, r2
 8004c5a:	613b      	str	r3, [r7, #16]
 8004c5c:	693b      	ldr	r3, [r7, #16]
    /**I2C1 GPIO Configuration
    PB6     ------> I2C1_SCL
    PB7     ------> I2C1_SDA
    */
    GPIO_InitStruct.Pin = GPIO_PIN_6|GPIO_PIN_7;
 8004c5e:	0021      	movs	r1, r4
 8004c60:	187b      	adds	r3, r7, r1
 8004c62:	22c0      	movs	r2, #192	@ 0xc0
 8004c64:	601a      	str	r2, [r3, #0]
    GPIO_InitStruct.Mode = GPIO_MODE_AF_OD;
 8004c66:	187b      	adds	r3, r7, r1
 8004c68:	2212      	movs	r2, #18
 8004c6a:	605a      	str	r2, [r3, #4]
    GPIO_InitStruct.Pull = GPIO_NOPULL;
 8004c6c:	187b      	adds	r3, r7, r1
 8004c6e:	2200      	movs	r2, #0
 8004c70:	609a      	str	r2, [r3, #8]
    GPIO_InitStruct.Speed = GPIO_SPEED_FREQ_HIGH;
 8004c72:	187b      	adds	r3, r7, r1
 8004c74:	2203      	movs	r2, #3
 8004c76:	60da      	str	r2, [r3, #12]
    GPIO_InitStruct.Alternate = GPIO_AF1_I2C1;
 8004c78:	187b      	adds	r3, r7, r1
 8004c7a:	2201      	movs	r2, #1
 8004c7c:	611a      	str	r2, [r3, #16]
    HAL_GPIO_Init(GPIOB, &GPIO_InitStruct);
 8004c7e:	187b      	adds	r3, r7, r1
 8004c80:	4a0d      	ldr	r2, [pc, #52]	@ (8004cb8 <HAL_I2C_MspInit+0x98>)
 8004c82:	0019      	movs	r1, r3
 8004c84:	0010      	movs	r0, r2
 8004c86:	f000 fa21 	bl	80050cc <HAL_GPIO_Init>

    /* Peripheral clock enable */
    __HAL_RCC_I2C1_CLK_ENABLE();
 8004c8a:	4b0a      	ldr	r3, [pc, #40]	@ (8004cb4 <HAL_I2C_MspInit+0x94>)
 8004c8c:	69da      	ldr	r2, [r3, #28]
 8004c8e:	4b09      	ldr	r3, [pc, #36]	@ (8004cb4 <HAL_I2C_MspInit+0x94>)
 8004c90:	2180      	movs	r1, #128	@ 0x80
 8004c92:	0389      	lsls	r1, r1, #14
 8004c94:	430a      	orrs	r2, r1
 8004c96:	61da      	str	r2, [r3, #28]
 8004c98:	4b06      	ldr	r3, [pc, #24]	@ (8004cb4 <HAL_I2C_MspInit+0x94>)
 8004c9a:	69da      	ldr	r2, [r3, #28]
 8004c9c:	2380      	movs	r3, #128	@ 0x80
 8004c9e:	039b      	lsls	r3, r3, #14
 8004ca0:	4013      	ands	r3, r2
 8004ca2:	60fb      	str	r3, [r7, #12]
 8004ca4:	68fb      	ldr	r3, [r7, #12]

  /* USER CODE END I2C1_MspInit 1 */

  }

}
 8004ca6:	46c0      	nop			@ (mov r8, r8)
 8004ca8:	46bd      	mov	sp, r7
 8004caa:	b00b      	add	sp, #44	@ 0x2c
 8004cac:	bd90      	pop	{r4, r7, pc}
 8004cae:	46c0      	nop			@ (mov r8, r8)
 8004cb0:	40005400 	.word	0x40005400
 8004cb4:	40021000 	.word	0x40021000
 8004cb8:	48000400 	.word	0x48000400

08004cbc <HAL_UART_MspInit>:
* This function configures the hardware resources used in this example
* @param huart: UART handle pointer
* @retval None
*/
void HAL_UART_MspInit(UART_HandleTypeDef* huart)
{
 8004cbc:	b590      	push	{r4, r7, lr}
 8004cbe:	b08b      	sub	sp, #44	@ 0x2c
 8004cc0:	af00      	add	r7, sp, #0
 8004cc2:	6078      	str	r0, [r7, #4]
  GPIO_InitTypeDef GPIO_InitStruct = {0};
 8004cc4:	2414      	movs	r4, #20
 8004cc6:	193b      	adds	r3, r7, r4
 8004cc8:	0018      	movs	r0, r3
 8004cca:	2314      	movs	r3, #20
 8004ccc:	001a      	movs	r2, r3
 8004cce:	2100      	movs	r1, #0
 8004cd0:	f002 fc60 	bl	8007594 <memset>
  if(huart->Instance==USART2)
 8004cd4:	687b      	ldr	r3, [r7, #4]
 8004cd6:	681b      	ldr	r3, [r3, #0]
 8004cd8:	4a1c      	ldr	r2, [pc, #112]	@ (8004d4c <HAL_UART_MspInit+0x90>)
 8004cda:	4293      	cmp	r3, r2
 8004cdc:	d132      	bne.n	8004d44 <HAL_UART_MspInit+0x88>
  {
  /* USER CODE BEGIN USART2_MspInit 0 */

  /* USER CODE END USART2_MspInit 0 */
    /* Peripheral clock enable */
    __HAL_RCC_USART2_CLK_ENABLE();
 8004cde:	4b1c      	ldr	r3, [pc, #112]	@ (8004d50 <HAL_UART_MspInit+0x94>)
 8004ce0:	69da      	ldr	r2, [r3, #28]
 8004ce2:	4b1b      	ldr	r3, [pc, #108]	@ (8004d50 <HAL_UART_MspInit+0x94>)
 8004ce4:	2180      	movs	r1, #128	@ 0x80
 8004ce6:	0289      	lsls	r1, r1, #10
 8004ce8:	430a      	orrs	r2, r1
 8004cea:	61da      	str	r2, [r3, #28]
 8004cec:	4b18      	ldr	r3, [pc, #96]	@ (8004d50 <HAL_UART_MspInit+0x94>)
 8004cee:	69da      	ldr	r2, [r3, #28]
 8004cf0:	2380      	movs	r3, #128	@ 0x80
 8004cf2:	029b      	lsls	r3, r3, #10
 8004cf4:	4013      	ands	r3, r2
 8004cf6:	613b      	str	r3, [r7, #16]
 8004cf8:	693b      	ldr	r3, [r7, #16]

    __HAL_RCC_GPIOA_CLK_ENABLE();
 8004cfa:	4b15      	ldr	r3, [pc, #84]	@ (8004d50 <HAL_UART_MspInit+0x94>)
 8004cfc:	695a      	ldr	r2, [r3, #20]
 8004cfe:	4b14      	ldr	r3, [pc, #80]	@ (8004d50 <HAL_UART_MspInit+0x94>)
 8004d00:	2180      	movs	r1, #128	@ 0x80
 8004d02:	0289      	lsls	r1, r1, #10
 8004d04:	430a      	orrs	r2, r1
 8004d06:	615a      	str	r2, [r3, #20]
 8004d08:	4b11      	ldr	r3, [pc, #68]	@ (8004d50 <HAL_UART_MspInit+0x94>)
 8004d0a:	695a      	ldr	r2, [r3, #20]
 8004d0c:	2380      	movs	r3, #128	@ 0x80
 8004d0e:	029b      	lsls	r3, r3, #10
 8004d10:	4013      	ands	r3, r2
 8004d12:	60fb      	str	r3, [r7, #12]
 8004d14:	68fb      	ldr	r3, [r7, #12]
    /**USART2 GPIO Configuration
    PA2     ------> USART2_TX
    PA3     ------> USART2_RX
    */
    GPIO_InitStruct.Pin = GPIO_PIN_2|GPIO_PIN_3;
 8004d16:	0021      	movs	r1, r4
 8004d18:	187b      	adds	r3, r7, r1
 8004d1a:	220c      	movs	r2, #12
 8004d1c:	601a      	str	r2, [r3, #0]
    GPIO_InitStruct.Mode = GPIO_MODE_AF_PP;
 8004d1e:	187b      	adds	r3, r7, r1
 8004d20:	2202      	movs	r2, #2
 8004d22:	605a      	str	r2, [r3, #4]
    GPIO_InitStruct.Pull = GPIO_NOPULL;
 8004d24:	187b      	adds	r3, r7, r1
 8004d26:	2200      	movs	r2, #0
 8004d28:	609a      	str	r2, [r3, #8]
    GPIO_InitStruct.Speed = GPIO_SPEED_FREQ_HIGH;
 8004d2a:	187b      	adds	r3, r7, r1
 8004d2c:	2203      	movs	r2, #3
 8004d2e:	60da      	str	r2, [r3, #12]
    GPIO_InitStruct.Alternate = GPIO_AF1_USART2;
 8004d30:	187b      	adds	r3, r7, r1
 8004d32:	2201      	movs	r2, #1
 8004d34:	611a      	str	r2, [r3, #16]
    HAL_GPIO_Init(GPIOA, &GPIO_InitStruct);
 8004d36:	187a      	adds	r2, r7, r1
 8004d38:	2390      	movs	r3, #144	@ 0x90
 8004d3a:	05db      	lsls	r3, r3, #23
 8004d3c:	0011      	movs	r1, r2
 8004d3e:	0018      	movs	r0, r3
 8004d40:	f000 f9c4 	bl	80050cc <HAL_GPIO_Init>

  /* USER CODE END USART2_MspInit 1 */

  }

}
 8004d44:	46c0      	nop			@ (mov r8, r8)
 8004d46:	46bd      	mov	sp, r7
 8004d48:	b00b      	add	sp, #44	@ 0x2c
 8004d4a:	bd90      	pop	{r4, r7, pc}
 8004d4c:	40004400 	.word	0x40004400
 8004d50:	40021000 	.word	0x40021000

08004d54 <NMI_Handler>:
/******************************************************************************/
/**
  * @brief This function handles Non maskable interrupt.
  */
void NMI_Handler(void)
{
 8004d54:	b580      	push	{r7, lr}
 8004d56:	af00      	add	r7, sp, #0
  /* USER CODE BEGIN NonMaskableInt_IRQn 0 */

  /* USER CODE END NonMaskableInt_IRQn 0 */
  /* USER CODE BEGIN NonMaskableInt_IRQn 1 */
   while (1)
 8004d58:	46c0      	nop			@ (mov r8, r8)
 8004d5a:	e7fd      	b.n	8004d58 <NMI_Handler+0x4>

08004d5c <HardFault_Handler>:

/**
  * @brief This function handles Hard fault interrupt.
  */
void HardFault_Handler(void)
{
 8004d5c:	b580      	push	{r7, lr}
 8004d5e:	af00      	add	r7, sp, #0
  /* USER CODE BEGIN HardFault_IRQn 0 */

  /* USER CODE END HardFault_IRQn 0 */
  while (1)
 8004d60:	46c0      	nop			@ (mov r8, r8)
 8004d62:	e7fd      	b.n	8004d60 <HardFault_Handler+0x4>

08004d64 <SVC_Handler>:

/**
  * @brief This function handles System service call via SWI instruction.
  */
void SVC_Handler(void)
{
 8004d64:	b580      	push	{r7, lr}
 8004d66:	af00      	add	r7, sp, #0

  /* USER CODE END SVC_IRQn 0 */
  /* USER CODE BEGIN SVC_IRQn 1 */

  /* USER CODE END SVC_IRQn 1 */
}
 8004d68:	46c0      	nop			@ (mov r8, r8)
 8004d6a:	46bd      	mov	sp, r7
 8004d6c:	bd80      	pop	{r7, pc}

08004d6e <PendSV_Handler>:

/**
  * @brief This function handles Pendable request for system service.
  */
void PendSV_Handler(void)
{
 8004d6e:	b580      	push	{r7, lr}
 8004d70:	af00      	add	r7, sp, #0

  /* USER CODE END PendSV_IRQn 0 */
  /* USER CODE BEGIN PendSV_IRQn 1 */

  /* USER CODE END PendSV_IRQn 1 */
}
 8004d72:	46c0      	nop			@ (mov r8, r8)
 8004d74:	46bd      	mov	sp, r7
 8004d76:	bd80      	pop	{r7, pc}

08004d78 <SysTick_Handler>:

/**
  * @brief This function handles System tick timer.
  */
void SysTick_Handler(void)
{
 8004d78:	b580      	push	{r7, lr}
 8004d7a:	af00      	add	r7, sp, #0
  /* USER CODE BEGIN SysTick_IRQn 0 */

  /* USER CODE END SysTick_IRQn 0 */
  HAL_IncTick();
 8004d7c:	f000 f8b2 	bl	8004ee4 <HAL_IncTick>
  /* USER CODE BEGIN SysTick_IRQn 1 */

  /* USER CODE END SysTick_IRQn 1 */
}
 8004d80:	46c0      	nop			@ (mov r8, r8)
 8004d82:	46bd      	mov	sp, r7
 8004d84:	bd80      	pop	{r7, pc}
	...

08004d88 <_sbrk>:
 8004d88:	b580      	push	{r7, lr}
 8004d8a:	b086      	sub	sp, #24
 8004d8c:	af00      	add	r7, sp, #0
 8004d8e:	6078      	str	r0, [r7, #4]
 8004d90:	4a14      	ldr	r2, [pc, #80]	@ (8004de4 <_sbrk+0x5c>)
 8004d92:	4b15      	ldr	r3, [pc, #84]	@ (8004de8 <_sbrk+0x60>)
 8004d94:	1ad3      	subs	r3, r2, r3
 8004d96:	617b      	str	r3, [r7, #20]
 8004d98:	697b      	ldr	r3, [r7, #20]
 8004d9a:	613b      	str	r3, [r7, #16]
 8004d9c:	4b13      	ldr	r3, [pc, #76]	@ (8004dec <_sbrk+0x64>)
 8004d9e:	681b      	ldr	r3, [r3, #0]
 8004da0:	2b00      	cmp	r3, #0
 8004da2:	d102      	bne.n	8004daa <_sbrk+0x22>
 8004da4:	4b11      	ldr	r3, [pc, #68]	@ (8004dec <_sbrk+0x64>)
 8004da6:	4a12      	ldr	r2, [pc, #72]	@ (8004df0 <_sbrk+0x68>)
 8004da8:	601a      	str	r2, [r3, #0]
 8004daa:	4b10      	ldr	r3, [pc, #64]	@ (8004dec <_sbrk+0x64>)
 8004dac:	681a      	ldr	r2, [r3, #0]
 8004dae:	687b      	ldr	r3, [r7, #4]
 8004db0:	18d3      	adds	r3, r2, r3
 8004db2:	693a      	ldr	r2, [r7, #16]
 8004db4:	429a      	cmp	r2, r3
 8004db6:	d207      	bcs.n	8004dc8 <_sbrk+0x40>
 8004db8:	f002 fc08 	bl	80075cc <__errno>
 8004dbc:	0003      	movs	r3, r0
 8004dbe:	220c      	movs	r2, #12
 8004dc0:	601a      	str	r2, [r3, #0]
 8004dc2:	2301      	movs	r3, #1
 8004dc4:	425b      	negs	r3, r3
 8004dc6:	e009      	b.n	8004ddc <_sbrk+0x54>
 8004dc8:	4b08      	ldr	r3, [pc, #32]	@ (8004dec <_sbrk+0x64>)
 8004dca:	681b      	ldr	r3, [r3, #0]
 8004dcc:	60fb      	str	r3, [r7, #12]
 8004dce:	4b07      	ldr	r3, [pc, #28]	@ (8004dec <_sbrk+0x64>)
 8004dd0:	681a      	ldr	r2, [r3, #0]
 8004dd2:	687b      	ldr	r3, [r7, #4]
 8004dd4:	18d2      	adds	r2, r2, r3
 8004dd6:	4b05      	ldr	r3, [pc, #20]	@ (8004dec <_sbrk+0x64>)
 8004dd8:	601a      	str	r2, [r3, #0]
 8004dda:	68fb      	ldr	r3, [r7, #12]
 8004ddc:	0018      	movs	r0, r3
 8004dde:	46bd      	mov	sp, r7
 8004de0:	b006      	add	sp, #24
 8004de2:	bd80      	pop	{r7, pc}
 8004de4:	20002000 	.word	0x20002000
 8004de8:	00000400 	.word	0x00000400
 8004dec:	20000588 	.word	0x20000588
 8004df0:	200006d8 	.word	0x200006d8

08004df4 <SystemInit>:
 8004df4:	b580      	push	{r7, lr}
 8004df6:	af00      	add	r7, sp, #0
 8004df8:	46c0      	nop			@ (mov r8, r8)
 8004dfa:	46bd      	mov	sp, r7
 8004dfc:	bd80      	pop	{r7, pc}
	...

08004e00 <Reset_Handler>:
 8004e00:	480d      	ldr	r0, [pc, #52]	@ (8004e38 <LoopForever+0x2>)
 8004e02:	4685      	mov	sp, r0
 8004e04:	f7ff fff6 	bl	8004df4 <SystemInit>
 8004e08:	480c      	ldr	r0, [pc, #48]	@ (8004e3c <LoopForever+0x6>)
 8004e0a:	490d      	ldr	r1, [pc, #52]	@ (8004e40 <LoopForever+0xa>)
 8004e0c:	4a0d      	ldr	r2, [pc, #52]	@ (8004e44 <LoopForever+0xe>)
 8004e0e:	2300      	movs	r3, #0
 8004e10:	e002      	b.n	8004e18 <LoopCopyDataInit>

08004e12 <CopyDataInit>:
 8004e12:	58d4      	ldr	r4, [r2, r3]
 8004e14:	50c4      	str	r4, [r0, r3]
 8004e16:	3304      	adds	r3, #4

08004e18 <LoopCopyDataInit>:
 8004e18:	18c4      	adds	r4, r0, r3
 8004e1a:	428c      	cmp	r4, r1
 8004e1c:	d3f9      	bcc.n	8004e12 <CopyDataInit>
 8004e1e:	4a0a      	ldr	r2, [pc, #40]	@ (8004e48 <LoopForever+0x12>)
 8004e20:	4c0a      	ldr	r4, [pc, #40]	@ (8004e4c <LoopForever+0x16>)
 8004e22:	2300      	movs	r3, #0
 8004e24:	e001      	b.n	8004e2a <LoopFillZerobss>

08004e26 <FillZerobss>:
 8004e26:	6013      	str	r3, [r2, #0]
 8004e28:	3204      	adds	r2, #4

08004e2a <LoopFillZerobss>:
 8004e2a:	42a2      	cmp	r2, r4
 8004e2c:	d3fb      	bcc.n	8004e26 <FillZerobss>
 8004e2e:	f002 fbd3 	bl	80075d8 <__libc_init_array>
 8004e32:	f7fd f93b 	bl	80020ac <main>

08004e36 <LoopForever>:
 8004e36:	e7fe      	b.n	8004e36 <LoopForever>
 8004e38:	20002000 	.word	0x20002000
 8004e3c:	20000000 	.word	0x20000000
 8004e40:	20000078 	.word	0x20000078
 8004e44:	0800ac5c 	.word	0x0800ac5c
 8004e48:	20000078 	.word	0x20000078
 8004e4c:	200006d8 	.word	0x200006d8

08004e50 <ADC1_IRQHandler>:
 8004e50:	e7fe      	b.n	8004e50 <ADC1_IRQHandler>
	...

08004e54 <HAL_Init>:
 8004e54:	b580      	push	{r7, lr}
 8004e56:	af00      	add	r7, sp, #0
 8004e58:	4b07      	ldr	r3, [pc, #28]	@ (8004e78 <HAL_Init+0x24>)
 8004e5a:	681a      	ldr	r2, [r3, #0]
 8004e5c:	4b06      	ldr	r3, [pc, #24]	@ (8004e78 <HAL_Init+0x24>)
 8004e5e:	2110      	movs	r1, #16
 8004e60:	430a      	orrs	r2, r1
 8004e62:	601a      	str	r2, [r3, #0]
 8004e64:	2003      	movs	r0, #3
 8004e66:	f000 f809 	bl	8004e7c <HAL_InitTick>
 8004e6a:	f7ff feb5 	bl	8004bd8 <HAL_MspInit>
 8004e6e:	2300      	movs	r3, #0
 8004e70:	0018      	movs	r0, r3
 8004e72:	46bd      	mov	sp, r7
 8004e74:	bd80      	pop	{r7, pc}
 8004e76:	46c0      	nop			@ (mov r8, r8)
 8004e78:	40022000 	.word	0x40022000

08004e7c <HAL_InitTick>:
 8004e7c:	b590      	push	{r4, r7, lr}
 8004e7e:	b083      	sub	sp, #12
 8004e80:	af00      	add	r7, sp, #0
 8004e82:	6078      	str	r0, [r7, #4]
 8004e84:	4b14      	ldr	r3, [pc, #80]	@ (8004ed8 <HAL_InitTick+0x5c>)
 8004e86:	681c      	ldr	r4, [r3, #0]
 8004e88:	4b14      	ldr	r3, [pc, #80]	@ (8004edc <HAL_InitTick+0x60>)
 8004e8a:	781b      	ldrb	r3, [r3, #0]
 8004e8c:	0019      	movs	r1, r3
 8004e8e:	23fa      	movs	r3, #250	@ 0xfa
 8004e90:	0098      	lsls	r0, r3, #2
 8004e92:	f7fb f943 	bl	800011c <__udivsi3>
 8004e96:	0003      	movs	r3, r0
 8004e98:	0019      	movs	r1, r3
 8004e9a:	0020      	movs	r0, r4
 8004e9c:	f7fb f93e 	bl	800011c <__udivsi3>
 8004ea0:	0003      	movs	r3, r0
 8004ea2:	0018      	movs	r0, r3
 8004ea4:	f000 f905 	bl	80050b2 <HAL_SYSTICK_Config>
 8004ea8:	1e03      	subs	r3, r0, #0
 8004eaa:	d001      	beq.n	8004eb0 <HAL_InitTick+0x34>
 8004eac:	2301      	movs	r3, #1
 8004eae:	e00f      	b.n	8004ed0 <HAL_InitTick+0x54>
 8004eb0:	687b      	ldr	r3, [r7, #4]
 8004eb2:	2b03      	cmp	r3, #3
 8004eb4:	d80b      	bhi.n	8004ece <HAL_InitTick+0x52>
 8004eb6:	6879      	ldr	r1, [r7, #4]
 8004eb8:	2301      	movs	r3, #1
 8004eba:	425b      	negs	r3, r3
 8004ebc:	2200      	movs	r2, #0
 8004ebe:	0018      	movs	r0, r3
 8004ec0:	f000 f8e2 	bl	8005088 <HAL_NVIC_SetPriority>
 8004ec4:	4b06      	ldr	r3, [pc, #24]	@ (8004ee0 <HAL_InitTick+0x64>)
 8004ec6:	687a      	ldr	r2, [r7, #4]
 8004ec8:	601a      	str	r2, [r3, #0]
 8004eca:	2300      	movs	r3, #0
 8004ecc:	e000      	b.n	8004ed0 <HAL_InitTick+0x54>
 8004ece:	2301      	movs	r3, #1
 8004ed0:	0018      	movs	r0, r3
 8004ed2:	46bd      	mov	sp, r7
 8004ed4:	b003      	add	sp, #12
 8004ed6:	bd90      	pop	{r4, r7, pc}
 8004ed8:	2000001c 	.word	0x2000001c
 8004edc:	20000024 	.word	0x20000024
 8004ee0:	20000020 	.word	0x20000020

08004ee4 <HAL_IncTick>:
 8004ee4:	b580      	push	{r7, lr}
 8004ee6:	af00      	add	r7, sp, #0
 8004ee8:	4b05      	ldr	r3, [pc, #20]	@ (8004f00 <HAL_IncTick+0x1c>)
 8004eea:	781b      	ldrb	r3, [r3, #0]
 8004eec:	001a      	movs	r2, r3
 8004eee:	4b05      	ldr	r3, [pc, #20]	@ (8004f04 <HAL_IncTick+0x20>)
 8004ef0:	681b      	ldr	r3, [r3, #0]
 8004ef2:	18d2      	adds	r2, r2, r3
 8004ef4:	4b03      	ldr	r3, [pc, #12]	@ (8004f04 <HAL_IncTick+0x20>)
 8004ef6:	601a      	str	r2, [r3, #0]
 8004ef8:	46c0      	nop			@ (mov r8, r8)
 8004efa:	46bd      	mov	sp, r7
 8004efc:	bd80      	pop	{r7, pc}
 8004efe:	46c0      	nop			@ (mov r8, r8)
 8004f00:	20000024 	.word	0x20000024
 8004f04:	2000058c 	.word	0x2000058c

08004f08 <HAL_GetTick>:
 8004f08:	b580      	push	{r7, lr}
 8004f0a:	af00      	add	r7, sp, #0
 8004f0c:	4b02      	ldr	r3, [pc, #8]	@ (8004f18 <HAL_GetTick+0x10>)
 8004f0e:	681b      	ldr	r3, [r3, #0]
 8004f10:	0018      	movs	r0, r3
 8004f12:	46bd      	mov	sp, r7
 8004f14:	bd80      	pop	{r7, pc}
 8004f16:	46c0      	nop			@ (mov r8, r8)
 8004f18:	2000058c 	.word	0x2000058c

08004f1c <HAL_Delay>:
 8004f1c:	b580      	push	{r7, lr}
 8004f1e:	b084      	sub	sp, #16
 8004f20:	af00      	add	r7, sp, #0
 8004f22:	6078      	str	r0, [r7, #4]
 8004f24:	f7ff fff0 	bl	8004f08 <HAL_GetTick>
 8004f28:	0003      	movs	r3, r0
 8004f2a:	60bb      	str	r3, [r7, #8]
 8004f2c:	687b      	ldr	r3, [r7, #4]
 8004f2e:	60fb      	str	r3, [r7, #12]
 8004f30:	68fb      	ldr	r3, [r7, #12]
 8004f32:	3301      	adds	r3, #1
 8004f34:	d005      	beq.n	8004f42 <HAL_Delay+0x26>
 8004f36:	4b0a      	ldr	r3, [pc, #40]	@ (8004f60 <HAL_Delay+0x44>)
 8004f38:	781b      	ldrb	r3, [r3, #0]
 8004f3a:	001a      	movs	r2, r3
 8004f3c:	68fb      	ldr	r3, [r7, #12]
 8004f3e:	189b      	adds	r3, r3, r2
 8004f40:	60fb      	str	r3, [r7, #12]
 8004f42:	46c0      	nop			@ (mov r8, r8)
 8004f44:	f7ff ffe0 	bl	8004f08 <HAL_GetTick>
 8004f48:	0002      	movs	r2, r0
 8004f4a:	68bb      	ldr	r3, [r7, #8]
 8004f4c:	1ad3      	subs	r3, r2, r3
 8004f4e:	68fa      	ldr	r2, [r7, #12]
 8004f50:	429a      	cmp	r2, r3
 8004f52:	d8f7      	bhi.n	8004f44 <HAL_Delay+0x28>
 8004f54:	46c0      	nop			@ (mov r8, r8)
 8004f56:	46c0      	nop			@ (mov r8, r8)
 8004f58:	46bd      	mov	sp, r7
 8004f5a:	b004      	add	sp, #16
 8004f5c:	bd80      	pop	{r7, pc}
 8004f5e:	46c0      	nop			@ (mov r8, r8)
 8004f60:	20000024 	.word	0x20000024

08004f64 <__NVIC_SetPriority>:
 8004f64:	b590      	push	{r4, r7, lr}
 8004f66:	b083      	sub	sp, #12
 8004f68:	af00      	add	r7, sp, #0
 8004f6a:	0002      	movs	r2, r0
 8004f6c:	6039      	str	r1, [r7, #0]
 8004f6e:	1dfb      	adds	r3, r7, #7
 8004f70:	701a      	strb	r2, [r3, #0]
 8004f72:	1dfb      	adds	r3, r7, #7
 8004f74:	781b      	ldrb	r3, [r3, #0]
 8004f76:	2b7f      	cmp	r3, #127	@ 0x7f
 8004f78:	d828      	bhi.n	8004fcc <__NVIC_SetPriority+0x68>
 8004f7a:	4a2f      	ldr	r2, [pc, #188]	@ (8005038 <__NVIC_SetPriority+0xd4>)
 8004f7c:	1dfb      	adds	r3, r7, #7
 8004f7e:	781b      	ldrb	r3, [r3, #0]
 8004f80:	b25b      	sxtb	r3, r3
 8004f82:	089b      	lsrs	r3, r3, #2
 8004f84:	33c0      	adds	r3, #192	@ 0xc0
 8004f86:	009b      	lsls	r3, r3, #2
 8004f88:	589b      	ldr	r3, [r3, r2]
 8004f8a:	1dfa      	adds	r2, r7, #7
 8004f8c:	7812      	ldrb	r2, [r2, #0]
 8004f8e:	0011      	movs	r1, r2
 8004f90:	2203      	movs	r2, #3
 8004f92:	400a      	ands	r2, r1
 8004f94:	00d2      	lsls	r2, r2, #3
 8004f96:	21ff      	movs	r1, #255	@ 0xff
 8004f98:	4091      	lsls	r1, r2
 8004f9a:	000a      	movs	r2, r1
 8004f9c:	43d2      	mvns	r2, r2
 8004f9e:	401a      	ands	r2, r3
 8004fa0:	0011      	movs	r1, r2
 8004fa2:	683b      	ldr	r3, [r7, #0]
 8004fa4:	019b      	lsls	r3, r3, #6
 8004fa6:	22ff      	movs	r2, #255	@ 0xff
 8004fa8:	401a      	ands	r2, r3
 8004faa:	1dfb      	adds	r3, r7, #7
 8004fac:	781b      	ldrb	r3, [r3, #0]
 8004fae:	0018      	movs	r0, r3
 8004fb0:	2303      	movs	r3, #3
 8004fb2:	4003      	ands	r3, r0
 8004fb4:	00db      	lsls	r3, r3, #3
 8004fb6:	409a      	lsls	r2, r3
 8004fb8:	481f      	ldr	r0, [pc, #124]	@ (8005038 <__NVIC_SetPriority+0xd4>)
 8004fba:	1dfb      	adds	r3, r7, #7
 8004fbc:	781b      	ldrb	r3, [r3, #0]
 8004fbe:	b25b      	sxtb	r3, r3
 8004fc0:	089b      	lsrs	r3, r3, #2
 8004fc2:	430a      	orrs	r2, r1
 8004fc4:	33c0      	adds	r3, #192	@ 0xc0
 8004fc6:	009b      	lsls	r3, r3, #2
 8004fc8:	501a      	str	r2, [r3, r0]
 8004fca:	e031      	b.n	8005030 <__NVIC_SetPriority+0xcc>
 8004fcc:	4a1b      	ldr	r2, [pc, #108]	@ (800503c <__NVIC_SetPriority+0xd8>)
 8004fce:	1dfb      	adds	r3, r7, #7
 8004fd0:	781b      	ldrb	r3, [r3, #0]
 8004fd2:	0019      	movs	r1, r3
 8004fd4:	230f      	movs	r3, #15
 8004fd6:	400b      	ands	r3, r1
 8004fd8:	3b08      	subs	r3, #8
 8004fda:	089b      	lsrs	r3, r3, #2
 8004fdc:	3306      	adds	r3, #6
 8004fde:	009b      	lsls	r3, r3, #2
 8004fe0:	18d3      	adds	r3, r2, r3
 8004fe2:	3304      	adds	r3, #4
 8004fe4:	681b      	ldr	r3, [r3, #0]
 8004fe6:	1dfa      	adds	r2, r7, #7
 8004fe8:	7812      	ldrb	r2, [r2, #0]
 8004fea:	0011      	movs	r1, r2
 8004fec:	2203      	movs	r2, #3
 8004fee:	400a      	ands	r2, r1
 8004ff0:	00d2      	lsls	r2, r2, #3
 8004ff2:	21ff      	movs	r1, #255	@ 0xff
 8004ff4:	4091      	lsls	r1, r2
 8004ff6:	000a      	movs	r2, r1
 8004ff8:	43d2      	mvns	r2, r2
 8004ffa:	401a      	ands	r2, r3
 8004ffc:	0011      	movs	r1, r2
 8004ffe:	683b      	ldr	r3, [r7, #0]
 8005000:	019b      	lsls	r3, r3, #6
 8005002:	22ff      	movs	r2, #255	@ 0xff
 8005004:	401a      	ands	r2, r3
 8005006:	1dfb      	adds	r3, r7, #7
 8005008:	781b      	ldrb	r3, [r3, #0]
 800500a:	0018      	movs	r0, r3
 800500c:	2303      	movs	r3, #3
 800500e:	4003      	ands	r3, r0
 8005010:	00db      	lsls	r3, r3, #3
 8005012:	409a      	lsls	r2, r3
 8005014:	4809      	ldr	r0, [pc, #36]	@ (800503c <__NVIC_SetPriority+0xd8>)
 8005016:	1dfb      	adds	r3, r7, #7
 8005018:	781b      	ldrb	r3, [r3, #0]
 800501a:	001c      	movs	r4, r3
 800501c:	230f      	movs	r3, #15
 800501e:	4023      	ands	r3, r4
 8005020:	3b08      	subs	r3, #8
 8005022:	089b      	lsrs	r3, r3, #2
 8005024:	430a      	orrs	r2, r1
 8005026:	3306      	adds	r3, #6
 8005028:	009b      	lsls	r3, r3, #2
 800502a:	18c3      	adds	r3, r0, r3
 800502c:	3304      	adds	r3, #4
 800502e:	601a      	str	r2, [r3, #0]
 8005030:	46c0      	nop			@ (mov r8, r8)
 8005032:	46bd      	mov	sp, r7
 8005034:	b003      	add	sp, #12
 8005036:	bd90      	pop	{r4, r7, pc}
 8005038:	e000e100 	.word	0xe000e100
 800503c:	e000ed00 	.word	0xe000ed00

08005040 <SysTick_Config>:
 8005040:	b580      	push	{r7, lr}
 8005042:	b082      	sub	sp, #8
 8005044:	af00      	add	r7, sp, #0
 8005046:	6078      	str	r0, [r7, #4]
 8005048:	687b      	ldr	r3, [r7, #4]
 800504a:	1e5a      	subs	r2, r3, #1
 800504c:	2380      	movs	r3, #128	@ 0x80
 800504e:	045b      	lsls	r3, r3, #17
 8005050:	429a      	cmp	r2, r3
 8005052:	d301      	bcc.n	8005058 <SysTick_Config+0x18>
 8005054:	2301      	movs	r3, #1
 8005056:	e010      	b.n	800507a <SysTick_Config+0x3a>
 8005058:	4b0a      	ldr	r3, [pc, #40]	@ (8005084 <SysTick_Config+0x44>)
 800505a:	687a      	ldr	r2, [r7, #4]
 800505c:	3a01      	subs	r2, #1
 800505e:	605a      	str	r2, [r3, #4]
 8005060:	2301      	movs	r3, #1
 8005062:	425b      	negs	r3, r3
 8005064:	2103      	movs	r1, #3
 8005066:	0018      	movs	r0, r3
 8005068:	f7ff ff7c 	bl	8004f64 <__NVIC_SetPriority>
 800506c:	4b05      	ldr	r3, [pc, #20]	@ (8005084 <SysTick_Config+0x44>)
 800506e:	2200      	movs	r2, #0
 8005070:	609a      	str	r2, [r3, #8]
 8005072:	4b04      	ldr	r3, [pc, #16]	@ (8005084 <SysTick_Config+0x44>)
 8005074:	2207      	movs	r2, #7
 8005076:	601a      	str	r2, [r3, #0]
 8005078:	2300      	movs	r3, #0
 800507a:	0018      	movs	r0, r3
 800507c:	46bd      	mov	sp, r7
 800507e:	b002      	add	sp, #8
 8005080:	bd80      	pop	{r7, pc}
 8005082:	46c0      	nop			@ (mov r8, r8)
 8005084:	e000e010 	.word	0xe000e010

08005088 <HAL_NVIC_SetPriority>:
 8005088:	b580      	push	{r7, lr}
 800508a:	b084      	sub	sp, #16
 800508c:	af00      	add	r7, sp, #0
 800508e:	60b9      	str	r1, [r7, #8]
 8005090:	607a      	str	r2, [r7, #4]
 8005092:	210f      	movs	r1, #15
 8005094:	187b      	adds	r3, r7, r1
 8005096:	1c02      	adds	r2, r0, #0
 8005098:	701a      	strb	r2, [r3, #0]
 800509a:	68ba      	ldr	r2, [r7, #8]
 800509c:	187b      	adds	r3, r7, r1
 800509e:	781b      	ldrb	r3, [r3, #0]
 80050a0:	b25b      	sxtb	r3, r3
 80050a2:	0011      	movs	r1, r2
 80050a4:	0018      	movs	r0, r3
 80050a6:	f7ff ff5d 	bl	8004f64 <__NVIC_SetPriority>
 80050aa:	46c0      	nop			@ (mov r8, r8)
 80050ac:	46bd      	mov	sp, r7
 80050ae:	b004      	add	sp, #16
 80050b0:	bd80      	pop	{r7, pc}

080050b2 <HAL_SYSTICK_Config>:
 80050b2:	b580      	push	{r7, lr}
 80050b4:	b082      	sub	sp, #8
 80050b6:	af00      	add	r7, sp, #0
 80050b8:	6078      	str	r0, [r7, #4]
 80050ba:	687b      	ldr	r3, [r7, #4]
 80050bc:	0018      	movs	r0, r3
 80050be:	f7ff ffbf 	bl	8005040 <SysTick_Config>
 80050c2:	0003      	movs	r3, r0
 80050c4:	0018      	movs	r0, r3
 80050c6:	46bd      	mov	sp, r7
 80050c8:	b002      	add	sp, #8
 80050ca:	bd80      	pop	{r7, pc}

080050cc <HAL_GPIO_Init>:
  * @param  GPIO_Init pointer to a GPIO_InitTypeDef structure that contains
  *         the configuration information for the specified GPIO peripheral.
  * @retval None
  */
void HAL_GPIO_Init(GPIO_TypeDef  *GPIOx, GPIO_InitTypeDef *GPIO_Init)
{
 80050cc:	b580      	push	{r7, lr}
 80050ce:	b086      	sub	sp, #24
 80050d0:	af00      	add	r7, sp, #0
 80050d2:	6078      	str	r0, [r7, #4]
 80050d4:	6039      	str	r1, [r7, #0]
  uint32_t position = 0x00u;
 80050d6:	2300      	movs	r3, #0
 80050d8:	617b      	str	r3, [r7, #20]
  assert_param(IS_GPIO_ALL_INSTANCE(GPIOx));
  assert_param(IS_GPIO_PIN(GPIO_Init->Pin));
  assert_param(IS_GPIO_MODE(GPIO_Init->Mode));

  /* Configure the port pins */
  while (((GPIO_Init->Pin) >> position) != 0x00u)
 80050da:	e14f      	b.n	800537c <HAL_GPIO_Init+0x2b0>
  {
    /* Get current io position */
    iocurrent = (GPIO_Init->Pin) & (1uL << position);
 80050dc:	683b      	ldr	r3, [r7, #0]
 80050de:	681b      	ldr	r3, [r3, #0]
 80050e0:	2101      	movs	r1, #1
 80050e2:	697a      	ldr	r2, [r7, #20]
 80050e4:	4091      	lsls	r1, r2
 80050e6:	000a      	movs	r2, r1
 80050e8:	4013      	ands	r3, r2
 80050ea:	60fb      	str	r3, [r7, #12]

    if (iocurrent != 0x00u)
 80050ec:	68fb      	ldr	r3, [r7, #12]
 80050ee:	2b00      	cmp	r3, #0
 80050f0:	d100      	bne.n	80050f4 <HAL_GPIO_Init+0x28>
 80050f2:	e140      	b.n	8005376 <HAL_GPIO_Init+0x2aa>
    {
      /*--------------------- GPIO Mode Configuration ------------------------*/
      /* In case of Output or Alternate function mode selection */
      if(((GPIO_Init->Mode & GPIO_MODE) == MODE_OUTPUT) ||
 80050f4:	683b      	ldr	r3, [r7, #0]
 80050f6:	685b      	ldr	r3, [r3, #4]
 80050f8:	2203      	movs	r2, #3
 80050fa:	4013      	ands	r3, r2
 80050fc:	2b01      	cmp	r3, #1
 80050fe:	d005      	beq.n	800510c <HAL_GPIO_Init+0x40>
         ((GPIO_Init->Mode & GPIO_MODE) == MODE_AF))
 8005100:	683b      	ldr	r3, [r7, #0]
 8005102:	685b      	ldr	r3, [r3, #4]
 8005104:	2203      	movs	r2, #3
 8005106:	4013      	ands	r3, r2
      if(((GPIO_Init->Mode & GPIO_MODE) == MODE_OUTPUT) ||
 8005108:	2b02      	cmp	r3, #2
 800510a:	d130      	bne.n	800516e <HAL_GPIO_Init+0xa2>
      {
        /* Check the Speed parameter */
        assert_param(IS_GPIO_SPEED(GPIO_Init->Speed));
        /* Configure the IO Speed */
        temp = GPIOx->OSPEEDR;
 800510c:	687b      	ldr	r3, [r7, #4]
 800510e:	689b      	ldr	r3, [r3, #8]
 8005110:	613b      	str	r3, [r7, #16]
        temp &= ~(GPIO_OSPEEDER_OSPEEDR0 << (position * 2u));
 8005112:	697b      	ldr	r3, [r7, #20]
 8005114:	005b      	lsls	r3, r3, #1
 8005116:	2203      	movs	r2, #3
 8005118:	409a      	lsls	r2, r3
 800511a:	0013      	movs	r3, r2
 800511c:	43da      	mvns	r2, r3
 800511e:	693b      	ldr	r3, [r7, #16]
 8005120:	4013      	ands	r3, r2
 8005122:	613b      	str	r3, [r7, #16]
        temp |= (GPIO_Init->Speed << (position * 2u));
 8005124:	683b      	ldr	r3, [r7, #0]
 8005126:	68da      	ldr	r2, [r3, #12]
 8005128:	697b      	ldr	r3, [r7, #20]
 800512a:	005b      	lsls	r3, r3, #1
 800512c:	409a      	lsls	r2, r3
 800512e:	0013      	movs	r3, r2
 8005130:	693a      	ldr	r2, [r7, #16]
 8005132:	4313      	orrs	r3, r2
 8005134:	613b      	str	r3, [r7, #16]
        GPIOx->OSPEEDR = temp;
 8005136:	687b      	ldr	r3, [r7, #4]
 8005138:	693a      	ldr	r2, [r7, #16]
 800513a:	609a      	str	r2, [r3, #8]

        /* Configure the IO Output Type */
        temp = GPIOx->OTYPER;
 800513c:	687b      	ldr	r3, [r7, #4]
 800513e:	685b      	ldr	r3, [r3, #4]
 8005140:	613b      	str	r3, [r7, #16]
        temp &= ~(GPIO_OTYPER_OT_0 << position) ;
 8005142:	2201      	movs	r2, #1
 8005144:	697b      	ldr	r3, [r7, #20]
 8005146:	409a      	lsls	r2, r3
 8005148:	0013      	movs	r3, r2
 800514a:	43da      	mvns	r2, r3
 800514c:	693b      	ldr	r3, [r7, #16]
 800514e:	4013      	ands	r3, r2
 8005150:	613b      	str	r3, [r7, #16]
        temp |= (((GPIO_Init->Mode & OUTPUT_TYPE) >> OUTPUT_TYPE_Pos) << position);
 8005152:	683b      	ldr	r3, [r7, #0]
 8005154:	685b      	ldr	r3, [r3, #4]
 8005156:	091b      	lsrs	r3, r3, #4
 8005158:	2201      	movs	r2, #1
 800515a:	401a      	ands	r2, r3
 800515c:	697b      	ldr	r3, [r7, #20]
 800515e:	409a      	lsls	r2, r3
 8005160:	0013      	movs	r3, r2
 8005162:	693a      	ldr	r2, [r7, #16]
 8005164:	4313      	orrs	r3, r2
 8005166:	613b      	str	r3, [r7, #16]
        GPIOx->OTYPER = temp;
 8005168:	687b      	ldr	r3, [r7, #4]
 800516a:	693a      	ldr	r2, [r7, #16]
 800516c:	605a      	str	r2, [r3, #4]
      }
      
      if((GPIO_Init->Mode & GPIO_MODE) != MODE_ANALOG)
 800516e:	683b      	ldr	r3, [r7, #0]
 8005170:	685b      	ldr	r3, [r3, #4]
 8005172:	2203      	movs	r2, #3
 8005174:	4013      	ands	r3, r2
 8005176:	2b03      	cmp	r3, #3
 8005178:	d017      	beq.n	80051aa <HAL_GPIO_Init+0xde>
      {
        /* Check the Pull parameter */
        assert_param(IS_GPIO_PULL(GPIO_Init->Pull));

        /* Activate the Pull-up or Pull down resistor for the current IO */
        temp = GPIOx->PUPDR;
 800517a:	687b      	ldr	r3, [r7, #4]
 800517c:	68db      	ldr	r3, [r3, #12]
 800517e:	613b      	str	r3, [r7, #16]
        temp &= ~(GPIO_PUPDR_PUPDR0 << (position * 2u));
 8005180:	697b      	ldr	r3, [r7, #20]
 8005182:	005b      	lsls	r3, r3, #1
 8005184:	2203      	movs	r2, #3
 8005186:	409a      	lsls	r2, r3
 8005188:	0013      	movs	r3, r2
 800518a:	43da      	mvns	r2, r3
 800518c:	693b      	ldr	r3, [r7, #16]
 800518e:	4013      	ands	r3, r2
 8005190:	613b      	str	r3, [r7, #16]
        temp |= ((GPIO_Init->Pull) << (position * 2u));
 8005192:	683b      	ldr	r3, [r7, #0]
 8005194:	689a      	ldr	r2, [r3, #8]
 8005196:	697b      	ldr	r3, [r7, #20]
 8005198:	005b      	lsls	r3, r3, #1
 800519a:	409a      	lsls	r2, r3
 800519c:	0013      	movs	r3, r2
 800519e:	693a      	ldr	r2, [r7, #16]
 80051a0:	4313      	orrs	r3, r2
 80051a2:	613b      	str	r3, [r7, #16]
        GPIOx->PUPDR = temp;
 80051a4:	687b      	ldr	r3, [r7, #4]
 80051a6:	693a      	ldr	r2, [r7, #16]
 80051a8:	60da      	str	r2, [r3, #12]
      }

      /* In case of Alternate function mode selection */
      if((GPIO_Init->Mode & GPIO_MODE) == MODE_AF)
 80051aa:	683b      	ldr	r3, [r7, #0]
 80051ac:	685b      	ldr	r3, [r3, #4]
 80051ae:	2203      	movs	r2, #3
 80051b0:	4013      	ands	r3, r2
 80051b2:	2b02      	cmp	r3, #2
 80051b4:	d123      	bne.n	80051fe <HAL_GPIO_Init+0x132>
        /* Check the Alternate function parameters */
        assert_param(IS_GPIO_AF_INSTANCE(GPIOx));
        assert_param(IS_GPIO_AF(GPIO_Init->Alternate));

        /* Configure Alternate function mapped with the current IO */
        temp = GPIOx->AFR[position >> 3u];
 80051b6:	697b      	ldr	r3, [r7, #20]
 80051b8:	08da      	lsrs	r2, r3, #3
 80051ba:	687b      	ldr	r3, [r7, #4]
 80051bc:	3208      	adds	r2, #8
 80051be:	0092      	lsls	r2, r2, #2
 80051c0:	58d3      	ldr	r3, [r2, r3]
 80051c2:	613b      	str	r3, [r7, #16]
        temp &= ~(0xFu << ((position & 0x07u) * 4u));
 80051c4:	697b      	ldr	r3, [r7, #20]
 80051c6:	2207      	movs	r2, #7
 80051c8:	4013      	ands	r3, r2
 80051ca:	009b      	lsls	r3, r3, #2
 80051cc:	220f      	movs	r2, #15
 80051ce:	409a      	lsls	r2, r3
 80051d0:	0013      	movs	r3, r2
 80051d2:	43da      	mvns	r2, r3
 80051d4:	693b      	ldr	r3, [r7, #16]
 80051d6:	4013      	ands	r3, r2
 80051d8:	613b      	str	r3, [r7, #16]
        temp |= ((GPIO_Init->Alternate) << ((position & 0x07u) * 4u));
 80051da:	683b      	ldr	r3, [r7, #0]
 80051dc:	691a      	ldr	r2, [r3, #16]
 80051de:	697b      	ldr	r3, [r7, #20]
 80051e0:	2107      	movs	r1, #7
 80051e2:	400b      	ands	r3, r1
 80051e4:	009b      	lsls	r3, r3, #2
 80051e6:	409a      	lsls	r2, r3
 80051e8:	0013      	movs	r3, r2
 80051ea:	693a      	ldr	r2, [r7, #16]
 80051ec:	4313      	orrs	r3, r2
 80051ee:	613b      	str	r3, [r7, #16]
        GPIOx->AFR[position >> 3u] = temp;
 80051f0:	697b      	ldr	r3, [r7, #20]
 80051f2:	08da      	lsrs	r2, r3, #3
 80051f4:	687b      	ldr	r3, [r7, #4]
 80051f6:	3208      	adds	r2, #8
 80051f8:	0092      	lsls	r2, r2, #2
 80051fa:	6939      	ldr	r1, [r7, #16]
 80051fc:	50d1      	str	r1, [r2, r3]
      }

      /* Configure IO Direction mode (Input, Output, Alternate or Analog) */
      temp = GPIOx->MODER;
 80051fe:	687b      	ldr	r3, [r7, #4]
 8005200:	681b      	ldr	r3, [r3, #0]
 8005202:	613b      	str	r3, [r7, #16]
      temp &= ~(GPIO_MODER_MODER0 << (position * 2u));
 8005204:	697b      	ldr	r3, [r7, #20]
 8005206:	005b      	lsls	r3, r3, #1
 8005208:	2203      	movs	r2, #3
 800520a:	409a      	lsls	r2, r3
 800520c:	0013      	movs	r3, r2
 800520e:	43da      	mvns	r2, r3
 8005210:	693b      	ldr	r3, [r7, #16]
 8005212:	4013      	ands	r3, r2
 8005214:	613b      	str	r3, [r7, #16]
      temp |= ((GPIO_Init->Mode & GPIO_MODE) << (position * 2u));
 8005216:	683b      	ldr	r3, [r7, #0]
 8005218:	685b      	ldr	r3, [r3, #4]
 800521a:	2203      	movs	r2, #3
 800521c:	401a      	ands	r2, r3
 800521e:	697b      	ldr	r3, [r7, #20]
 8005220:	005b      	lsls	r3, r3, #1
 8005222:	409a      	lsls	r2, r3
 8005224:	0013      	movs	r3, r2
 8005226:	693a      	ldr	r2, [r7, #16]
 8005228:	4313      	orrs	r3, r2
 800522a:	613b      	str	r3, [r7, #16]
      GPIOx->MODER = temp;
 800522c:	687b      	ldr	r3, [r7, #4]
 800522e:	693a      	ldr	r2, [r7, #16]
 8005230:	601a      	str	r2, [r3, #0]

      /*--------------------- EXTI Mode Configuration ------------------------*/
      /* Configure the External Interrupt or event for the current IO */
      if((GPIO_Init->Mode & EXTI_MODE) != 0x00u)
 8005232:	683b      	ldr	r3, [r7, #0]
 8005234:	685a      	ldr	r2, [r3, #4]
 8005236:	23c0      	movs	r3, #192	@ 0xc0
 8005238:	029b      	lsls	r3, r3, #10
 800523a:	4013      	ands	r3, r2
 800523c:	d100      	bne.n	8005240 <HAL_GPIO_Init+0x174>
 800523e:	e09a      	b.n	8005376 <HAL_GPIO_Init+0x2aa>
      {
        /* Enable SYSCFG Clock */
        __HAL_RCC_SYSCFG_CLK_ENABLE();
 8005240:	4b54      	ldr	r3, [pc, #336]	@ (8005394 <HAL_GPIO_Init+0x2c8>)
 8005242:	699a      	ldr	r2, [r3, #24]
 8005244:	4b53      	ldr	r3, [pc, #332]	@ (8005394 <HAL_GPIO_Init+0x2c8>)
 8005246:	2101      	movs	r1, #1
 8005248:	430a      	orrs	r2, r1
 800524a:	619a      	str	r2, [r3, #24]
 800524c:	4b51      	ldr	r3, [pc, #324]	@ (8005394 <HAL_GPIO_Init+0x2c8>)
 800524e:	699b      	ldr	r3, [r3, #24]
 8005250:	2201      	movs	r2, #1
 8005252:	4013      	ands	r3, r2
 8005254:	60bb      	str	r3, [r7, #8]
 8005256:	68bb      	ldr	r3, [r7, #8]

        temp = SYSCFG->EXTICR[position >> 2u];
 8005258:	4a4f      	ldr	r2, [pc, #316]	@ (8005398 <HAL_GPIO_Init+0x2cc>)
 800525a:	697b      	ldr	r3, [r7, #20]
 800525c:	089b      	lsrs	r3, r3, #2
 800525e:	3302      	adds	r3, #2
 8005260:	009b      	lsls	r3, r3, #2
 8005262:	589b      	ldr	r3, [r3, r2]
 8005264:	613b      	str	r3, [r7, #16]
        temp &= ~(0x0FuL << (4u * (position & 0x03u)));
 8005266:	697b      	ldr	r3, [r7, #20]
 8005268:	2203      	movs	r2, #3
 800526a:	4013      	ands	r3, r2
 800526c:	009b      	lsls	r3, r3, #2
 800526e:	220f      	movs	r2, #15
 8005270:	409a      	lsls	r2, r3
 8005272:	0013      	movs	r3, r2
 8005274:	43da      	mvns	r2, r3
 8005276:	693b      	ldr	r3, [r7, #16]
 8005278:	4013      	ands	r3, r2
 800527a:	613b      	str	r3, [r7, #16]
        temp |= (GPIO_GET_INDEX(GPIOx) << (4u * (position & 0x03u)));
 800527c:	687a      	ldr	r2, [r7, #4]
 800527e:	2390      	movs	r3, #144	@ 0x90
 8005280:	05db      	lsls	r3, r3, #23
 8005282:	429a      	cmp	r2, r3
 8005284:	d013      	beq.n	80052ae <HAL_GPIO_Init+0x1e2>
 8005286:	687b      	ldr	r3, [r7, #4]
 8005288:	4a44      	ldr	r2, [pc, #272]	@ (800539c <HAL_GPIO_Init+0x2d0>)
 800528a:	4293      	cmp	r3, r2
 800528c:	d00d      	beq.n	80052aa <HAL_GPIO_Init+0x1de>
 800528e:	687b      	ldr	r3, [r7, #4]
 8005290:	4a43      	ldr	r2, [pc, #268]	@ (80053a0 <HAL_GPIO_Init+0x2d4>)
 8005292:	4293      	cmp	r3, r2
 8005294:	d007      	beq.n	80052a6 <HAL_GPIO_Init+0x1da>
 8005296:	687b      	ldr	r3, [r7, #4]
 8005298:	4a42      	ldr	r2, [pc, #264]	@ (80053a4 <HAL_GPIO_Init+0x2d8>)
 800529a:	4293      	cmp	r3, r2
 800529c:	d101      	bne.n	80052a2 <HAL_GPIO_Init+0x1d6>
 800529e:	2303      	movs	r3, #3
 80052a0:	e006      	b.n	80052b0 <HAL_GPIO_Init+0x1e4>
 80052a2:	2305      	movs	r3, #5
 80052a4:	e004      	b.n	80052b0 <HAL_GPIO_Init+0x1e4>
 80052a6:	2302      	movs	r3, #2
 80052a8:	e002      	b.n	80052b0 <HAL_GPIO_Init+0x1e4>
 80052aa:	2301      	movs	r3, #1
 80052ac:	e000      	b.n	80052b0 <HAL_GPIO_Init+0x1e4>
 80052ae:	2300      	movs	r3, #0
 80052b0:	697a      	ldr	r2, [r7, #20]
 80052b2:	2103      	movs	r1, #3
 80052b4:	400a      	ands	r2, r1
 80052b6:	0092      	lsls	r2, r2, #2
 80052b8:	4093      	lsls	r3, r2
 80052ba:	693a      	ldr	r2, [r7, #16]
 80052bc:	4313      	orrs	r3, r2
 80052be:	613b      	str	r3, [r7, #16]
        SYSCFG->EXTICR[position >> 2u] = temp;
 80052c0:	4935      	ldr	r1, [pc, #212]	@ (8005398 <HAL_GPIO_Init+0x2cc>)
 80052c2:	697b      	ldr	r3, [r7, #20]
 80052c4:	089b      	lsrs	r3, r3, #2
 80052c6:	3302      	adds	r3, #2
 80052c8:	009b      	lsls	r3, r3, #2
 80052ca:	693a      	ldr	r2, [r7, #16]
 80052cc:	505a      	str	r2, [r3, r1]

        /* Clear Rising Falling edge configuration */
        temp = EXTI->RTSR;
 80052ce:	4b36      	ldr	r3, [pc, #216]	@ (80053a8 <HAL_GPIO_Init+0x2dc>)
 80052d0:	689b      	ldr	r3, [r3, #8]
 80052d2:	613b      	str	r3, [r7, #16]
        temp &= ~(iocurrent);
 80052d4:	68fb      	ldr	r3, [r7, #12]
 80052d6:	43da      	mvns	r2, r3
 80052d8:	693b      	ldr	r3, [r7, #16]
 80052da:	4013      	ands	r3, r2
 80052dc:	613b      	str	r3, [r7, #16]
        if((GPIO_Init->Mode & TRIGGER_RISING) != 0x00u)
 80052de:	683b      	ldr	r3, [r7, #0]
 80052e0:	685a      	ldr	r2, [r3, #4]
 80052e2:	2380      	movs	r3, #128	@ 0x80
 80052e4:	035b      	lsls	r3, r3, #13
 80052e6:	4013      	ands	r3, r2
 80052e8:	d003      	beq.n	80052f2 <HAL_GPIO_Init+0x226>
        {
          temp |= iocurrent;
 80052ea:	693a      	ldr	r2, [r7, #16]
 80052ec:	68fb      	ldr	r3, [r7, #12]
 80052ee:	4313      	orrs	r3, r2
 80052f0:	613b      	str	r3, [r7, #16]
        }
        EXTI->RTSR = temp;
 80052f2:	4b2d      	ldr	r3, [pc, #180]	@ (80053a8 <HAL_GPIO_Init+0x2dc>)
 80052f4:	693a      	ldr	r2, [r7, #16]
 80052f6:	609a      	str	r2, [r3, #8]

        temp = EXTI->FTSR;
 80052f8:	4b2b      	ldr	r3, [pc, #172]	@ (80053a8 <HAL_GPIO_Init+0x2dc>)
 80052fa:	68db      	ldr	r3, [r3, #12]
 80052fc:	613b      	str	r3, [r7, #16]
        temp &= ~(iocurrent);
 80052fe:	68fb      	ldr	r3, [r7, #12]
 8005300:	43da      	mvns	r2, r3
 8005302:	693b      	ldr	r3, [r7, #16]
 8005304:	4013      	ands	r3, r2
 8005306:	613b      	str	r3, [r7, #16]
        if((GPIO_Init->Mode & TRIGGER_FALLING) != 0x00u)
 8005308:	683b      	ldr	r3, [r7, #0]
 800530a:	685a      	ldr	r2, [r3, #4]
 800530c:	2380      	movs	r3, #128	@ 0x80
 800530e:	039b      	lsls	r3, r3, #14
 8005310:	4013      	ands	r3, r2
 8005312:	d003      	beq.n	800531c <HAL_GPIO_Init+0x250>
        {
          temp |= iocurrent;
 8005314:	693a      	ldr	r2, [r7, #16]
 8005316:	68fb      	ldr	r3, [r7, #12]
 8005318:	4313      	orrs	r3, r2
 800531a:	613b      	str	r3, [r7, #16]
        }
        EXTI->FTSR = temp;
 800531c:	4b22      	ldr	r3, [pc, #136]	@ (80053a8 <HAL_GPIO_Init+0x2dc>)
 800531e:	693a      	ldr	r2, [r7, #16]
 8005320:	60da      	str	r2, [r3, #12]

        /* Clear EXTI line configuration */
        temp = EXTI->EMR;
 8005322:	4b21      	ldr	r3, [pc, #132]	@ (80053a8 <HAL_GPIO_Init+0x2dc>)
 8005324:	685b      	ldr	r3, [r3, #4]
 8005326:	613b      	str	r3, [r7, #16]
        temp &= ~(iocurrent);
 8005328:	68fb      	ldr	r3, [r7, #12]
 800532a:	43da      	mvns	r2, r3
 800532c:	693b      	ldr	r3, [r7, #16]
 800532e:	4013      	ands	r3, r2
 8005330:	613b      	str	r3, [r7, #16]
        if((GPIO_Init->Mode & EXTI_EVT) != 0x00u)
 8005332:	683b      	ldr	r3, [r7, #0]
 8005334:	685a      	ldr	r2, [r3, #4]
 8005336:	2380      	movs	r3, #128	@ 0x80
 8005338:	029b      	lsls	r3, r3, #10
 800533a:	4013      	ands	r3, r2
 800533c:	d003      	beq.n	8005346 <HAL_GPIO_Init+0x27a>
        {
          temp |= iocurrent;
 800533e:	693a      	ldr	r2, [r7, #16]
 8005340:	68fb      	ldr	r3, [r7, #12]
 8005342:	4313      	orrs	r3, r2
 8005344:	613b      	str	r3, [r7, #16]
        }
        EXTI->EMR = temp;
 8005346:	4b18      	ldr	r3, [pc, #96]	@ (80053a8 <HAL_GPIO_Init+0x2dc>)
 8005348:	693a      	ldr	r2, [r7, #16]
 800534a:	605a      	str	r2, [r3, #4]

        temp = EXTI->IMR;
 800534c:	4b16      	ldr	r3, [pc, #88]	@ (80053a8 <HAL_GPIO_Init+0x2dc>)
 800534e:	681b      	ldr	r3, [r3, #0]
 8005350:	613b      	str	r3, [r7, #16]
        temp &= ~(iocurrent);
 8005352:	68fb      	ldr	r3, [r7, #12]
 8005354:	43da      	mvns	r2, r3
 8005356:	693b      	ldr	r3, [r7, #16]
 8005358:	4013      	ands	r3, r2
 800535a:	613b      	str	r3, [r7, #16]
        if((GPIO_Init->Mode & EXTI_IT) != 0x00u)
 800535c:	683b      	ldr	r3, [r7, #0]
 800535e:	685a      	ldr	r2, [r3, #4]
 8005360:	2380      	movs	r3, #128	@ 0x80
 8005362:	025b      	lsls	r3, r3, #9
 8005364:	4013      	ands	r3, r2
 8005366:	d003      	beq.n	8005370 <HAL_GPIO_Init+0x2a4>
        {
          temp |= iocurrent;
 8005368:	693a      	ldr	r2, [r7, #16]
 800536a:	68fb      	ldr	r3, [r7, #12]
 800536c:	4313      	orrs	r3, r2
 800536e:	613b      	str	r3, [r7, #16]
        }
        EXTI->IMR = temp;
 8005370:	4b0d      	ldr	r3, [pc, #52]	@ (80053a8 <HAL_GPIO_Init+0x2dc>)
 8005372:	693a      	ldr	r2, [r7, #16]
 8005374:	601a      	str	r2, [r3, #0]
      }
    }

    position++;
 8005376:	697b      	ldr	r3, [r7, #20]
 8005378:	3301      	adds	r3, #1
 800537a:	617b      	str	r3, [r7, #20]
  while (((GPIO_Init->Pin) >> position) != 0x00u)
 800537c:	683b      	ldr	r3, [r7, #0]
 800537e:	681a      	ldr	r2, [r3, #0]
 8005380:	697b      	ldr	r3, [r7, #20]
 8005382:	40da      	lsrs	r2, r3
 8005384:	1e13      	subs	r3, r2, #0
 8005386:	d000      	beq.n	800538a <HAL_GPIO_Init+0x2be>
 8005388:	e6a8      	b.n	80050dc <HAL_GPIO_Init+0x10>
  } 
}
 800538a:	46c0      	nop			@ (mov r8, r8)
 800538c:	46c0      	nop			@ (mov r8, r8)
 800538e:	46bd      	mov	sp, r7
 8005390:	b006      	add	sp, #24
 8005392:	bd80      	pop	{r7, pc}
 8005394:	40021000 	.word	0x40021000
 8005398:	40010000 	.word	0x40010000
 800539c:	48000400 	.word	0x48000400
 80053a0:	48000800 	.word	0x48000800
 80053a4:	48000c00 	.word	0x48000c00
 80053a8:	40010400 	.word	0x40010400

080053ac <HAL_GPIO_ReadPin>:
  * @param  GPIO_Pin specifies the port bit to read.
  *         This parameter can be GPIO_PIN_x where x can be (0..15).
  * @retval The input port pin value.
  */
GPIO_PinState HAL_GPIO_ReadPin(GPIO_TypeDef* GPIOx, uint16_t GPIO_Pin)
{
 80053ac:	b580      	push	{r7, lr}
 80053ae:	b084      	sub	sp, #16
 80053b0:	af00      	add	r7, sp, #0
 80053b2:	6078      	str	r0, [r7, #4]
 80053b4:	000a      	movs	r2, r1
 80053b6:	1cbb      	adds	r3, r7, #2
 80053b8:	801a      	strh	r2, [r3, #0]
  GPIO_PinState bitstatus;

  /* Check the parameters */
  assert_param(IS_GPIO_PIN(GPIO_Pin));

  if ((GPIOx->IDR & GPIO_Pin) != (uint32_t)GPIO_PIN_RESET)
 80053ba:	687b      	ldr	r3, [r7, #4]
 80053bc:	691b      	ldr	r3, [r3, #16]
 80053be:	1cba      	adds	r2, r7, #2
 80053c0:	8812      	ldrh	r2, [r2, #0]
 80053c2:	4013      	ands	r3, r2
 80053c4:	d004      	beq.n	80053d0 <HAL_GPIO_ReadPin+0x24>
  {
    bitstatus = GPIO_PIN_SET;
 80053c6:	230f      	movs	r3, #15
 80053c8:	18fb      	adds	r3, r7, r3
 80053ca:	2201      	movs	r2, #1
 80053cc:	701a      	strb	r2, [r3, #0]
 80053ce:	e003      	b.n	80053d8 <HAL_GPIO_ReadPin+0x2c>
  }
  else
  {
    bitstatus = GPIO_PIN_RESET;
 80053d0:	230f      	movs	r3, #15
 80053d2:	18fb      	adds	r3, r7, r3
 80053d4:	2200      	movs	r2, #0
 80053d6:	701a      	strb	r2, [r3, #0]
  }
  return bitstatus;
 80053d8:	230f      	movs	r3, #15
 80053da:	18fb      	adds	r3, r7, r3
 80053dc:	781b      	ldrb	r3, [r3, #0]
  }
 80053de:	0018      	movs	r0, r3
 80053e0:	46bd      	mov	sp, r7
 80053e2:	b004      	add	sp, #16
 80053e4:	bd80      	pop	{r7, pc}

080053e6 <HAL_GPIO_WritePin>:
  *            @arg GPIO_PIN_RESET: to clear the port pin
  *            @arg GPIO_PIN_SET: to set the port pin
  * @retval None
  */
void HAL_GPIO_WritePin(GPIO_TypeDef* GPIOx, uint16_t GPIO_Pin, GPIO_PinState PinState)
{
 80053e6:	b580      	push	{r7, lr}
 80053e8:	b082      	sub	sp, #8
 80053ea:	af00      	add	r7, sp, #0
 80053ec:	6078      	str	r0, [r7, #4]
 80053ee:	0008      	movs	r0, r1
 80053f0:	0011      	movs	r1, r2
 80053f2:	1cbb      	adds	r3, r7, #2
 80053f4:	1c02      	adds	r2, r0, #0
 80053f6:	801a      	strh	r2, [r3, #0]
 80053f8:	1c7b      	adds	r3, r7, #1
 80053fa:	1c0a      	adds	r2, r1, #0
 80053fc:	701a      	strb	r2, [r3, #0]
  /* Check the parameters */
  assert_param(IS_GPIO_PIN(GPIO_Pin));
  assert_param(IS_GPIO_PIN_ACTION(PinState));

  if (PinState != GPIO_PIN_RESET)
 80053fe:	1c7b      	adds	r3, r7, #1
 8005400:	781b      	ldrb	r3, [r3, #0]
 8005402:	2b00      	cmp	r3, #0
 8005404:	d004      	beq.n	8005410 <HAL_GPIO_WritePin+0x2a>
  {
    GPIOx->BSRR = (uint32_t)GPIO_Pin;
 8005406:	1cbb      	adds	r3, r7, #2
 8005408:	881a      	ldrh	r2, [r3, #0]
 800540a:	687b      	ldr	r3, [r7, #4]
 800540c:	619a      	str	r2, [r3, #24]
  }
  else
  {
    GPIOx->BRR = (uint32_t)GPIO_Pin;
  }
}
 800540e:	e003      	b.n	8005418 <HAL_GPIO_WritePin+0x32>
    GPIOx->BRR = (uint32_t)GPIO_Pin;
 8005410:	1cbb      	adds	r3, r7, #2
 8005412:	881a      	ldrh	r2, [r3, #0]
 8005414:	687b      	ldr	r3, [r7, #4]
 8005416:	629a      	str	r2, [r3, #40]	@ 0x28
}
 8005418:	46c0      	nop			@ (mov r8, r8)
 800541a:	46bd      	mov	sp, r7
 800541c:	b002      	add	sp, #8
 800541e:	bd80      	pop	{r7, pc}

08005420 <HAL_I2C_Init>:
 8005420:	b580      	push	{r7, lr}
 8005422:	b082      	sub	sp, #8
 8005424:	af00      	add	r7, sp, #0
 8005426:	6078      	str	r0, [r7, #4]
 8005428:	687b      	ldr	r3, [r7, #4]
 800542a:	2b00      	cmp	r3, #0
 800542c:	d101      	bne.n	8005432 <HAL_I2C_Init+0x12>
 800542e:	2301      	movs	r3, #1
 8005430:	e08f      	b.n	8005552 <HAL_I2C_Init+0x132>
 8005432:	687b      	ldr	r3, [r7, #4]
 8005434:	2241      	movs	r2, #65	@ 0x41
 8005436:	5c9b      	ldrb	r3, [r3, r2]
 8005438:	b2db      	uxtb	r3, r3
 800543a:	2b00      	cmp	r3, #0
 800543c:	d107      	bne.n	800544e <HAL_I2C_Init+0x2e>
 800543e:	687b      	ldr	r3, [r7, #4]
 8005440:	2240      	movs	r2, #64	@ 0x40
 8005442:	2100      	movs	r1, #0
 8005444:	5499      	strb	r1, [r3, r2]
 8005446:	687b      	ldr	r3, [r7, #4]
 8005448:	0018      	movs	r0, r3
 800544a:	f7ff fbe9 	bl	8004c20 <HAL_I2C_MspInit>
 800544e:	687b      	ldr	r3, [r7, #4]
 8005450:	2241      	movs	r2, #65	@ 0x41
 8005452:	2124      	movs	r1, #36	@ 0x24
 8005454:	5499      	strb	r1, [r3, r2]
 8005456:	687b      	ldr	r3, [r7, #4]
 8005458:	681b      	ldr	r3, [r3, #0]
 800545a:	681a      	ldr	r2, [r3, #0]
 800545c:	687b      	ldr	r3, [r7, #4]
 800545e:	681b      	ldr	r3, [r3, #0]
 8005460:	2101      	movs	r1, #1
 8005462:	438a      	bics	r2, r1
 8005464:	601a      	str	r2, [r3, #0]
 8005466:	687b      	ldr	r3, [r7, #4]
 8005468:	685a      	ldr	r2, [r3, #4]
 800546a:	687b      	ldr	r3, [r7, #4]
 800546c:	681b      	ldr	r3, [r3, #0]
 800546e:	493b      	ldr	r1, [pc, #236]	@ (800555c <HAL_I2C_Init+0x13c>)
 8005470:	400a      	ands	r2, r1
 8005472:	611a      	str	r2, [r3, #16]
 8005474:	687b      	ldr	r3, [r7, #4]
 8005476:	681b      	ldr	r3, [r3, #0]
 8005478:	689a      	ldr	r2, [r3, #8]
 800547a:	687b      	ldr	r3, [r7, #4]
 800547c:	681b      	ldr	r3, [r3, #0]
 800547e:	4938      	ldr	r1, [pc, #224]	@ (8005560 <HAL_I2C_Init+0x140>)
 8005480:	400a      	ands	r2, r1
 8005482:	609a      	str	r2, [r3, #8]
 8005484:	687b      	ldr	r3, [r7, #4]
 8005486:	68db      	ldr	r3, [r3, #12]
 8005488:	2b01      	cmp	r3, #1
 800548a:	d108      	bne.n	800549e <HAL_I2C_Init+0x7e>
 800548c:	687b      	ldr	r3, [r7, #4]
 800548e:	689a      	ldr	r2, [r3, #8]
 8005490:	687b      	ldr	r3, [r7, #4]
 8005492:	681b      	ldr	r3, [r3, #0]
 8005494:	2180      	movs	r1, #128	@ 0x80
 8005496:	0209      	lsls	r1, r1, #8
 8005498:	430a      	orrs	r2, r1
 800549a:	609a      	str	r2, [r3, #8]
 800549c:	e007      	b.n	80054ae <HAL_I2C_Init+0x8e>
 800549e:	687b      	ldr	r3, [r7, #4]
 80054a0:	689a      	ldr	r2, [r3, #8]
 80054a2:	687b      	ldr	r3, [r7, #4]
 80054a4:	681b      	ldr	r3, [r3, #0]
 80054a6:	2184      	movs	r1, #132	@ 0x84
 80054a8:	0209      	lsls	r1, r1, #8
 80054aa:	430a      	orrs	r2, r1
 80054ac:	609a      	str	r2, [r3, #8]
 80054ae:	687b      	ldr	r3, [r7, #4]
 80054b0:	68db      	ldr	r3, [r3, #12]
 80054b2:	2b02      	cmp	r3, #2
 80054b4:	d109      	bne.n	80054ca <HAL_I2C_Init+0xaa>
 80054b6:	687b      	ldr	r3, [r7, #4]
 80054b8:	681b      	ldr	r3, [r3, #0]
 80054ba:	685a      	ldr	r2, [r3, #4]
 80054bc:	687b      	ldr	r3, [r7, #4]
 80054be:	681b      	ldr	r3, [r3, #0]
 80054c0:	2180      	movs	r1, #128	@ 0x80
 80054c2:	0109      	lsls	r1, r1, #4
 80054c4:	430a      	orrs	r2, r1
 80054c6:	605a      	str	r2, [r3, #4]
 80054c8:	e007      	b.n	80054da <HAL_I2C_Init+0xba>
 80054ca:	687b      	ldr	r3, [r7, #4]
 80054cc:	681b      	ldr	r3, [r3, #0]
 80054ce:	685a      	ldr	r2, [r3, #4]
 80054d0:	687b      	ldr	r3, [r7, #4]
 80054d2:	681b      	ldr	r3, [r3, #0]
 80054d4:	4923      	ldr	r1, [pc, #140]	@ (8005564 <HAL_I2C_Init+0x144>)
 80054d6:	400a      	ands	r2, r1
 80054d8:	605a      	str	r2, [r3, #4]
 80054da:	687b      	ldr	r3, [r7, #4]
 80054dc:	681b      	ldr	r3, [r3, #0]
 80054de:	685a      	ldr	r2, [r3, #4]
 80054e0:	687b      	ldr	r3, [r7, #4]
 80054e2:	681b      	ldr	r3, [r3, #0]
 80054e4:	4920      	ldr	r1, [pc, #128]	@ (8005568 <HAL_I2C_Init+0x148>)
 80054e6:	430a      	orrs	r2, r1
 80054e8:	605a      	str	r2, [r3, #4]
 80054ea:	687b      	ldr	r3, [r7, #4]
 80054ec:	681b      	ldr	r3, [r3, #0]
 80054ee:	68da      	ldr	r2, [r3, #12]
 80054f0:	687b      	ldr	r3, [r7, #4]
 80054f2:	681b      	ldr	r3, [r3, #0]
 80054f4:	491a      	ldr	r1, [pc, #104]	@ (8005560 <HAL_I2C_Init+0x140>)
 80054f6:	400a      	ands	r2, r1
 80054f8:	60da      	str	r2, [r3, #12]
 80054fa:	687b      	ldr	r3, [r7, #4]
 80054fc:	691a      	ldr	r2, [r3, #16]
 80054fe:	687b      	ldr	r3, [r7, #4]
 8005500:	695b      	ldr	r3, [r3, #20]
 8005502:	431a      	orrs	r2, r3
 8005504:	0011      	movs	r1, r2
 8005506:	687b      	ldr	r3, [r7, #4]
 8005508:	699b      	ldr	r3, [r3, #24]
 800550a:	021a      	lsls	r2, r3, #8
 800550c:	687b      	ldr	r3, [r7, #4]
 800550e:	681b      	ldr	r3, [r3, #0]
 8005510:	430a      	orrs	r2, r1
 8005512:	60da      	str	r2, [r3, #12]
 8005514:	687b      	ldr	r3, [r7, #4]
 8005516:	69d9      	ldr	r1, [r3, #28]
 8005518:	687b      	ldr	r3, [r7, #4]
 800551a:	6a1a      	ldr	r2, [r3, #32]
 800551c:	687b      	ldr	r3, [r7, #4]
 800551e:	681b      	ldr	r3, [r3, #0]
 8005520:	430a      	orrs	r2, r1
 8005522:	601a      	str	r2, [r3, #0]
 8005524:	687b      	ldr	r3, [r7, #4]
 8005526:	681b      	ldr	r3, [r3, #0]
 8005528:	681a      	ldr	r2, [r3, #0]
 800552a:	687b      	ldr	r3, [r7, #4]
 800552c:	681b      	ldr	r3, [r3, #0]
 800552e:	2101      	movs	r1, #1
 8005530:	430a      	orrs	r2, r1
 8005532:	601a      	str	r2, [r3, #0]
 8005534:	687b      	ldr	r3, [r7, #4]
 8005536:	2200      	movs	r2, #0
 8005538:	645a      	str	r2, [r3, #68]	@ 0x44
 800553a:	687b      	ldr	r3, [r7, #4]
 800553c:	2241      	movs	r2, #65	@ 0x41
 800553e:	2120      	movs	r1, #32
 8005540:	5499      	strb	r1, [r3, r2]
 8005542:	687b      	ldr	r3, [r7, #4]
 8005544:	2200      	movs	r2, #0
 8005546:	631a      	str	r2, [r3, #48]	@ 0x30
 8005548:	687b      	ldr	r3, [r7, #4]
 800554a:	2242      	movs	r2, #66	@ 0x42
 800554c:	2100      	movs	r1, #0
 800554e:	5499      	strb	r1, [r3, r2]
 8005550:	2300      	movs	r3, #0
 8005552:	0018      	movs	r0, r3
 8005554:	46bd      	mov	sp, r7
 8005556:	b002      	add	sp, #8
 8005558:	bd80      	pop	{r7, pc}
 800555a:	46c0      	nop			@ (mov r8, r8)
 800555c:	f0ffffff 	.word	0xf0ffffff
 8005560:	ffff7fff 	.word	0xffff7fff
 8005564:	fffff7ff 	.word	0xfffff7ff
 8005568:	02008000 	.word	0x02008000

0800556c <HAL_I2C_Master_Transmit>:
 800556c:	b590      	push	{r4, r7, lr}
 800556e:	b089      	sub	sp, #36	@ 0x24
 8005570:	af02      	add	r7, sp, #8
 8005572:	60f8      	str	r0, [r7, #12]
 8005574:	0008      	movs	r0, r1
 8005576:	607a      	str	r2, [r7, #4]
 8005578:	0019      	movs	r1, r3
 800557a:	230a      	movs	r3, #10
 800557c:	18fb      	adds	r3, r7, r3
 800557e:	1c02      	adds	r2, r0, #0
 8005580:	801a      	strh	r2, [r3, #0]
 8005582:	2308      	movs	r3, #8
 8005584:	18fb      	adds	r3, r7, r3
 8005586:	1c0a      	adds	r2, r1, #0
 8005588:	801a      	strh	r2, [r3, #0]
 800558a:	68fb      	ldr	r3, [r7, #12]
 800558c:	2241      	movs	r2, #65	@ 0x41
 800558e:	5c9b      	ldrb	r3, [r3, r2]
 8005590:	b2db      	uxtb	r3, r3
 8005592:	2b20      	cmp	r3, #32
 8005594:	d000      	beq.n	8005598 <HAL_I2C_Master_Transmit+0x2c>
 8005596:	e10a      	b.n	80057ae <HAL_I2C_Master_Transmit+0x242>
 8005598:	68fb      	ldr	r3, [r7, #12]
 800559a:	2240      	movs	r2, #64	@ 0x40
 800559c:	5c9b      	ldrb	r3, [r3, r2]
 800559e:	2b01      	cmp	r3, #1
 80055a0:	d101      	bne.n	80055a6 <HAL_I2C_Master_Transmit+0x3a>
 80055a2:	2302      	movs	r3, #2
 80055a4:	e104      	b.n	80057b0 <HAL_I2C_Master_Transmit+0x244>
 80055a6:	68fb      	ldr	r3, [r7, #12]
 80055a8:	2240      	movs	r2, #64	@ 0x40
 80055aa:	2101      	movs	r1, #1
 80055ac:	5499      	strb	r1, [r3, r2]
 80055ae:	f7ff fcab 	bl	8004f08 <HAL_GetTick>
 80055b2:	0003      	movs	r3, r0
 80055b4:	613b      	str	r3, [r7, #16]
 80055b6:	2380      	movs	r3, #128	@ 0x80
 80055b8:	0219      	lsls	r1, r3, #8
 80055ba:	68f8      	ldr	r0, [r7, #12]
 80055bc:	693b      	ldr	r3, [r7, #16]
 80055be:	9300      	str	r3, [sp, #0]
 80055c0:	2319      	movs	r3, #25
 80055c2:	2201      	movs	r2, #1
 80055c4:	f000 fa1a 	bl	80059fc <I2C_WaitOnFlagUntilTimeout>
 80055c8:	1e03      	subs	r3, r0, #0
 80055ca:	d001      	beq.n	80055d0 <HAL_I2C_Master_Transmit+0x64>
 80055cc:	2301      	movs	r3, #1
 80055ce:	e0ef      	b.n	80057b0 <HAL_I2C_Master_Transmit+0x244>
 80055d0:	68fb      	ldr	r3, [r7, #12]
 80055d2:	2241      	movs	r2, #65	@ 0x41
 80055d4:	2121      	movs	r1, #33	@ 0x21
 80055d6:	5499      	strb	r1, [r3, r2]
 80055d8:	68fb      	ldr	r3, [r7, #12]
 80055da:	2242      	movs	r2, #66	@ 0x42
 80055dc:	2110      	movs	r1, #16
 80055de:	5499      	strb	r1, [r3, r2]
 80055e0:	68fb      	ldr	r3, [r7, #12]
 80055e2:	2200      	movs	r2, #0
 80055e4:	645a      	str	r2, [r3, #68]	@ 0x44
 80055e6:	68fb      	ldr	r3, [r7, #12]
 80055e8:	687a      	ldr	r2, [r7, #4]
 80055ea:	625a      	str	r2, [r3, #36]	@ 0x24
 80055ec:	68fb      	ldr	r3, [r7, #12]
 80055ee:	2208      	movs	r2, #8
 80055f0:	18ba      	adds	r2, r7, r2
 80055f2:	8812      	ldrh	r2, [r2, #0]
 80055f4:	855a      	strh	r2, [r3, #42]	@ 0x2a
 80055f6:	68fb      	ldr	r3, [r7, #12]
 80055f8:	2200      	movs	r2, #0
 80055fa:	635a      	str	r2, [r3, #52]	@ 0x34
 80055fc:	68fb      	ldr	r3, [r7, #12]
 80055fe:	8d5b      	ldrh	r3, [r3, #42]	@ 0x2a
 8005600:	b29b      	uxth	r3, r3
 8005602:	2bff      	cmp	r3, #255	@ 0xff
 8005604:	d906      	bls.n	8005614 <HAL_I2C_Master_Transmit+0xa8>
 8005606:	68fb      	ldr	r3, [r7, #12]
 8005608:	22ff      	movs	r2, #255	@ 0xff
 800560a:	851a      	strh	r2, [r3, #40]	@ 0x28
 800560c:	2380      	movs	r3, #128	@ 0x80
 800560e:	045b      	lsls	r3, r3, #17
 8005610:	617b      	str	r3, [r7, #20]
 8005612:	e007      	b.n	8005624 <HAL_I2C_Master_Transmit+0xb8>
 8005614:	68fb      	ldr	r3, [r7, #12]
 8005616:	8d5b      	ldrh	r3, [r3, #42]	@ 0x2a
 8005618:	b29a      	uxth	r2, r3
 800561a:	68fb      	ldr	r3, [r7, #12]
 800561c:	851a      	strh	r2, [r3, #40]	@ 0x28
 800561e:	2380      	movs	r3, #128	@ 0x80
 8005620:	049b      	lsls	r3, r3, #18
 8005622:	617b      	str	r3, [r7, #20]
 8005624:	68fb      	ldr	r3, [r7, #12]
 8005626:	8d1b      	ldrh	r3, [r3, #40]	@ 0x28
 8005628:	2b00      	cmp	r3, #0
 800562a:	d027      	beq.n	800567c <HAL_I2C_Master_Transmit+0x110>
 800562c:	68fb      	ldr	r3, [r7, #12]
 800562e:	6a5b      	ldr	r3, [r3, #36]	@ 0x24
 8005630:	781a      	ldrb	r2, [r3, #0]
 8005632:	68fb      	ldr	r3, [r7, #12]
 8005634:	681b      	ldr	r3, [r3, #0]
 8005636:	629a      	str	r2, [r3, #40]	@ 0x28
 8005638:	68fb      	ldr	r3, [r7, #12]
 800563a:	6a5b      	ldr	r3, [r3, #36]	@ 0x24
 800563c:	1c5a      	adds	r2, r3, #1
 800563e:	68fb      	ldr	r3, [r7, #12]
 8005640:	625a      	str	r2, [r3, #36]	@ 0x24
 8005642:	68fb      	ldr	r3, [r7, #12]
 8005644:	8d5b      	ldrh	r3, [r3, #42]	@ 0x2a
 8005646:	b29b      	uxth	r3, r3
 8005648:	3b01      	subs	r3, #1
 800564a:	b29a      	uxth	r2, r3
 800564c:	68fb      	ldr	r3, [r7, #12]
 800564e:	855a      	strh	r2, [r3, #42]	@ 0x2a
 8005650:	68fb      	ldr	r3, [r7, #12]
 8005652:	8d1b      	ldrh	r3, [r3, #40]	@ 0x28
 8005654:	3b01      	subs	r3, #1
 8005656:	b29a      	uxth	r2, r3
 8005658:	68fb      	ldr	r3, [r7, #12]
 800565a:	851a      	strh	r2, [r3, #40]	@ 0x28
 800565c:	68fb      	ldr	r3, [r7, #12]
 800565e:	8d1b      	ldrh	r3, [r3, #40]	@ 0x28
 8005660:	b2db      	uxtb	r3, r3
 8005662:	3301      	adds	r3, #1
 8005664:	b2da      	uxtb	r2, r3
 8005666:	697c      	ldr	r4, [r7, #20]
 8005668:	230a      	movs	r3, #10
 800566a:	18fb      	adds	r3, r7, r3
 800566c:	8819      	ldrh	r1, [r3, #0]
 800566e:	68f8      	ldr	r0, [r7, #12]
 8005670:	4b51      	ldr	r3, [pc, #324]	@ (80057b8 <HAL_I2C_Master_Transmit+0x24c>)
 8005672:	9300      	str	r3, [sp, #0]
 8005674:	0023      	movs	r3, r4
 8005676:	f000 fb9b 	bl	8005db0 <I2C_TransferConfig>
 800567a:	e06f      	b.n	800575c <HAL_I2C_Master_Transmit+0x1f0>
 800567c:	68fb      	ldr	r3, [r7, #12]
 800567e:	8d1b      	ldrh	r3, [r3, #40]	@ 0x28
 8005680:	b2da      	uxtb	r2, r3
 8005682:	697c      	ldr	r4, [r7, #20]
 8005684:	230a      	movs	r3, #10
 8005686:	18fb      	adds	r3, r7, r3
 8005688:	8819      	ldrh	r1, [r3, #0]
 800568a:	68f8      	ldr	r0, [r7, #12]
 800568c:	4b4a      	ldr	r3, [pc, #296]	@ (80057b8 <HAL_I2C_Master_Transmit+0x24c>)
 800568e:	9300      	str	r3, [sp, #0]
 8005690:	0023      	movs	r3, r4
 8005692:	f000 fb8d 	bl	8005db0 <I2C_TransferConfig>
 8005696:	e061      	b.n	800575c <HAL_I2C_Master_Transmit+0x1f0>
 8005698:	693a      	ldr	r2, [r7, #16]
 800569a:	6ab9      	ldr	r1, [r7, #40]	@ 0x28
 800569c:	68fb      	ldr	r3, [r7, #12]
 800569e:	0018      	movs	r0, r3
 80056a0:	f000 fa04 	bl	8005aac <I2C_WaitOnTXISFlagUntilTimeout>
 80056a4:	1e03      	subs	r3, r0, #0
 80056a6:	d001      	beq.n	80056ac <HAL_I2C_Master_Transmit+0x140>
 80056a8:	2301      	movs	r3, #1
 80056aa:	e081      	b.n	80057b0 <HAL_I2C_Master_Transmit+0x244>
 80056ac:	68fb      	ldr	r3, [r7, #12]
 80056ae:	6a5b      	ldr	r3, [r3, #36]	@ 0x24
 80056b0:	781a      	ldrb	r2, [r3, #0]
 80056b2:	68fb      	ldr	r3, [r7, #12]
 80056b4:	681b      	ldr	r3, [r3, #0]
 80056b6:	629a      	str	r2, [r3, #40]	@ 0x28
 80056b8:	68fb      	ldr	r3, [r7, #12]
 80056ba:	6a5b      	ldr	r3, [r3, #36]	@ 0x24
 80056bc:	1c5a      	adds	r2, r3, #1
 80056be:	68fb      	ldr	r3, [r7, #12]
 80056c0:	625a      	str	r2, [r3, #36]	@ 0x24
 80056c2:	68fb      	ldr	r3, [r7, #12]
 80056c4:	8d5b      	ldrh	r3, [r3, #42]	@ 0x2a
 80056c6:	b29b      	uxth	r3, r3
 80056c8:	3b01      	subs	r3, #1
 80056ca:	b29a      	uxth	r2, r3
 80056cc:	68fb      	ldr	r3, [r7, #12]
 80056ce:	855a      	strh	r2, [r3, #42]	@ 0x2a
 80056d0:	68fb      	ldr	r3, [r7, #12]
 80056d2:	8d1b      	ldrh	r3, [r3, #40]	@ 0x28
 80056d4:	3b01      	subs	r3, #1
 80056d6:	b29a      	uxth	r2, r3
 80056d8:	68fb      	ldr	r3, [r7, #12]
 80056da:	851a      	strh	r2, [r3, #40]	@ 0x28
 80056dc:	68fb      	ldr	r3, [r7, #12]
 80056de:	8d5b      	ldrh	r3, [r3, #42]	@ 0x2a
 80056e0:	b29b      	uxth	r3, r3
 80056e2:	2b00      	cmp	r3, #0
 80056e4:	d03a      	beq.n	800575c <HAL_I2C_Master_Transmit+0x1f0>
 80056e6:	68fb      	ldr	r3, [r7, #12]
 80056e8:	8d1b      	ldrh	r3, [r3, #40]	@ 0x28
 80056ea:	2b00      	cmp	r3, #0
 80056ec:	d136      	bne.n	800575c <HAL_I2C_Master_Transmit+0x1f0>
 80056ee:	6aba      	ldr	r2, [r7, #40]	@ 0x28
 80056f0:	68f8      	ldr	r0, [r7, #12]
 80056f2:	693b      	ldr	r3, [r7, #16]
 80056f4:	9300      	str	r3, [sp, #0]
 80056f6:	0013      	movs	r3, r2
 80056f8:	2200      	movs	r2, #0
 80056fa:	2180      	movs	r1, #128	@ 0x80
 80056fc:	f000 f97e 	bl	80059fc <I2C_WaitOnFlagUntilTimeout>
 8005700:	1e03      	subs	r3, r0, #0
 8005702:	d001      	beq.n	8005708 <HAL_I2C_Master_Transmit+0x19c>
 8005704:	2301      	movs	r3, #1
 8005706:	e053      	b.n	80057b0 <HAL_I2C_Master_Transmit+0x244>
 8005708:	68fb      	ldr	r3, [r7, #12]
 800570a:	8d5b      	ldrh	r3, [r3, #42]	@ 0x2a
 800570c:	b29b      	uxth	r3, r3
 800570e:	2bff      	cmp	r3, #255	@ 0xff
 8005710:	d911      	bls.n	8005736 <HAL_I2C_Master_Transmit+0x1ca>
 8005712:	68fb      	ldr	r3, [r7, #12]
 8005714:	22ff      	movs	r2, #255	@ 0xff
 8005716:	851a      	strh	r2, [r3, #40]	@ 0x28
 8005718:	68fb      	ldr	r3, [r7, #12]
 800571a:	8d1b      	ldrh	r3, [r3, #40]	@ 0x28
 800571c:	b2da      	uxtb	r2, r3
 800571e:	2380      	movs	r3, #128	@ 0x80
 8005720:	045c      	lsls	r4, r3, #17
 8005722:	230a      	movs	r3, #10
 8005724:	18fb      	adds	r3, r7, r3
 8005726:	8819      	ldrh	r1, [r3, #0]
 8005728:	68f8      	ldr	r0, [r7, #12]
 800572a:	2300      	movs	r3, #0
 800572c:	9300      	str	r3, [sp, #0]
 800572e:	0023      	movs	r3, r4
 8005730:	f000 fb3e 	bl	8005db0 <I2C_TransferConfig>
 8005734:	e012      	b.n	800575c <HAL_I2C_Master_Transmit+0x1f0>
 8005736:	68fb      	ldr	r3, [r7, #12]
 8005738:	8d5b      	ldrh	r3, [r3, #42]	@ 0x2a
 800573a:	b29a      	uxth	r2, r3
 800573c:	68fb      	ldr	r3, [r7, #12]
 800573e:	851a      	strh	r2, [r3, #40]	@ 0x28
 8005740:	68fb      	ldr	r3, [r7, #12]
 8005742:	8d1b      	ldrh	r3, [r3, #40]	@ 0x28
 8005744:	b2da      	uxtb	r2, r3
 8005746:	2380      	movs	r3, #128	@ 0x80
 8005748:	049c      	lsls	r4, r3, #18
 800574a:	230a      	movs	r3, #10
 800574c:	18fb      	adds	r3, r7, r3
 800574e:	8819      	ldrh	r1, [r3, #0]
 8005750:	68f8      	ldr	r0, [r7, #12]
 8005752:	2300      	movs	r3, #0
 8005754:	9300      	str	r3, [sp, #0]
 8005756:	0023      	movs	r3, r4
 8005758:	f000 fb2a 	bl	8005db0 <I2C_TransferConfig>
 800575c:	68fb      	ldr	r3, [r7, #12]
 800575e:	8d5b      	ldrh	r3, [r3, #42]	@ 0x2a
 8005760:	b29b      	uxth	r3, r3
 8005762:	2b00      	cmp	r3, #0
 8005764:	d198      	bne.n	8005698 <HAL_I2C_Master_Transmit+0x12c>
 8005766:	693a      	ldr	r2, [r7, #16]
 8005768:	6ab9      	ldr	r1, [r7, #40]	@ 0x28
 800576a:	68fb      	ldr	r3, [r7, #12]
 800576c:	0018      	movs	r0, r3
 800576e:	f000 f9e3 	bl	8005b38 <I2C_WaitOnSTOPFlagUntilTimeout>
 8005772:	1e03      	subs	r3, r0, #0
 8005774:	d001      	beq.n	800577a <HAL_I2C_Master_Transmit+0x20e>
 8005776:	2301      	movs	r3, #1
 8005778:	e01a      	b.n	80057b0 <HAL_I2C_Master_Transmit+0x244>
 800577a:	68fb      	ldr	r3, [r7, #12]
 800577c:	681b      	ldr	r3, [r3, #0]
 800577e:	2220      	movs	r2, #32
 8005780:	61da      	str	r2, [r3, #28]
 8005782:	68fb      	ldr	r3, [r7, #12]
 8005784:	681b      	ldr	r3, [r3, #0]
 8005786:	685a      	ldr	r2, [r3, #4]
 8005788:	68fb      	ldr	r3, [r7, #12]
 800578a:	681b      	ldr	r3, [r3, #0]
 800578c:	490b      	ldr	r1, [pc, #44]	@ (80057bc <HAL_I2C_Master_Transmit+0x250>)
 800578e:	400a      	ands	r2, r1
 8005790:	605a      	str	r2, [r3, #4]
 8005792:	68fb      	ldr	r3, [r7, #12]
 8005794:	2241      	movs	r2, #65	@ 0x41
 8005796:	2120      	movs	r1, #32
 8005798:	5499      	strb	r1, [r3, r2]
 800579a:	68fb      	ldr	r3, [r7, #12]
 800579c:	2242      	movs	r2, #66	@ 0x42
 800579e:	2100      	movs	r1, #0
 80057a0:	5499      	strb	r1, [r3, r2]
 80057a2:	68fb      	ldr	r3, [r7, #12]
 80057a4:	2240      	movs	r2, #64	@ 0x40
 80057a6:	2100      	movs	r1, #0
 80057a8:	5499      	strb	r1, [r3, r2]
 80057aa:	2300      	movs	r3, #0
 80057ac:	e000      	b.n	80057b0 <HAL_I2C_Master_Transmit+0x244>
 80057ae:	2302      	movs	r3, #2
 80057b0:	0018      	movs	r0, r3
 80057b2:	46bd      	mov	sp, r7
 80057b4:	b007      	add	sp, #28
 80057b6:	bd90      	pop	{r4, r7, pc}
 80057b8:	80002000 	.word	0x80002000
 80057bc:	fe00e800 	.word	0xfe00e800

080057c0 <HAL_I2C_IsDeviceReady>:
 80057c0:	b580      	push	{r7, lr}
 80057c2:	b08a      	sub	sp, #40	@ 0x28
 80057c4:	af02      	add	r7, sp, #8
 80057c6:	60f8      	str	r0, [r7, #12]
 80057c8:	607a      	str	r2, [r7, #4]
 80057ca:	603b      	str	r3, [r7, #0]
 80057cc:	230a      	movs	r3, #10
 80057ce:	18fb      	adds	r3, r7, r3
 80057d0:	1c0a      	adds	r2, r1, #0
 80057d2:	801a      	strh	r2, [r3, #0]
 80057d4:	2300      	movs	r3, #0
 80057d6:	617b      	str	r3, [r7, #20]
 80057d8:	68fb      	ldr	r3, [r7, #12]
 80057da:	2241      	movs	r2, #65	@ 0x41
 80057dc:	5c9b      	ldrb	r3, [r3, r2]
 80057de:	b2db      	uxtb	r3, r3
 80057e0:	2b20      	cmp	r3, #32
 80057e2:	d000      	beq.n	80057e6 <HAL_I2C_IsDeviceReady+0x26>
 80057e4:	e0df      	b.n	80059a6 <HAL_I2C_IsDeviceReady+0x1e6>
 80057e6:	68fb      	ldr	r3, [r7, #12]
 80057e8:	681b      	ldr	r3, [r3, #0]
 80057ea:	699a      	ldr	r2, [r3, #24]
 80057ec:	2380      	movs	r3, #128	@ 0x80
 80057ee:	021b      	lsls	r3, r3, #8
 80057f0:	401a      	ands	r2, r3
 80057f2:	2380      	movs	r3, #128	@ 0x80
 80057f4:	021b      	lsls	r3, r3, #8
 80057f6:	429a      	cmp	r2, r3
 80057f8:	d101      	bne.n	80057fe <HAL_I2C_IsDeviceReady+0x3e>
 80057fa:	2302      	movs	r3, #2
 80057fc:	e0d4      	b.n	80059a8 <HAL_I2C_IsDeviceReady+0x1e8>
 80057fe:	68fb      	ldr	r3, [r7, #12]
 8005800:	2240      	movs	r2, #64	@ 0x40
 8005802:	5c9b      	ldrb	r3, [r3, r2]
 8005804:	2b01      	cmp	r3, #1
 8005806:	d101      	bne.n	800580c <HAL_I2C_IsDeviceReady+0x4c>
 8005808:	2302      	movs	r3, #2
 800580a:	e0cd      	b.n	80059a8 <HAL_I2C_IsDeviceReady+0x1e8>
 800580c:	68fb      	ldr	r3, [r7, #12]
 800580e:	2240      	movs	r2, #64	@ 0x40
 8005810:	2101      	movs	r1, #1
 8005812:	5499      	strb	r1, [r3, r2]
 8005814:	68fb      	ldr	r3, [r7, #12]
 8005816:	2241      	movs	r2, #65	@ 0x41
 8005818:	2124      	movs	r1, #36	@ 0x24
 800581a:	5499      	strb	r1, [r3, r2]
 800581c:	68fb      	ldr	r3, [r7, #12]
 800581e:	2200      	movs	r2, #0
 8005820:	645a      	str	r2, [r3, #68]	@ 0x44
 8005822:	68fb      	ldr	r3, [r7, #12]
 8005824:	68db      	ldr	r3, [r3, #12]
 8005826:	2b01      	cmp	r3, #1
 8005828:	d107      	bne.n	800583a <HAL_I2C_IsDeviceReady+0x7a>
 800582a:	230a      	movs	r3, #10
 800582c:	18fb      	adds	r3, r7, r3
 800582e:	881b      	ldrh	r3, [r3, #0]
 8005830:	059b      	lsls	r3, r3, #22
 8005832:	0d9b      	lsrs	r3, r3, #22
 8005834:	4a5e      	ldr	r2, [pc, #376]	@ (80059b0 <HAL_I2C_IsDeviceReady+0x1f0>)
 8005836:	431a      	orrs	r2, r3
 8005838:	e006      	b.n	8005848 <HAL_I2C_IsDeviceReady+0x88>
 800583a:	230a      	movs	r3, #10
 800583c:	18fb      	adds	r3, r7, r3
 800583e:	881b      	ldrh	r3, [r3, #0]
 8005840:	059b      	lsls	r3, r3, #22
 8005842:	0d9b      	lsrs	r3, r3, #22
 8005844:	4a5b      	ldr	r2, [pc, #364]	@ (80059b4 <HAL_I2C_IsDeviceReady+0x1f4>)
 8005846:	431a      	orrs	r2, r3
 8005848:	68fb      	ldr	r3, [r7, #12]
 800584a:	681b      	ldr	r3, [r3, #0]
 800584c:	605a      	str	r2, [r3, #4]
 800584e:	f7ff fb5b 	bl	8004f08 <HAL_GetTick>
 8005852:	0003      	movs	r3, r0
 8005854:	61bb      	str	r3, [r7, #24]
 8005856:	68fb      	ldr	r3, [r7, #12]
 8005858:	681b      	ldr	r3, [r3, #0]
 800585a:	699b      	ldr	r3, [r3, #24]
 800585c:	2220      	movs	r2, #32
 800585e:	4013      	ands	r3, r2
 8005860:	3b20      	subs	r3, #32
 8005862:	425a      	negs	r2, r3
 8005864:	4153      	adcs	r3, r2
 8005866:	b2da      	uxtb	r2, r3
 8005868:	231f      	movs	r3, #31
 800586a:	18fb      	adds	r3, r7, r3
 800586c:	701a      	strb	r2, [r3, #0]
 800586e:	68fb      	ldr	r3, [r7, #12]
 8005870:	681b      	ldr	r3, [r3, #0]
 8005872:	699b      	ldr	r3, [r3, #24]
 8005874:	2210      	movs	r2, #16
 8005876:	4013      	ands	r3, r2
 8005878:	3b10      	subs	r3, #16
 800587a:	425a      	negs	r2, r3
 800587c:	4153      	adcs	r3, r2
 800587e:	b2da      	uxtb	r2, r3
 8005880:	231e      	movs	r3, #30
 8005882:	18fb      	adds	r3, r7, r3
 8005884:	701a      	strb	r2, [r3, #0]
 8005886:	e035      	b.n	80058f4 <HAL_I2C_IsDeviceReady+0x134>
 8005888:	683b      	ldr	r3, [r7, #0]
 800588a:	3301      	adds	r3, #1
 800588c:	d01a      	beq.n	80058c4 <HAL_I2C_IsDeviceReady+0x104>
 800588e:	f7ff fb3b 	bl	8004f08 <HAL_GetTick>
 8005892:	0002      	movs	r2, r0
 8005894:	69bb      	ldr	r3, [r7, #24]
 8005896:	1ad3      	subs	r3, r2, r3
 8005898:	683a      	ldr	r2, [r7, #0]
 800589a:	429a      	cmp	r2, r3
 800589c:	d302      	bcc.n	80058a4 <HAL_I2C_IsDeviceReady+0xe4>
 800589e:	683b      	ldr	r3, [r7, #0]
 80058a0:	2b00      	cmp	r3, #0
 80058a2:	d10f      	bne.n	80058c4 <HAL_I2C_IsDeviceReady+0x104>
 80058a4:	68fb      	ldr	r3, [r7, #12]
 80058a6:	2241      	movs	r2, #65	@ 0x41
 80058a8:	2120      	movs	r1, #32
 80058aa:	5499      	strb	r1, [r3, r2]
 80058ac:	68fb      	ldr	r3, [r7, #12]
 80058ae:	6c5b      	ldr	r3, [r3, #68]	@ 0x44
 80058b0:	2220      	movs	r2, #32
 80058b2:	431a      	orrs	r2, r3
 80058b4:	68fb      	ldr	r3, [r7, #12]
 80058b6:	645a      	str	r2, [r3, #68]	@ 0x44
 80058b8:	68fb      	ldr	r3, [r7, #12]
 80058ba:	2240      	movs	r2, #64	@ 0x40
 80058bc:	2100      	movs	r1, #0
 80058be:	5499      	strb	r1, [r3, r2]
 80058c0:	2301      	movs	r3, #1
 80058c2:	e071      	b.n	80059a8 <HAL_I2C_IsDeviceReady+0x1e8>
 80058c4:	68fb      	ldr	r3, [r7, #12]
 80058c6:	681b      	ldr	r3, [r3, #0]
 80058c8:	699b      	ldr	r3, [r3, #24]
 80058ca:	2220      	movs	r2, #32
 80058cc:	4013      	ands	r3, r2
 80058ce:	3b20      	subs	r3, #32
 80058d0:	425a      	negs	r2, r3
 80058d2:	4153      	adcs	r3, r2
 80058d4:	b2da      	uxtb	r2, r3
 80058d6:	231f      	movs	r3, #31
 80058d8:	18fb      	adds	r3, r7, r3
 80058da:	701a      	strb	r2, [r3, #0]
 80058dc:	68fb      	ldr	r3, [r7, #12]
 80058de:	681b      	ldr	r3, [r3, #0]
 80058e0:	699b      	ldr	r3, [r3, #24]
 80058e2:	2210      	movs	r2, #16
 80058e4:	4013      	ands	r3, r2
 80058e6:	3b10      	subs	r3, #16
 80058e8:	425a      	negs	r2, r3
 80058ea:	4153      	adcs	r3, r2
 80058ec:	b2da      	uxtb	r2, r3
 80058ee:	231e      	movs	r3, #30
 80058f0:	18fb      	adds	r3, r7, r3
 80058f2:	701a      	strb	r2, [r3, #0]
 80058f4:	231f      	movs	r3, #31
 80058f6:	18fb      	adds	r3, r7, r3
 80058f8:	781b      	ldrb	r3, [r3, #0]
 80058fa:	2b00      	cmp	r3, #0
 80058fc:	d104      	bne.n	8005908 <HAL_I2C_IsDeviceReady+0x148>
 80058fe:	231e      	movs	r3, #30
 8005900:	18fb      	adds	r3, r7, r3
 8005902:	781b      	ldrb	r3, [r3, #0]
 8005904:	2b00      	cmp	r3, #0
 8005906:	d0bf      	beq.n	8005888 <HAL_I2C_IsDeviceReady+0xc8>
 8005908:	68fb      	ldr	r3, [r7, #12]
 800590a:	681b      	ldr	r3, [r3, #0]
 800590c:	699b      	ldr	r3, [r3, #24]
 800590e:	2210      	movs	r2, #16
 8005910:	4013      	ands	r3, r2
 8005912:	2b10      	cmp	r3, #16
 8005914:	d01a      	beq.n	800594c <HAL_I2C_IsDeviceReady+0x18c>
 8005916:	683a      	ldr	r2, [r7, #0]
 8005918:	68f8      	ldr	r0, [r7, #12]
 800591a:	69bb      	ldr	r3, [r7, #24]
 800591c:	9300      	str	r3, [sp, #0]
 800591e:	0013      	movs	r3, r2
 8005920:	2200      	movs	r2, #0
 8005922:	2120      	movs	r1, #32
 8005924:	f000 f86a 	bl	80059fc <I2C_WaitOnFlagUntilTimeout>
 8005928:	1e03      	subs	r3, r0, #0
 800592a:	d001      	beq.n	8005930 <HAL_I2C_IsDeviceReady+0x170>
 800592c:	2301      	movs	r3, #1
 800592e:	e03b      	b.n	80059a8 <HAL_I2C_IsDeviceReady+0x1e8>
 8005930:	68fb      	ldr	r3, [r7, #12]
 8005932:	681b      	ldr	r3, [r3, #0]
 8005934:	2220      	movs	r2, #32
 8005936:	61da      	str	r2, [r3, #28]
 8005938:	68fb      	ldr	r3, [r7, #12]
 800593a:	2241      	movs	r2, #65	@ 0x41
 800593c:	2120      	movs	r1, #32
 800593e:	5499      	strb	r1, [r3, r2]
 8005940:	68fb      	ldr	r3, [r7, #12]
 8005942:	2240      	movs	r2, #64	@ 0x40
 8005944:	2100      	movs	r1, #0
 8005946:	5499      	strb	r1, [r3, r2]
 8005948:	2300      	movs	r3, #0
 800594a:	e02d      	b.n	80059a8 <HAL_I2C_IsDeviceReady+0x1e8>
 800594c:	683a      	ldr	r2, [r7, #0]
 800594e:	68f8      	ldr	r0, [r7, #12]
 8005950:	69bb      	ldr	r3, [r7, #24]
 8005952:	9300      	str	r3, [sp, #0]
 8005954:	0013      	movs	r3, r2
 8005956:	2200      	movs	r2, #0
 8005958:	2120      	movs	r1, #32
 800595a:	f000 f84f 	bl	80059fc <I2C_WaitOnFlagUntilTimeout>
 800595e:	1e03      	subs	r3, r0, #0
 8005960:	d001      	beq.n	8005966 <HAL_I2C_IsDeviceReady+0x1a6>
 8005962:	2301      	movs	r3, #1
 8005964:	e020      	b.n	80059a8 <HAL_I2C_IsDeviceReady+0x1e8>
 8005966:	68fb      	ldr	r3, [r7, #12]
 8005968:	681b      	ldr	r3, [r3, #0]
 800596a:	2210      	movs	r2, #16
 800596c:	61da      	str	r2, [r3, #28]
 800596e:	68fb      	ldr	r3, [r7, #12]
 8005970:	681b      	ldr	r3, [r3, #0]
 8005972:	2220      	movs	r2, #32
 8005974:	61da      	str	r2, [r3, #28]
 8005976:	697b      	ldr	r3, [r7, #20]
 8005978:	3301      	adds	r3, #1
 800597a:	617b      	str	r3, [r7, #20]
 800597c:	697b      	ldr	r3, [r7, #20]
 800597e:	687a      	ldr	r2, [r7, #4]
 8005980:	429a      	cmp	r2, r3
 8005982:	d900      	bls.n	8005986 <HAL_I2C_IsDeviceReady+0x1c6>
 8005984:	e74d      	b.n	8005822 <HAL_I2C_IsDeviceReady+0x62>
 8005986:	68fb      	ldr	r3, [r7, #12]
 8005988:	2241      	movs	r2, #65	@ 0x41
 800598a:	2120      	movs	r1, #32
 800598c:	5499      	strb	r1, [r3, r2]
 800598e:	68fb      	ldr	r3, [r7, #12]
 8005990:	6c5b      	ldr	r3, [r3, #68]	@ 0x44
 8005992:	2220      	movs	r2, #32
 8005994:	431a      	orrs	r2, r3
 8005996:	68fb      	ldr	r3, [r7, #12]
 8005998:	645a      	str	r2, [r3, #68]	@ 0x44
 800599a:	68fb      	ldr	r3, [r7, #12]
 800599c:	2240      	movs	r2, #64	@ 0x40
 800599e:	2100      	movs	r1, #0
 80059a0:	5499      	strb	r1, [r3, r2]
 80059a2:	2301      	movs	r3, #1
 80059a4:	e000      	b.n	80059a8 <HAL_I2C_IsDeviceReady+0x1e8>
 80059a6:	2302      	movs	r3, #2
 80059a8:	0018      	movs	r0, r3
 80059aa:	46bd      	mov	sp, r7
 80059ac:	b008      	add	sp, #32
 80059ae:	bd80      	pop	{r7, pc}
 80059b0:	02002000 	.word	0x02002000
 80059b4:	02002800 	.word	0x02002800

080059b8 <I2C_Flush_TXDR>:
 80059b8:	b580      	push	{r7, lr}
 80059ba:	b082      	sub	sp, #8
 80059bc:	af00      	add	r7, sp, #0
 80059be:	6078      	str	r0, [r7, #4]
 80059c0:	687b      	ldr	r3, [r7, #4]
 80059c2:	681b      	ldr	r3, [r3, #0]
 80059c4:	699b      	ldr	r3, [r3, #24]
 80059c6:	2202      	movs	r2, #2
 80059c8:	4013      	ands	r3, r2
 80059ca:	2b02      	cmp	r3, #2
 80059cc:	d103      	bne.n	80059d6 <I2C_Flush_TXDR+0x1e>
 80059ce:	687b      	ldr	r3, [r7, #4]
 80059d0:	681b      	ldr	r3, [r3, #0]
 80059d2:	2200      	movs	r2, #0
 80059d4:	629a      	str	r2, [r3, #40]	@ 0x28
 80059d6:	687b      	ldr	r3, [r7, #4]
 80059d8:	681b      	ldr	r3, [r3, #0]
 80059da:	699b      	ldr	r3, [r3, #24]
 80059dc:	2201      	movs	r2, #1
 80059de:	4013      	ands	r3, r2
 80059e0:	2b01      	cmp	r3, #1
 80059e2:	d007      	beq.n	80059f4 <I2C_Flush_TXDR+0x3c>
 80059e4:	687b      	ldr	r3, [r7, #4]
 80059e6:	681b      	ldr	r3, [r3, #0]
 80059e8:	699a      	ldr	r2, [r3, #24]
 80059ea:	687b      	ldr	r3, [r7, #4]
 80059ec:	681b      	ldr	r3, [r3, #0]
 80059ee:	2101      	movs	r1, #1
 80059f0:	430a      	orrs	r2, r1
 80059f2:	619a      	str	r2, [r3, #24]
 80059f4:	46c0      	nop			@ (mov r8, r8)
 80059f6:	46bd      	mov	sp, r7
 80059f8:	b002      	add	sp, #8
 80059fa:	bd80      	pop	{r7, pc}

080059fc <I2C_WaitOnFlagUntilTimeout>:
 80059fc:	b580      	push	{r7, lr}
 80059fe:	b084      	sub	sp, #16
 8005a00:	af00      	add	r7, sp, #0
 8005a02:	60f8      	str	r0, [r7, #12]
 8005a04:	60b9      	str	r1, [r7, #8]
 8005a06:	603b      	str	r3, [r7, #0]
 8005a08:	1dfb      	adds	r3, r7, #7
 8005a0a:	701a      	strb	r2, [r3, #0]
 8005a0c:	e03a      	b.n	8005a84 <I2C_WaitOnFlagUntilTimeout+0x88>
 8005a0e:	69ba      	ldr	r2, [r7, #24]
 8005a10:	6839      	ldr	r1, [r7, #0]
 8005a12:	68fb      	ldr	r3, [r7, #12]
 8005a14:	0018      	movs	r0, r3
 8005a16:	f000 f8d3 	bl	8005bc0 <I2C_IsErrorOccurred>
 8005a1a:	1e03      	subs	r3, r0, #0
 8005a1c:	d001      	beq.n	8005a22 <I2C_WaitOnFlagUntilTimeout+0x26>
 8005a1e:	2301      	movs	r3, #1
 8005a20:	e040      	b.n	8005aa4 <I2C_WaitOnFlagUntilTimeout+0xa8>
 8005a22:	683b      	ldr	r3, [r7, #0]
 8005a24:	3301      	adds	r3, #1
 8005a26:	d02d      	beq.n	8005a84 <I2C_WaitOnFlagUntilTimeout+0x88>
 8005a28:	f7ff fa6e 	bl	8004f08 <HAL_GetTick>
 8005a2c:	0002      	movs	r2, r0
 8005a2e:	69bb      	ldr	r3, [r7, #24]
 8005a30:	1ad3      	subs	r3, r2, r3
 8005a32:	683a      	ldr	r2, [r7, #0]
 8005a34:	429a      	cmp	r2, r3
 8005a36:	d302      	bcc.n	8005a3e <I2C_WaitOnFlagUntilTimeout+0x42>
 8005a38:	683b      	ldr	r3, [r7, #0]
 8005a3a:	2b00      	cmp	r3, #0
 8005a3c:	d122      	bne.n	8005a84 <I2C_WaitOnFlagUntilTimeout+0x88>
 8005a3e:	68fb      	ldr	r3, [r7, #12]
 8005a40:	681b      	ldr	r3, [r3, #0]
 8005a42:	699b      	ldr	r3, [r3, #24]
 8005a44:	68ba      	ldr	r2, [r7, #8]
 8005a46:	4013      	ands	r3, r2
 8005a48:	68ba      	ldr	r2, [r7, #8]
 8005a4a:	1ad3      	subs	r3, r2, r3
 8005a4c:	425a      	negs	r2, r3
 8005a4e:	4153      	adcs	r3, r2
 8005a50:	b2db      	uxtb	r3, r3
 8005a52:	001a      	movs	r2, r3
 8005a54:	1dfb      	adds	r3, r7, #7
 8005a56:	781b      	ldrb	r3, [r3, #0]
 8005a58:	429a      	cmp	r2, r3
 8005a5a:	d113      	bne.n	8005a84 <I2C_WaitOnFlagUntilTimeout+0x88>
 8005a5c:	68fb      	ldr	r3, [r7, #12]
 8005a5e:	6c5b      	ldr	r3, [r3, #68]	@ 0x44
 8005a60:	2220      	movs	r2, #32
 8005a62:	431a      	orrs	r2, r3
 8005a64:	68fb      	ldr	r3, [r7, #12]
 8005a66:	645a      	str	r2, [r3, #68]	@ 0x44
 8005a68:	68fb      	ldr	r3, [r7, #12]
 8005a6a:	2241      	movs	r2, #65	@ 0x41
 8005a6c:	2120      	movs	r1, #32
 8005a6e:	5499      	strb	r1, [r3, r2]
 8005a70:	68fb      	ldr	r3, [r7, #12]
 8005a72:	2242      	movs	r2, #66	@ 0x42
 8005a74:	2100      	movs	r1, #0
 8005a76:	5499      	strb	r1, [r3, r2]
 8005a78:	68fb      	ldr	r3, [r7, #12]
 8005a7a:	2240      	movs	r2, #64	@ 0x40
 8005a7c:	2100      	movs	r1, #0
 8005a7e:	5499      	strb	r1, [r3, r2]
 8005a80:	2301      	movs	r3, #1
 8005a82:	e00f      	b.n	8005aa4 <I2C_WaitOnFlagUntilTimeout+0xa8>
 8005a84:	68fb      	ldr	r3, [r7, #12]
 8005a86:	681b      	ldr	r3, [r3, #0]
 8005a88:	699b      	ldr	r3, [r3, #24]
 8005a8a:	68ba      	ldr	r2, [r7, #8]
 8005a8c:	4013      	ands	r3, r2
 8005a8e:	68ba      	ldr	r2, [r7, #8]
 8005a90:	1ad3      	subs	r3, r2, r3
 8005a92:	425a      	negs	r2, r3
 8005a94:	4153      	adcs	r3, r2
 8005a96:	b2db      	uxtb	r3, r3
 8005a98:	001a      	movs	r2, r3
 8005a9a:	1dfb      	adds	r3, r7, #7
 8005a9c:	781b      	ldrb	r3, [r3, #0]
 8005a9e:	429a      	cmp	r2, r3
 8005aa0:	d0b5      	beq.n	8005a0e <I2C_WaitOnFlagUntilTimeout+0x12>
 8005aa2:	2300      	movs	r3, #0
 8005aa4:	0018      	movs	r0, r3
 8005aa6:	46bd      	mov	sp, r7
 8005aa8:	b004      	add	sp, #16
 8005aaa:	bd80      	pop	{r7, pc}

08005aac <I2C_WaitOnTXISFlagUntilTimeout>:
 8005aac:	b580      	push	{r7, lr}
 8005aae:	b084      	sub	sp, #16
 8005ab0:	af00      	add	r7, sp, #0
 8005ab2:	60f8      	str	r0, [r7, #12]
 8005ab4:	60b9      	str	r1, [r7, #8]
 8005ab6:	607a      	str	r2, [r7, #4]
 8005ab8:	e032      	b.n	8005b20 <I2C_WaitOnTXISFlagUntilTimeout+0x74>
 8005aba:	687a      	ldr	r2, [r7, #4]
 8005abc:	68b9      	ldr	r1, [r7, #8]
 8005abe:	68fb      	ldr	r3, [r7, #12]
 8005ac0:	0018      	movs	r0, r3
 8005ac2:	f000 f87d 	bl	8005bc0 <I2C_IsErrorOccurred>
 8005ac6:	1e03      	subs	r3, r0, #0
 8005ac8:	d001      	beq.n	8005ace <I2C_WaitOnTXISFlagUntilTimeout+0x22>
 8005aca:	2301      	movs	r3, #1
 8005acc:	e030      	b.n	8005b30 <I2C_WaitOnTXISFlagUntilTimeout+0x84>
 8005ace:	68bb      	ldr	r3, [r7, #8]
 8005ad0:	3301      	adds	r3, #1
 8005ad2:	d025      	beq.n	8005b20 <I2C_WaitOnTXISFlagUntilTimeout+0x74>
 8005ad4:	f7ff fa18 	bl	8004f08 <HAL_GetTick>
 8005ad8:	0002      	movs	r2, r0
 8005ada:	687b      	ldr	r3, [r7, #4]
 8005adc:	1ad3      	subs	r3, r2, r3
 8005ade:	68ba      	ldr	r2, [r7, #8]
 8005ae0:	429a      	cmp	r2, r3
 8005ae2:	d302      	bcc.n	8005aea <I2C_WaitOnTXISFlagUntilTimeout+0x3e>
 8005ae4:	68bb      	ldr	r3, [r7, #8]
 8005ae6:	2b00      	cmp	r3, #0
 8005ae8:	d11a      	bne.n	8005b20 <I2C_WaitOnTXISFlagUntilTimeout+0x74>
 8005aea:	68fb      	ldr	r3, [r7, #12]
 8005aec:	681b      	ldr	r3, [r3, #0]
 8005aee:	699b      	ldr	r3, [r3, #24]
 8005af0:	2202      	movs	r2, #2
 8005af2:	4013      	ands	r3, r2
 8005af4:	2b02      	cmp	r3, #2
 8005af6:	d013      	beq.n	8005b20 <I2C_WaitOnTXISFlagUntilTimeout+0x74>
 8005af8:	68fb      	ldr	r3, [r7, #12]
 8005afa:	6c5b      	ldr	r3, [r3, #68]	@ 0x44
 8005afc:	2220      	movs	r2, #32
 8005afe:	431a      	orrs	r2, r3
 8005b00:	68fb      	ldr	r3, [r7, #12]
 8005b02:	645a      	str	r2, [r3, #68]	@ 0x44
 8005b04:	68fb      	ldr	r3, [r7, #12]
 8005b06:	2241      	movs	r2, #65	@ 0x41
 8005b08:	2120      	movs	r1, #32
 8005b0a:	5499      	strb	r1, [r3, r2]
 8005b0c:	68fb      	ldr	r3, [r7, #12]
 8005b0e:	2242      	movs	r2, #66	@ 0x42
 8005b10:	2100      	movs	r1, #0
 8005b12:	5499      	strb	r1, [r3, r2]
 8005b14:	68fb      	ldr	r3, [r7, #12]
 8005b16:	2240      	movs	r2, #64	@ 0x40
 8005b18:	2100      	movs	r1, #0
 8005b1a:	5499      	strb	r1, [r3, r2]
 8005b1c:	2301      	movs	r3, #1
 8005b1e:	e007      	b.n	8005b30 <I2C_WaitOnTXISFlagUntilTimeout+0x84>
 8005b20:	68fb      	ldr	r3, [r7, #12]
 8005b22:	681b      	ldr	r3, [r3, #0]
 8005b24:	699b      	ldr	r3, [r3, #24]
 8005b26:	2202      	movs	r2, #2
 8005b28:	4013      	ands	r3, r2
 8005b2a:	2b02      	cmp	r3, #2
 8005b2c:	d1c5      	bne.n	8005aba <I2C_WaitOnTXISFlagUntilTimeout+0xe>
 8005b2e:	2300      	movs	r3, #0
 8005b30:	0018      	movs	r0, r3
 8005b32:	46bd      	mov	sp, r7
 8005b34:	b004      	add	sp, #16
 8005b36:	bd80      	pop	{r7, pc}

08005b38 <I2C_WaitOnSTOPFlagUntilTimeout>:
 8005b38:	b580      	push	{r7, lr}
 8005b3a:	b084      	sub	sp, #16
 8005b3c:	af00      	add	r7, sp, #0
 8005b3e:	60f8      	str	r0, [r7, #12]
 8005b40:	60b9      	str	r1, [r7, #8]
 8005b42:	607a      	str	r2, [r7, #4]
 8005b44:	e02f      	b.n	8005ba6 <I2C_WaitOnSTOPFlagUntilTimeout+0x6e>
 8005b46:	687a      	ldr	r2, [r7, #4]
 8005b48:	68b9      	ldr	r1, [r7, #8]
 8005b4a:	68fb      	ldr	r3, [r7, #12]
 8005b4c:	0018      	movs	r0, r3
 8005b4e:	f000 f837 	bl	8005bc0 <I2C_IsErrorOccurred>
 8005b52:	1e03      	subs	r3, r0, #0
 8005b54:	d001      	beq.n	8005b5a <I2C_WaitOnSTOPFlagUntilTimeout+0x22>
 8005b56:	2301      	movs	r3, #1
 8005b58:	e02d      	b.n	8005bb6 <I2C_WaitOnSTOPFlagUntilTimeout+0x7e>
 8005b5a:	f7ff f9d5 	bl	8004f08 <HAL_GetTick>
 8005b5e:	0002      	movs	r2, r0
 8005b60:	687b      	ldr	r3, [r7, #4]
 8005b62:	1ad3      	subs	r3, r2, r3
 8005b64:	68ba      	ldr	r2, [r7, #8]
 8005b66:	429a      	cmp	r2, r3
 8005b68:	d302      	bcc.n	8005b70 <I2C_WaitOnSTOPFlagUntilTimeout+0x38>
 8005b6a:	68bb      	ldr	r3, [r7, #8]
 8005b6c:	2b00      	cmp	r3, #0
 8005b6e:	d11a      	bne.n	8005ba6 <I2C_WaitOnSTOPFlagUntilTimeout+0x6e>
 8005b70:	68fb      	ldr	r3, [r7, #12]
 8005b72:	681b      	ldr	r3, [r3, #0]
 8005b74:	699b      	ldr	r3, [r3, #24]
 8005b76:	2220      	movs	r2, #32
 8005b78:	4013      	ands	r3, r2
 8005b7a:	2b20      	cmp	r3, #32
 8005b7c:	d013      	beq.n	8005ba6 <I2C_WaitOnSTOPFlagUntilTimeout+0x6e>
 8005b7e:	68fb      	ldr	r3, [r7, #12]
 8005b80:	6c5b      	ldr	r3, [r3, #68]	@ 0x44
 8005b82:	2220      	movs	r2, #32
 8005b84:	431a      	orrs	r2, r3
 8005b86:	68fb      	ldr	r3, [r7, #12]
 8005b88:	645a      	str	r2, [r3, #68]	@ 0x44
 8005b8a:	68fb      	ldr	r3, [r7, #12]
 8005b8c:	2241      	movs	r2, #65	@ 0x41
 8005b8e:	2120      	movs	r1, #32
 8005b90:	5499      	strb	r1, [r3, r2]
 8005b92:	68fb      	ldr	r3, [r7, #12]
 8005b94:	2242      	movs	r2, #66	@ 0x42
 8005b96:	2100      	movs	r1, #0
 8005b98:	5499      	strb	r1, [r3, r2]
 8005b9a:	68fb      	ldr	r3, [r7, #12]
 8005b9c:	2240      	movs	r2, #64	@ 0x40
 8005b9e:	2100      	movs	r1, #0
 8005ba0:	5499      	strb	r1, [r3, r2]
 8005ba2:	2301      	movs	r3, #1
 8005ba4:	e007      	b.n	8005bb6 <I2C_WaitOnSTOPFlagUntilTimeout+0x7e>
 8005ba6:	68fb      	ldr	r3, [r7, #12]
 8005ba8:	681b      	ldr	r3, [r3, #0]
 8005baa:	699b      	ldr	r3, [r3, #24]
 8005bac:	2220      	movs	r2, #32
 8005bae:	4013      	ands	r3, r2
 8005bb0:	2b20      	cmp	r3, #32
 8005bb2:	d1c8      	bne.n	8005b46 <I2C_WaitOnSTOPFlagUntilTimeout+0xe>
 8005bb4:	2300      	movs	r3, #0
 8005bb6:	0018      	movs	r0, r3
 8005bb8:	46bd      	mov	sp, r7
 8005bba:	b004      	add	sp, #16
 8005bbc:	bd80      	pop	{r7, pc}
	...

08005bc0 <I2C_IsErrorOccurred>:
 8005bc0:	b580      	push	{r7, lr}
 8005bc2:	b08a      	sub	sp, #40	@ 0x28
 8005bc4:	af00      	add	r7, sp, #0
 8005bc6:	60f8      	str	r0, [r7, #12]
 8005bc8:	60b9      	str	r1, [r7, #8]
 8005bca:	607a      	str	r2, [r7, #4]
 8005bcc:	2327      	movs	r3, #39	@ 0x27
 8005bce:	18fb      	adds	r3, r7, r3
 8005bd0:	2200      	movs	r2, #0
 8005bd2:	701a      	strb	r2, [r3, #0]
 8005bd4:	68fb      	ldr	r3, [r7, #12]
 8005bd6:	681b      	ldr	r3, [r3, #0]
 8005bd8:	699b      	ldr	r3, [r3, #24]
 8005bda:	61bb      	str	r3, [r7, #24]
 8005bdc:	2300      	movs	r3, #0
 8005bde:	623b      	str	r3, [r7, #32]
 8005be0:	687b      	ldr	r3, [r7, #4]
 8005be2:	61fb      	str	r3, [r7, #28]
 8005be4:	69bb      	ldr	r3, [r7, #24]
 8005be6:	2210      	movs	r2, #16
 8005be8:	4013      	ands	r3, r2
 8005bea:	d100      	bne.n	8005bee <I2C_IsErrorOccurred+0x2e>
 8005bec:	e079      	b.n	8005ce2 <I2C_IsErrorOccurred+0x122>
 8005bee:	68fb      	ldr	r3, [r7, #12]
 8005bf0:	681b      	ldr	r3, [r3, #0]
 8005bf2:	2210      	movs	r2, #16
 8005bf4:	61da      	str	r2, [r3, #28]
 8005bf6:	e057      	b.n	8005ca8 <I2C_IsErrorOccurred+0xe8>
 8005bf8:	2227      	movs	r2, #39	@ 0x27
 8005bfa:	18bb      	adds	r3, r7, r2
 8005bfc:	18ba      	adds	r2, r7, r2
 8005bfe:	7812      	ldrb	r2, [r2, #0]
 8005c00:	701a      	strb	r2, [r3, #0]
 8005c02:	68bb      	ldr	r3, [r7, #8]
 8005c04:	3301      	adds	r3, #1
 8005c06:	d04f      	beq.n	8005ca8 <I2C_IsErrorOccurred+0xe8>
 8005c08:	f7ff f97e 	bl	8004f08 <HAL_GetTick>
 8005c0c:	0002      	movs	r2, r0
 8005c0e:	69fb      	ldr	r3, [r7, #28]
 8005c10:	1ad3      	subs	r3, r2, r3
 8005c12:	68ba      	ldr	r2, [r7, #8]
 8005c14:	429a      	cmp	r2, r3
 8005c16:	d302      	bcc.n	8005c1e <I2C_IsErrorOccurred+0x5e>
 8005c18:	68bb      	ldr	r3, [r7, #8]
 8005c1a:	2b00      	cmp	r3, #0
 8005c1c:	d144      	bne.n	8005ca8 <I2C_IsErrorOccurred+0xe8>
 8005c1e:	68fb      	ldr	r3, [r7, #12]
 8005c20:	681b      	ldr	r3, [r3, #0]
 8005c22:	685a      	ldr	r2, [r3, #4]
 8005c24:	2380      	movs	r3, #128	@ 0x80
 8005c26:	01db      	lsls	r3, r3, #7
 8005c28:	4013      	ands	r3, r2
 8005c2a:	617b      	str	r3, [r7, #20]
 8005c2c:	2013      	movs	r0, #19
 8005c2e:	183b      	adds	r3, r7, r0
 8005c30:	68fa      	ldr	r2, [r7, #12]
 8005c32:	2142      	movs	r1, #66	@ 0x42
 8005c34:	5c52      	ldrb	r2, [r2, r1]
 8005c36:	701a      	strb	r2, [r3, #0]
 8005c38:	68fb      	ldr	r3, [r7, #12]
 8005c3a:	681b      	ldr	r3, [r3, #0]
 8005c3c:	699a      	ldr	r2, [r3, #24]
 8005c3e:	2380      	movs	r3, #128	@ 0x80
 8005c40:	021b      	lsls	r3, r3, #8
 8005c42:	401a      	ands	r2, r3
 8005c44:	2380      	movs	r3, #128	@ 0x80
 8005c46:	021b      	lsls	r3, r3, #8
 8005c48:	429a      	cmp	r2, r3
 8005c4a:	d126      	bne.n	8005c9a <I2C_IsErrorOccurred+0xda>
 8005c4c:	697a      	ldr	r2, [r7, #20]
 8005c4e:	2380      	movs	r3, #128	@ 0x80
 8005c50:	01db      	lsls	r3, r3, #7
 8005c52:	429a      	cmp	r2, r3
 8005c54:	d021      	beq.n	8005c9a <I2C_IsErrorOccurred+0xda>
 8005c56:	183b      	adds	r3, r7, r0
 8005c58:	781b      	ldrb	r3, [r3, #0]
 8005c5a:	2b20      	cmp	r3, #32
 8005c5c:	d01d      	beq.n	8005c9a <I2C_IsErrorOccurred+0xda>
 8005c5e:	68fb      	ldr	r3, [r7, #12]
 8005c60:	681b      	ldr	r3, [r3, #0]
 8005c62:	685a      	ldr	r2, [r3, #4]
 8005c64:	68fb      	ldr	r3, [r7, #12]
 8005c66:	681b      	ldr	r3, [r3, #0]
 8005c68:	2180      	movs	r1, #128	@ 0x80
 8005c6a:	01c9      	lsls	r1, r1, #7
 8005c6c:	430a      	orrs	r2, r1
 8005c6e:	605a      	str	r2, [r3, #4]
 8005c70:	f7ff f94a 	bl	8004f08 <HAL_GetTick>
 8005c74:	0003      	movs	r3, r0
 8005c76:	61fb      	str	r3, [r7, #28]
 8005c78:	e00f      	b.n	8005c9a <I2C_IsErrorOccurred+0xda>
 8005c7a:	f7ff f945 	bl	8004f08 <HAL_GetTick>
 8005c7e:	0002      	movs	r2, r0
 8005c80:	69fb      	ldr	r3, [r7, #28]
 8005c82:	1ad3      	subs	r3, r2, r3
 8005c84:	2b19      	cmp	r3, #25
 8005c86:	d908      	bls.n	8005c9a <I2C_IsErrorOccurred+0xda>
 8005c88:	6a3b      	ldr	r3, [r7, #32]
 8005c8a:	2220      	movs	r2, #32
 8005c8c:	4313      	orrs	r3, r2
 8005c8e:	623b      	str	r3, [r7, #32]
 8005c90:	2327      	movs	r3, #39	@ 0x27
 8005c92:	18fb      	adds	r3, r7, r3
 8005c94:	2201      	movs	r2, #1
 8005c96:	701a      	strb	r2, [r3, #0]
 8005c98:	e006      	b.n	8005ca8 <I2C_IsErrorOccurred+0xe8>
 8005c9a:	68fb      	ldr	r3, [r7, #12]
 8005c9c:	681b      	ldr	r3, [r3, #0]
 8005c9e:	699b      	ldr	r3, [r3, #24]
 8005ca0:	2220      	movs	r2, #32
 8005ca2:	4013      	ands	r3, r2
 8005ca4:	2b20      	cmp	r3, #32
 8005ca6:	d1e8      	bne.n	8005c7a <I2C_IsErrorOccurred+0xba>
 8005ca8:	68fb      	ldr	r3, [r7, #12]
 8005caa:	681b      	ldr	r3, [r3, #0]
 8005cac:	699b      	ldr	r3, [r3, #24]
 8005cae:	2220      	movs	r2, #32
 8005cb0:	4013      	ands	r3, r2
 8005cb2:	2b20      	cmp	r3, #32
 8005cb4:	d004      	beq.n	8005cc0 <I2C_IsErrorOccurred+0x100>
 8005cb6:	2327      	movs	r3, #39	@ 0x27
 8005cb8:	18fb      	adds	r3, r7, r3
 8005cba:	781b      	ldrb	r3, [r3, #0]
 8005cbc:	2b00      	cmp	r3, #0
 8005cbe:	d09b      	beq.n	8005bf8 <I2C_IsErrorOccurred+0x38>
 8005cc0:	2327      	movs	r3, #39	@ 0x27
 8005cc2:	18fb      	adds	r3, r7, r3
 8005cc4:	781b      	ldrb	r3, [r3, #0]
 8005cc6:	2b00      	cmp	r3, #0
 8005cc8:	d103      	bne.n	8005cd2 <I2C_IsErrorOccurred+0x112>
 8005cca:	68fb      	ldr	r3, [r7, #12]
 8005ccc:	681b      	ldr	r3, [r3, #0]
 8005cce:	2220      	movs	r2, #32
 8005cd0:	61da      	str	r2, [r3, #28]
 8005cd2:	6a3b      	ldr	r3, [r7, #32]
 8005cd4:	2204      	movs	r2, #4
 8005cd6:	4313      	orrs	r3, r2
 8005cd8:	623b      	str	r3, [r7, #32]
 8005cda:	2327      	movs	r3, #39	@ 0x27
 8005cdc:	18fb      	adds	r3, r7, r3
 8005cde:	2201      	movs	r2, #1
 8005ce0:	701a      	strb	r2, [r3, #0]
 8005ce2:	68fb      	ldr	r3, [r7, #12]
 8005ce4:	681b      	ldr	r3, [r3, #0]
 8005ce6:	699b      	ldr	r3, [r3, #24]
 8005ce8:	61bb      	str	r3, [r7, #24]
 8005cea:	69ba      	ldr	r2, [r7, #24]
 8005cec:	2380      	movs	r3, #128	@ 0x80
 8005cee:	005b      	lsls	r3, r3, #1
 8005cf0:	4013      	ands	r3, r2
 8005cf2:	d00c      	beq.n	8005d0e <I2C_IsErrorOccurred+0x14e>
 8005cf4:	6a3b      	ldr	r3, [r7, #32]
 8005cf6:	2201      	movs	r2, #1
 8005cf8:	4313      	orrs	r3, r2
 8005cfa:	623b      	str	r3, [r7, #32]
 8005cfc:	68fb      	ldr	r3, [r7, #12]
 8005cfe:	681b      	ldr	r3, [r3, #0]
 8005d00:	2280      	movs	r2, #128	@ 0x80
 8005d02:	0052      	lsls	r2, r2, #1
 8005d04:	61da      	str	r2, [r3, #28]
 8005d06:	2327      	movs	r3, #39	@ 0x27
 8005d08:	18fb      	adds	r3, r7, r3
 8005d0a:	2201      	movs	r2, #1
 8005d0c:	701a      	strb	r2, [r3, #0]
 8005d0e:	69ba      	ldr	r2, [r7, #24]
 8005d10:	2380      	movs	r3, #128	@ 0x80
 8005d12:	00db      	lsls	r3, r3, #3
 8005d14:	4013      	ands	r3, r2
 8005d16:	d00c      	beq.n	8005d32 <I2C_IsErrorOccurred+0x172>
 8005d18:	6a3b      	ldr	r3, [r7, #32]
 8005d1a:	2208      	movs	r2, #8
 8005d1c:	4313      	orrs	r3, r2
 8005d1e:	623b      	str	r3, [r7, #32]
 8005d20:	68fb      	ldr	r3, [r7, #12]
 8005d22:	681b      	ldr	r3, [r3, #0]
 8005d24:	2280      	movs	r2, #128	@ 0x80
 8005d26:	00d2      	lsls	r2, r2, #3
 8005d28:	61da      	str	r2, [r3, #28]
 8005d2a:	2327      	movs	r3, #39	@ 0x27
 8005d2c:	18fb      	adds	r3, r7, r3
 8005d2e:	2201      	movs	r2, #1
 8005d30:	701a      	strb	r2, [r3, #0]
 8005d32:	69ba      	ldr	r2, [r7, #24]
 8005d34:	2380      	movs	r3, #128	@ 0x80
 8005d36:	009b      	lsls	r3, r3, #2
 8005d38:	4013      	ands	r3, r2
 8005d3a:	d00c      	beq.n	8005d56 <I2C_IsErrorOccurred+0x196>
 8005d3c:	6a3b      	ldr	r3, [r7, #32]
 8005d3e:	2202      	movs	r2, #2
 8005d40:	4313      	orrs	r3, r2
 8005d42:	623b      	str	r3, [r7, #32]
 8005d44:	68fb      	ldr	r3, [r7, #12]
 8005d46:	681b      	ldr	r3, [r3, #0]
 8005d48:	2280      	movs	r2, #128	@ 0x80
 8005d4a:	0092      	lsls	r2, r2, #2
 8005d4c:	61da      	str	r2, [r3, #28]
 8005d4e:	2327      	movs	r3, #39	@ 0x27
 8005d50:	18fb      	adds	r3, r7, r3
 8005d52:	2201      	movs	r2, #1
 8005d54:	701a      	strb	r2, [r3, #0]
 8005d56:	2327      	movs	r3, #39	@ 0x27
 8005d58:	18fb      	adds	r3, r7, r3
 8005d5a:	781b      	ldrb	r3, [r3, #0]
 8005d5c:	2b00      	cmp	r3, #0
 8005d5e:	d01d      	beq.n	8005d9c <I2C_IsErrorOccurred+0x1dc>
 8005d60:	68fb      	ldr	r3, [r7, #12]
 8005d62:	0018      	movs	r0, r3
 8005d64:	f7ff fe28 	bl	80059b8 <I2C_Flush_TXDR>
 8005d68:	68fb      	ldr	r3, [r7, #12]
 8005d6a:	681b      	ldr	r3, [r3, #0]
 8005d6c:	685a      	ldr	r2, [r3, #4]
 8005d6e:	68fb      	ldr	r3, [r7, #12]
 8005d70:	681b      	ldr	r3, [r3, #0]
 8005d72:	490e      	ldr	r1, [pc, #56]	@ (8005dac <I2C_IsErrorOccurred+0x1ec>)
 8005d74:	400a      	ands	r2, r1
 8005d76:	605a      	str	r2, [r3, #4]
 8005d78:	68fb      	ldr	r3, [r7, #12]
 8005d7a:	6c5a      	ldr	r2, [r3, #68]	@ 0x44
 8005d7c:	6a3b      	ldr	r3, [r7, #32]
 8005d7e:	431a      	orrs	r2, r3
 8005d80:	68fb      	ldr	r3, [r7, #12]
 8005d82:	645a      	str	r2, [r3, #68]	@ 0x44
 8005d84:	68fb      	ldr	r3, [r7, #12]
 8005d86:	2241      	movs	r2, #65	@ 0x41
 8005d88:	2120      	movs	r1, #32
 8005d8a:	5499      	strb	r1, [r3, r2]
 8005d8c:	68fb      	ldr	r3, [r7, #12]
 8005d8e:	2242      	movs	r2, #66	@ 0x42
 8005d90:	2100      	movs	r1, #0
 8005d92:	5499      	strb	r1, [r3, r2]
 8005d94:	68fb      	ldr	r3, [r7, #12]
 8005d96:	2240      	movs	r2, #64	@ 0x40
 8005d98:	2100      	movs	r1, #0
 8005d9a:	5499      	strb	r1, [r3, r2]
 8005d9c:	2327      	movs	r3, #39	@ 0x27
 8005d9e:	18fb      	adds	r3, r7, r3
 8005da0:	781b      	ldrb	r3, [r3, #0]
 8005da2:	0018      	movs	r0, r3
 8005da4:	46bd      	mov	sp, r7
 8005da6:	b00a      	add	sp, #40	@ 0x28
 8005da8:	bd80      	pop	{r7, pc}
 8005daa:	46c0      	nop			@ (mov r8, r8)
 8005dac:	fe00e800 	.word	0xfe00e800

08005db0 <I2C_TransferConfig>:
 8005db0:	b590      	push	{r4, r7, lr}
 8005db2:	b087      	sub	sp, #28
 8005db4:	af00      	add	r7, sp, #0
 8005db6:	60f8      	str	r0, [r7, #12]
 8005db8:	0008      	movs	r0, r1
 8005dba:	0011      	movs	r1, r2
 8005dbc:	607b      	str	r3, [r7, #4]
 8005dbe:	240a      	movs	r4, #10
 8005dc0:	193b      	adds	r3, r7, r4
 8005dc2:	1c02      	adds	r2, r0, #0
 8005dc4:	801a      	strh	r2, [r3, #0]
 8005dc6:	2009      	movs	r0, #9
 8005dc8:	183b      	adds	r3, r7, r0
 8005dca:	1c0a      	adds	r2, r1, #0
 8005dcc:	701a      	strb	r2, [r3, #0]
 8005dce:	193b      	adds	r3, r7, r4
 8005dd0:	881b      	ldrh	r3, [r3, #0]
 8005dd2:	059b      	lsls	r3, r3, #22
 8005dd4:	0d9a      	lsrs	r2, r3, #22
 8005dd6:	183b      	adds	r3, r7, r0
 8005dd8:	781b      	ldrb	r3, [r3, #0]
 8005dda:	0419      	lsls	r1, r3, #16
 8005ddc:	23ff      	movs	r3, #255	@ 0xff
 8005dde:	041b      	lsls	r3, r3, #16
 8005de0:	400b      	ands	r3, r1
 8005de2:	431a      	orrs	r2, r3
 8005de4:	687b      	ldr	r3, [r7, #4]
 8005de6:	431a      	orrs	r2, r3
 8005de8:	6abb      	ldr	r3, [r7, #40]	@ 0x28
 8005dea:	4313      	orrs	r3, r2
 8005dec:	005b      	lsls	r3, r3, #1
 8005dee:	085b      	lsrs	r3, r3, #1
 8005df0:	617b      	str	r3, [r7, #20]
 8005df2:	68fb      	ldr	r3, [r7, #12]
 8005df4:	681b      	ldr	r3, [r3, #0]
 8005df6:	685b      	ldr	r3, [r3, #4]
 8005df8:	6aba      	ldr	r2, [r7, #40]	@ 0x28
 8005dfa:	0d51      	lsrs	r1, r2, #21
 8005dfc:	2280      	movs	r2, #128	@ 0x80
 8005dfe:	00d2      	lsls	r2, r2, #3
 8005e00:	400a      	ands	r2, r1
 8005e02:	4907      	ldr	r1, [pc, #28]	@ (8005e20 <I2C_TransferConfig+0x70>)
 8005e04:	430a      	orrs	r2, r1
 8005e06:	43d2      	mvns	r2, r2
 8005e08:	401a      	ands	r2, r3
 8005e0a:	0011      	movs	r1, r2
 8005e0c:	68fb      	ldr	r3, [r7, #12]
 8005e0e:	681b      	ldr	r3, [r3, #0]
 8005e10:	697a      	ldr	r2, [r7, #20]
 8005e12:	430a      	orrs	r2, r1
 8005e14:	605a      	str	r2, [r3, #4]
 8005e16:	46c0      	nop			@ (mov r8, r8)
 8005e18:	46bd      	mov	sp, r7
 8005e1a:	b007      	add	sp, #28
 8005e1c:	bd90      	pop	{r4, r7, pc}
 8005e1e:	46c0      	nop			@ (mov r8, r8)
 8005e20:	03ff63ff 	.word	0x03ff63ff

08005e24 <HAL_I2CEx_ConfigAnalogFilter>:
 8005e24:	b580      	push	{r7, lr}
 8005e26:	b082      	sub	sp, #8
 8005e28:	af00      	add	r7, sp, #0
 8005e2a:	6078      	str	r0, [r7, #4]
 8005e2c:	6039      	str	r1, [r7, #0]
 8005e2e:	687b      	ldr	r3, [r7, #4]
 8005e30:	2241      	movs	r2, #65	@ 0x41
 8005e32:	5c9b      	ldrb	r3, [r3, r2]
 8005e34:	b2db      	uxtb	r3, r3
 8005e36:	2b20      	cmp	r3, #32
 8005e38:	d138      	bne.n	8005eac <HAL_I2CEx_ConfigAnalogFilter+0x88>
 8005e3a:	687b      	ldr	r3, [r7, #4]
 8005e3c:	2240      	movs	r2, #64	@ 0x40
 8005e3e:	5c9b      	ldrb	r3, [r3, r2]
 8005e40:	2b01      	cmp	r3, #1
 8005e42:	d101      	bne.n	8005e48 <HAL_I2CEx_ConfigAnalogFilter+0x24>
 8005e44:	2302      	movs	r3, #2
 8005e46:	e032      	b.n	8005eae <HAL_I2CEx_ConfigAnalogFilter+0x8a>
 8005e48:	687b      	ldr	r3, [r7, #4]
 8005e4a:	2240      	movs	r2, #64	@ 0x40
 8005e4c:	2101      	movs	r1, #1
 8005e4e:	5499      	strb	r1, [r3, r2]
 8005e50:	687b      	ldr	r3, [r7, #4]
 8005e52:	2241      	movs	r2, #65	@ 0x41
 8005e54:	2124      	movs	r1, #36	@ 0x24
 8005e56:	5499      	strb	r1, [r3, r2]
 8005e58:	687b      	ldr	r3, [r7, #4]
 8005e5a:	681b      	ldr	r3, [r3, #0]
 8005e5c:	681a      	ldr	r2, [r3, #0]
 8005e5e:	687b      	ldr	r3, [r7, #4]
 8005e60:	681b      	ldr	r3, [r3, #0]
 8005e62:	2101      	movs	r1, #1
 8005e64:	438a      	bics	r2, r1
 8005e66:	601a      	str	r2, [r3, #0]
 8005e68:	687b      	ldr	r3, [r7, #4]
 8005e6a:	681b      	ldr	r3, [r3, #0]
 8005e6c:	681a      	ldr	r2, [r3, #0]
 8005e6e:	687b      	ldr	r3, [r7, #4]
 8005e70:	681b      	ldr	r3, [r3, #0]
 8005e72:	4911      	ldr	r1, [pc, #68]	@ (8005eb8 <HAL_I2CEx_ConfigAnalogFilter+0x94>)
 8005e74:	400a      	ands	r2, r1
 8005e76:	601a      	str	r2, [r3, #0]
 8005e78:	687b      	ldr	r3, [r7, #4]
 8005e7a:	681b      	ldr	r3, [r3, #0]
 8005e7c:	6819      	ldr	r1, [r3, #0]
 8005e7e:	687b      	ldr	r3, [r7, #4]
 8005e80:	681b      	ldr	r3, [r3, #0]
 8005e82:	683a      	ldr	r2, [r7, #0]
 8005e84:	430a      	orrs	r2, r1
 8005e86:	601a      	str	r2, [r3, #0]
 8005e88:	687b      	ldr	r3, [r7, #4]
 8005e8a:	681b      	ldr	r3, [r3, #0]
 8005e8c:	681a      	ldr	r2, [r3, #0]
 8005e8e:	687b      	ldr	r3, [r7, #4]
 8005e90:	681b      	ldr	r3, [r3, #0]
 8005e92:	2101      	movs	r1, #1
 8005e94:	430a      	orrs	r2, r1
 8005e96:	601a      	str	r2, [r3, #0]
 8005e98:	687b      	ldr	r3, [r7, #4]
 8005e9a:	2241      	movs	r2, #65	@ 0x41
 8005e9c:	2120      	movs	r1, #32
 8005e9e:	5499      	strb	r1, [r3, r2]
 8005ea0:	687b      	ldr	r3, [r7, #4]
 8005ea2:	2240      	movs	r2, #64	@ 0x40
 8005ea4:	2100      	movs	r1, #0
 8005ea6:	5499      	strb	r1, [r3, r2]
 8005ea8:	2300      	movs	r3, #0
 8005eaa:	e000      	b.n	8005eae <HAL_I2CEx_ConfigAnalogFilter+0x8a>
 8005eac:	2302      	movs	r3, #2
 8005eae:	0018      	movs	r0, r3
 8005eb0:	46bd      	mov	sp, r7
 8005eb2:	b002      	add	sp, #8
 8005eb4:	bd80      	pop	{r7, pc}
 8005eb6:	46c0      	nop			@ (mov r8, r8)
 8005eb8:	ffffefff 	.word	0xffffefff

08005ebc <HAL_I2CEx_ConfigDigitalFilter>:
 8005ebc:	b580      	push	{r7, lr}
 8005ebe:	b084      	sub	sp, #16
 8005ec0:	af00      	add	r7, sp, #0
 8005ec2:	6078      	str	r0, [r7, #4]
 8005ec4:	6039      	str	r1, [r7, #0]
 8005ec6:	687b      	ldr	r3, [r7, #4]
 8005ec8:	2241      	movs	r2, #65	@ 0x41
 8005eca:	5c9b      	ldrb	r3, [r3, r2]
 8005ecc:	b2db      	uxtb	r3, r3
 8005ece:	2b20      	cmp	r3, #32
 8005ed0:	d139      	bne.n	8005f46 <HAL_I2CEx_ConfigDigitalFilter+0x8a>
 8005ed2:	687b      	ldr	r3, [r7, #4]
 8005ed4:	2240      	movs	r2, #64	@ 0x40
 8005ed6:	5c9b      	ldrb	r3, [r3, r2]
 8005ed8:	2b01      	cmp	r3, #1
 8005eda:	d101      	bne.n	8005ee0 <HAL_I2CEx_ConfigDigitalFilter+0x24>
 8005edc:	2302      	movs	r3, #2
 8005ede:	e033      	b.n	8005f48 <HAL_I2CEx_ConfigDigitalFilter+0x8c>
 8005ee0:	687b      	ldr	r3, [r7, #4]
 8005ee2:	2240      	movs	r2, #64	@ 0x40
 8005ee4:	2101      	movs	r1, #1
 8005ee6:	5499      	strb	r1, [r3, r2]
 8005ee8:	687b      	ldr	r3, [r7, #4]
 8005eea:	2241      	movs	r2, #65	@ 0x41
 8005eec:	2124      	movs	r1, #36	@ 0x24
 8005eee:	5499      	strb	r1, [r3, r2]
 8005ef0:	687b      	ldr	r3, [r7, #4]
 8005ef2:	681b      	ldr	r3, [r3, #0]
 8005ef4:	681a      	ldr	r2, [r3, #0]
 8005ef6:	687b      	ldr	r3, [r7, #4]
 8005ef8:	681b      	ldr	r3, [r3, #0]
 8005efa:	2101      	movs	r1, #1
 8005efc:	438a      	bics	r2, r1
 8005efe:	601a      	str	r2, [r3, #0]
 8005f00:	687b      	ldr	r3, [r7, #4]
 8005f02:	681b      	ldr	r3, [r3, #0]
 8005f04:	681b      	ldr	r3, [r3, #0]
 8005f06:	60fb      	str	r3, [r7, #12]
 8005f08:	68fb      	ldr	r3, [r7, #12]
 8005f0a:	4a11      	ldr	r2, [pc, #68]	@ (8005f50 <HAL_I2CEx_ConfigDigitalFilter+0x94>)
 8005f0c:	4013      	ands	r3, r2
 8005f0e:	60fb      	str	r3, [r7, #12]
 8005f10:	683b      	ldr	r3, [r7, #0]
 8005f12:	021b      	lsls	r3, r3, #8
 8005f14:	68fa      	ldr	r2, [r7, #12]
 8005f16:	4313      	orrs	r3, r2
 8005f18:	60fb      	str	r3, [r7, #12]
 8005f1a:	687b      	ldr	r3, [r7, #4]
 8005f1c:	681b      	ldr	r3, [r3, #0]
 8005f1e:	68fa      	ldr	r2, [r7, #12]
 8005f20:	601a      	str	r2, [r3, #0]
 8005f22:	687b      	ldr	r3, [r7, #4]
 8005f24:	681b      	ldr	r3, [r3, #0]
 8005f26:	681a      	ldr	r2, [r3, #0]
 8005f28:	687b      	ldr	r3, [r7, #4]
 8005f2a:	681b      	ldr	r3, [r3, #0]
 8005f2c:	2101      	movs	r1, #1
 8005f2e:	430a      	orrs	r2, r1
 8005f30:	601a      	str	r2, [r3, #0]
 8005f32:	687b      	ldr	r3, [r7, #4]
 8005f34:	2241      	movs	r2, #65	@ 0x41
 8005f36:	2120      	movs	r1, #32
 8005f38:	5499      	strb	r1, [r3, r2]
 8005f3a:	687b      	ldr	r3, [r7, #4]
 8005f3c:	2240      	movs	r2, #64	@ 0x40
 8005f3e:	2100      	movs	r1, #0
 8005f40:	5499      	strb	r1, [r3, r2]
 8005f42:	2300      	movs	r3, #0
 8005f44:	e000      	b.n	8005f48 <HAL_I2CEx_ConfigDigitalFilter+0x8c>
 8005f46:	2302      	movs	r3, #2
 8005f48:	0018      	movs	r0, r3
 8005f4a:	46bd      	mov	sp, r7
 8005f4c:	b004      	add	sp, #16
 8005f4e:	bd80      	pop	{r7, pc}
 8005f50:	fffff0ff 	.word	0xfffff0ff

08005f54 <HAL_RCC_OscConfig>:
 8005f54:	b580      	push	{r7, lr}
 8005f56:	b088      	sub	sp, #32
 8005f58:	af00      	add	r7, sp, #0
 8005f5a:	6078      	str	r0, [r7, #4]
 8005f5c:	687b      	ldr	r3, [r7, #4]
 8005f5e:	2b00      	cmp	r3, #0
 8005f60:	d101      	bne.n	8005f66 <HAL_RCC_OscConfig+0x12>
 8005f62:	2301      	movs	r3, #1
 8005f64:	e301      	b.n	800656a <HAL_RCC_OscConfig+0x616>
 8005f66:	687b      	ldr	r3, [r7, #4]
 8005f68:	681b      	ldr	r3, [r3, #0]
 8005f6a:	2201      	movs	r2, #1
 8005f6c:	4013      	ands	r3, r2
 8005f6e:	d100      	bne.n	8005f72 <HAL_RCC_OscConfig+0x1e>
 8005f70:	e08d      	b.n	800608e <HAL_RCC_OscConfig+0x13a>
 8005f72:	4bc3      	ldr	r3, [pc, #780]	@ (8006280 <HAL_RCC_OscConfig+0x32c>)
 8005f74:	685b      	ldr	r3, [r3, #4]
 8005f76:	220c      	movs	r2, #12
 8005f78:	4013      	ands	r3, r2
 8005f7a:	2b04      	cmp	r3, #4
 8005f7c:	d00e      	beq.n	8005f9c <HAL_RCC_OscConfig+0x48>
 8005f7e:	4bc0      	ldr	r3, [pc, #768]	@ (8006280 <HAL_RCC_OscConfig+0x32c>)
 8005f80:	685b      	ldr	r3, [r3, #4]
 8005f82:	220c      	movs	r2, #12
 8005f84:	4013      	ands	r3, r2
 8005f86:	2b08      	cmp	r3, #8
 8005f88:	d116      	bne.n	8005fb8 <HAL_RCC_OscConfig+0x64>
 8005f8a:	4bbd      	ldr	r3, [pc, #756]	@ (8006280 <HAL_RCC_OscConfig+0x32c>)
 8005f8c:	685a      	ldr	r2, [r3, #4]
 8005f8e:	2380      	movs	r3, #128	@ 0x80
 8005f90:	025b      	lsls	r3, r3, #9
 8005f92:	401a      	ands	r2, r3
 8005f94:	2380      	movs	r3, #128	@ 0x80
 8005f96:	025b      	lsls	r3, r3, #9
 8005f98:	429a      	cmp	r2, r3
 8005f9a:	d10d      	bne.n	8005fb8 <HAL_RCC_OscConfig+0x64>
 8005f9c:	4bb8      	ldr	r3, [pc, #736]	@ (8006280 <HAL_RCC_OscConfig+0x32c>)
 8005f9e:	681a      	ldr	r2, [r3, #0]
 8005fa0:	2380      	movs	r3, #128	@ 0x80
 8005fa2:	029b      	lsls	r3, r3, #10
 8005fa4:	4013      	ands	r3, r2
 8005fa6:	d100      	bne.n	8005faa <HAL_RCC_OscConfig+0x56>
 8005fa8:	e070      	b.n	800608c <HAL_RCC_OscConfig+0x138>
 8005faa:	687b      	ldr	r3, [r7, #4]
 8005fac:	685b      	ldr	r3, [r3, #4]
 8005fae:	2b00      	cmp	r3, #0
 8005fb0:	d000      	beq.n	8005fb4 <HAL_RCC_OscConfig+0x60>
 8005fb2:	e06b      	b.n	800608c <HAL_RCC_OscConfig+0x138>
 8005fb4:	2301      	movs	r3, #1
 8005fb6:	e2d8      	b.n	800656a <HAL_RCC_OscConfig+0x616>
 8005fb8:	687b      	ldr	r3, [r7, #4]
 8005fba:	685b      	ldr	r3, [r3, #4]
 8005fbc:	2b01      	cmp	r3, #1
 8005fbe:	d107      	bne.n	8005fd0 <HAL_RCC_OscConfig+0x7c>
 8005fc0:	4baf      	ldr	r3, [pc, #700]	@ (8006280 <HAL_RCC_OscConfig+0x32c>)
 8005fc2:	681a      	ldr	r2, [r3, #0]
 8005fc4:	4bae      	ldr	r3, [pc, #696]	@ (8006280 <HAL_RCC_OscConfig+0x32c>)
 8005fc6:	2180      	movs	r1, #128	@ 0x80
 8005fc8:	0249      	lsls	r1, r1, #9
 8005fca:	430a      	orrs	r2, r1
 8005fcc:	601a      	str	r2, [r3, #0]
 8005fce:	e02f      	b.n	8006030 <HAL_RCC_OscConfig+0xdc>
 8005fd0:	687b      	ldr	r3, [r7, #4]
 8005fd2:	685b      	ldr	r3, [r3, #4]
 8005fd4:	2b00      	cmp	r3, #0
 8005fd6:	d10c      	bne.n	8005ff2 <HAL_RCC_OscConfig+0x9e>
 8005fd8:	4ba9      	ldr	r3, [pc, #676]	@ (8006280 <HAL_RCC_OscConfig+0x32c>)
 8005fda:	681a      	ldr	r2, [r3, #0]
 8005fdc:	4ba8      	ldr	r3, [pc, #672]	@ (8006280 <HAL_RCC_OscConfig+0x32c>)
 8005fde:	49a9      	ldr	r1, [pc, #676]	@ (8006284 <HAL_RCC_OscConfig+0x330>)
 8005fe0:	400a      	ands	r2, r1
 8005fe2:	601a      	str	r2, [r3, #0]
 8005fe4:	4ba6      	ldr	r3, [pc, #664]	@ (8006280 <HAL_RCC_OscConfig+0x32c>)
 8005fe6:	681a      	ldr	r2, [r3, #0]
 8005fe8:	4ba5      	ldr	r3, [pc, #660]	@ (8006280 <HAL_RCC_OscConfig+0x32c>)
 8005fea:	49a7      	ldr	r1, [pc, #668]	@ (8006288 <HAL_RCC_OscConfig+0x334>)
 8005fec:	400a      	ands	r2, r1
 8005fee:	601a      	str	r2, [r3, #0]
 8005ff0:	e01e      	b.n	8006030 <HAL_RCC_OscConfig+0xdc>
 8005ff2:	687b      	ldr	r3, [r7, #4]
 8005ff4:	685b      	ldr	r3, [r3, #4]
 8005ff6:	2b05      	cmp	r3, #5
 8005ff8:	d10e      	bne.n	8006018 <HAL_RCC_OscConfig+0xc4>
 8005ffa:	4ba1      	ldr	r3, [pc, #644]	@ (8006280 <HAL_RCC_OscConfig+0x32c>)
 8005ffc:	681a      	ldr	r2, [r3, #0]
 8005ffe:	4ba0      	ldr	r3, [pc, #640]	@ (8006280 <HAL_RCC_OscConfig+0x32c>)
 8006000:	2180      	movs	r1, #128	@ 0x80
 8006002:	02c9      	lsls	r1, r1, #11
 8006004:	430a      	orrs	r2, r1
 8006006:	601a      	str	r2, [r3, #0]
 8006008:	4b9d      	ldr	r3, [pc, #628]	@ (8006280 <HAL_RCC_OscConfig+0x32c>)
 800600a:	681a      	ldr	r2, [r3, #0]
 800600c:	4b9c      	ldr	r3, [pc, #624]	@ (8006280 <HAL_RCC_OscConfig+0x32c>)
 800600e:	2180      	movs	r1, #128	@ 0x80
 8006010:	0249      	lsls	r1, r1, #9
 8006012:	430a      	orrs	r2, r1
 8006014:	601a      	str	r2, [r3, #0]
 8006016:	e00b      	b.n	8006030 <HAL_RCC_OscConfig+0xdc>
 8006018:	4b99      	ldr	r3, [pc, #612]	@ (8006280 <HAL_RCC_OscConfig+0x32c>)
 800601a:	681a      	ldr	r2, [r3, #0]
 800601c:	4b98      	ldr	r3, [pc, #608]	@ (8006280 <HAL_RCC_OscConfig+0x32c>)
 800601e:	4999      	ldr	r1, [pc, #612]	@ (8006284 <HAL_RCC_OscConfig+0x330>)
 8006020:	400a      	ands	r2, r1
 8006022:	601a      	str	r2, [r3, #0]
 8006024:	4b96      	ldr	r3, [pc, #600]	@ (8006280 <HAL_RCC_OscConfig+0x32c>)
 8006026:	681a      	ldr	r2, [r3, #0]
 8006028:	4b95      	ldr	r3, [pc, #596]	@ (8006280 <HAL_RCC_OscConfig+0x32c>)
 800602a:	4997      	ldr	r1, [pc, #604]	@ (8006288 <HAL_RCC_OscConfig+0x334>)
 800602c:	400a      	ands	r2, r1
 800602e:	601a      	str	r2, [r3, #0]
 8006030:	687b      	ldr	r3, [r7, #4]
 8006032:	685b      	ldr	r3, [r3, #4]
 8006034:	2b00      	cmp	r3, #0
 8006036:	d014      	beq.n	8006062 <HAL_RCC_OscConfig+0x10e>
 8006038:	f7fe ff66 	bl	8004f08 <HAL_GetTick>
 800603c:	0003      	movs	r3, r0
 800603e:	61bb      	str	r3, [r7, #24]
 8006040:	e008      	b.n	8006054 <HAL_RCC_OscConfig+0x100>
 8006042:	f7fe ff61 	bl	8004f08 <HAL_GetTick>
 8006046:	0002      	movs	r2, r0
 8006048:	69bb      	ldr	r3, [r7, #24]
 800604a:	1ad3      	subs	r3, r2, r3
 800604c:	2b64      	cmp	r3, #100	@ 0x64
 800604e:	d901      	bls.n	8006054 <HAL_RCC_OscConfig+0x100>
 8006050:	2303      	movs	r3, #3
 8006052:	e28a      	b.n	800656a <HAL_RCC_OscConfig+0x616>
 8006054:	4b8a      	ldr	r3, [pc, #552]	@ (8006280 <HAL_RCC_OscConfig+0x32c>)
 8006056:	681a      	ldr	r2, [r3, #0]
 8006058:	2380      	movs	r3, #128	@ 0x80
 800605a:	029b      	lsls	r3, r3, #10
 800605c:	4013      	ands	r3, r2
 800605e:	d0f0      	beq.n	8006042 <HAL_RCC_OscConfig+0xee>
 8006060:	e015      	b.n	800608e <HAL_RCC_OscConfig+0x13a>
 8006062:	f7fe ff51 	bl	8004f08 <HAL_GetTick>
 8006066:	0003      	movs	r3, r0
 8006068:	61bb      	str	r3, [r7, #24]
 800606a:	e008      	b.n	800607e <HAL_RCC_OscConfig+0x12a>
 800606c:	f7fe ff4c 	bl	8004f08 <HAL_GetTick>
 8006070:	0002      	movs	r2, r0
 8006072:	69bb      	ldr	r3, [r7, #24]
 8006074:	1ad3      	subs	r3, r2, r3
 8006076:	2b64      	cmp	r3, #100	@ 0x64
 8006078:	d901      	bls.n	800607e <HAL_RCC_OscConfig+0x12a>
 800607a:	2303      	movs	r3, #3
 800607c:	e275      	b.n	800656a <HAL_RCC_OscConfig+0x616>
 800607e:	4b80      	ldr	r3, [pc, #512]	@ (8006280 <HAL_RCC_OscConfig+0x32c>)
 8006080:	681a      	ldr	r2, [r3, #0]
 8006082:	2380      	movs	r3, #128	@ 0x80
 8006084:	029b      	lsls	r3, r3, #10
 8006086:	4013      	ands	r3, r2
 8006088:	d1f0      	bne.n	800606c <HAL_RCC_OscConfig+0x118>
 800608a:	e000      	b.n	800608e <HAL_RCC_OscConfig+0x13a>
 800608c:	46c0      	nop			@ (mov r8, r8)
 800608e:	687b      	ldr	r3, [r7, #4]
 8006090:	681b      	ldr	r3, [r3, #0]
 8006092:	2202      	movs	r2, #2
 8006094:	4013      	ands	r3, r2
 8006096:	d100      	bne.n	800609a <HAL_RCC_OscConfig+0x146>
 8006098:	e069      	b.n	800616e <HAL_RCC_OscConfig+0x21a>
 800609a:	4b79      	ldr	r3, [pc, #484]	@ (8006280 <HAL_RCC_OscConfig+0x32c>)
 800609c:	685b      	ldr	r3, [r3, #4]
 800609e:	220c      	movs	r2, #12
 80060a0:	4013      	ands	r3, r2
 80060a2:	d00b      	beq.n	80060bc <HAL_RCC_OscConfig+0x168>
 80060a4:	4b76      	ldr	r3, [pc, #472]	@ (8006280 <HAL_RCC_OscConfig+0x32c>)
 80060a6:	685b      	ldr	r3, [r3, #4]
 80060a8:	220c      	movs	r2, #12
 80060aa:	4013      	ands	r3, r2
 80060ac:	2b08      	cmp	r3, #8
 80060ae:	d11c      	bne.n	80060ea <HAL_RCC_OscConfig+0x196>
 80060b0:	4b73      	ldr	r3, [pc, #460]	@ (8006280 <HAL_RCC_OscConfig+0x32c>)
 80060b2:	685a      	ldr	r2, [r3, #4]
 80060b4:	2380      	movs	r3, #128	@ 0x80
 80060b6:	025b      	lsls	r3, r3, #9
 80060b8:	4013      	ands	r3, r2
 80060ba:	d116      	bne.n	80060ea <HAL_RCC_OscConfig+0x196>
 80060bc:	4b70      	ldr	r3, [pc, #448]	@ (8006280 <HAL_RCC_OscConfig+0x32c>)
 80060be:	681b      	ldr	r3, [r3, #0]
 80060c0:	2202      	movs	r2, #2
 80060c2:	4013      	ands	r3, r2
 80060c4:	d005      	beq.n	80060d2 <HAL_RCC_OscConfig+0x17e>
 80060c6:	687b      	ldr	r3, [r7, #4]
 80060c8:	68db      	ldr	r3, [r3, #12]
 80060ca:	2b01      	cmp	r3, #1
 80060cc:	d001      	beq.n	80060d2 <HAL_RCC_OscConfig+0x17e>
 80060ce:	2301      	movs	r3, #1
 80060d0:	e24b      	b.n	800656a <HAL_RCC_OscConfig+0x616>
 80060d2:	4b6b      	ldr	r3, [pc, #428]	@ (8006280 <HAL_RCC_OscConfig+0x32c>)
 80060d4:	681b      	ldr	r3, [r3, #0]
 80060d6:	22f8      	movs	r2, #248	@ 0xf8
 80060d8:	4393      	bics	r3, r2
 80060da:	0019      	movs	r1, r3
 80060dc:	687b      	ldr	r3, [r7, #4]
 80060de:	691b      	ldr	r3, [r3, #16]
 80060e0:	00da      	lsls	r2, r3, #3
 80060e2:	4b67      	ldr	r3, [pc, #412]	@ (8006280 <HAL_RCC_OscConfig+0x32c>)
 80060e4:	430a      	orrs	r2, r1
 80060e6:	601a      	str	r2, [r3, #0]
 80060e8:	e041      	b.n	800616e <HAL_RCC_OscConfig+0x21a>
 80060ea:	687b      	ldr	r3, [r7, #4]
 80060ec:	68db      	ldr	r3, [r3, #12]
 80060ee:	2b00      	cmp	r3, #0
 80060f0:	d024      	beq.n	800613c <HAL_RCC_OscConfig+0x1e8>
 80060f2:	4b63      	ldr	r3, [pc, #396]	@ (8006280 <HAL_RCC_OscConfig+0x32c>)
 80060f4:	681a      	ldr	r2, [r3, #0]
 80060f6:	4b62      	ldr	r3, [pc, #392]	@ (8006280 <HAL_RCC_OscConfig+0x32c>)
 80060f8:	2101      	movs	r1, #1
 80060fa:	430a      	orrs	r2, r1
 80060fc:	601a      	str	r2, [r3, #0]
 80060fe:	f7fe ff03 	bl	8004f08 <HAL_GetTick>
 8006102:	0003      	movs	r3, r0
 8006104:	61bb      	str	r3, [r7, #24]
 8006106:	e008      	b.n	800611a <HAL_RCC_OscConfig+0x1c6>
 8006108:	f7fe fefe 	bl	8004f08 <HAL_GetTick>
 800610c:	0002      	movs	r2, r0
 800610e:	69bb      	ldr	r3, [r7, #24]
 8006110:	1ad3      	subs	r3, r2, r3
 8006112:	2b02      	cmp	r3, #2
 8006114:	d901      	bls.n	800611a <HAL_RCC_OscConfig+0x1c6>
 8006116:	2303      	movs	r3, #3
 8006118:	e227      	b.n	800656a <HAL_RCC_OscConfig+0x616>
 800611a:	4b59      	ldr	r3, [pc, #356]	@ (8006280 <HAL_RCC_OscConfig+0x32c>)
 800611c:	681b      	ldr	r3, [r3, #0]
 800611e:	2202      	movs	r2, #2
 8006120:	4013      	ands	r3, r2
 8006122:	d0f1      	beq.n	8006108 <HAL_RCC_OscConfig+0x1b4>
 8006124:	4b56      	ldr	r3, [pc, #344]	@ (8006280 <HAL_RCC_OscConfig+0x32c>)
 8006126:	681b      	ldr	r3, [r3, #0]
 8006128:	22f8      	movs	r2, #248	@ 0xf8
 800612a:	4393      	bics	r3, r2
 800612c:	0019      	movs	r1, r3
 800612e:	687b      	ldr	r3, [r7, #4]
 8006130:	691b      	ldr	r3, [r3, #16]
 8006132:	00da      	lsls	r2, r3, #3
 8006134:	4b52      	ldr	r3, [pc, #328]	@ (8006280 <HAL_RCC_OscConfig+0x32c>)
 8006136:	430a      	orrs	r2, r1
 8006138:	601a      	str	r2, [r3, #0]
 800613a:	e018      	b.n	800616e <HAL_RCC_OscConfig+0x21a>
 800613c:	4b50      	ldr	r3, [pc, #320]	@ (8006280 <HAL_RCC_OscConfig+0x32c>)
 800613e:	681a      	ldr	r2, [r3, #0]
 8006140:	4b4f      	ldr	r3, [pc, #316]	@ (8006280 <HAL_RCC_OscConfig+0x32c>)
 8006142:	2101      	movs	r1, #1
 8006144:	438a      	bics	r2, r1
 8006146:	601a      	str	r2, [r3, #0]
 8006148:	f7fe fede 	bl	8004f08 <HAL_GetTick>
 800614c:	0003      	movs	r3, r0
 800614e:	61bb      	str	r3, [r7, #24]
 8006150:	e008      	b.n	8006164 <HAL_RCC_OscConfig+0x210>
 8006152:	f7fe fed9 	bl	8004f08 <HAL_GetTick>
 8006156:	0002      	movs	r2, r0
 8006158:	69bb      	ldr	r3, [r7, #24]
 800615a:	1ad3      	subs	r3, r2, r3
 800615c:	2b02      	cmp	r3, #2
 800615e:	d901      	bls.n	8006164 <HAL_RCC_OscConfig+0x210>
 8006160:	2303      	movs	r3, #3
 8006162:	e202      	b.n	800656a <HAL_RCC_OscConfig+0x616>
 8006164:	4b46      	ldr	r3, [pc, #280]	@ (8006280 <HAL_RCC_OscConfig+0x32c>)
 8006166:	681b      	ldr	r3, [r3, #0]
 8006168:	2202      	movs	r2, #2
 800616a:	4013      	ands	r3, r2
 800616c:	d1f1      	bne.n	8006152 <HAL_RCC_OscConfig+0x1fe>
 800616e:	687b      	ldr	r3, [r7, #4]
 8006170:	681b      	ldr	r3, [r3, #0]
 8006172:	2208      	movs	r2, #8
 8006174:	4013      	ands	r3, r2
 8006176:	d036      	beq.n	80061e6 <HAL_RCC_OscConfig+0x292>
 8006178:	687b      	ldr	r3, [r7, #4]
 800617a:	69db      	ldr	r3, [r3, #28]
 800617c:	2b00      	cmp	r3, #0
 800617e:	d019      	beq.n	80061b4 <HAL_RCC_OscConfig+0x260>
 8006180:	4b3f      	ldr	r3, [pc, #252]	@ (8006280 <HAL_RCC_OscConfig+0x32c>)
 8006182:	6a5a      	ldr	r2, [r3, #36]	@ 0x24
 8006184:	4b3e      	ldr	r3, [pc, #248]	@ (8006280 <HAL_RCC_OscConfig+0x32c>)
 8006186:	2101      	movs	r1, #1
 8006188:	430a      	orrs	r2, r1
 800618a:	625a      	str	r2, [r3, #36]	@ 0x24
 800618c:	f7fe febc 	bl	8004f08 <HAL_GetTick>
 8006190:	0003      	movs	r3, r0
 8006192:	61bb      	str	r3, [r7, #24]
 8006194:	e008      	b.n	80061a8 <HAL_RCC_OscConfig+0x254>
 8006196:	f7fe feb7 	bl	8004f08 <HAL_GetTick>
 800619a:	0002      	movs	r2, r0
 800619c:	69bb      	ldr	r3, [r7, #24]
 800619e:	1ad3      	subs	r3, r2, r3
 80061a0:	2b02      	cmp	r3, #2
 80061a2:	d901      	bls.n	80061a8 <HAL_RCC_OscConfig+0x254>
 80061a4:	2303      	movs	r3, #3
 80061a6:	e1e0      	b.n	800656a <HAL_RCC_OscConfig+0x616>
 80061a8:	4b35      	ldr	r3, [pc, #212]	@ (8006280 <HAL_RCC_OscConfig+0x32c>)
 80061aa:	6a5b      	ldr	r3, [r3, #36]	@ 0x24
 80061ac:	2202      	movs	r2, #2
 80061ae:	4013      	ands	r3, r2
 80061b0:	d0f1      	beq.n	8006196 <HAL_RCC_OscConfig+0x242>
 80061b2:	e018      	b.n	80061e6 <HAL_RCC_OscConfig+0x292>
 80061b4:	4b32      	ldr	r3, [pc, #200]	@ (8006280 <HAL_RCC_OscConfig+0x32c>)
 80061b6:	6a5a      	ldr	r2, [r3, #36]	@ 0x24
 80061b8:	4b31      	ldr	r3, [pc, #196]	@ (8006280 <HAL_RCC_OscConfig+0x32c>)
 80061ba:	2101      	movs	r1, #1
 80061bc:	438a      	bics	r2, r1
 80061be:	625a      	str	r2, [r3, #36]	@ 0x24
 80061c0:	f7fe fea2 	bl	8004f08 <HAL_GetTick>
 80061c4:	0003      	movs	r3, r0
 80061c6:	61bb      	str	r3, [r7, #24]
 80061c8:	e008      	b.n	80061dc <HAL_RCC_OscConfig+0x288>
 80061ca:	f7fe fe9d 	bl	8004f08 <HAL_GetTick>
 80061ce:	0002      	movs	r2, r0
 80061d0:	69bb      	ldr	r3, [r7, #24]
 80061d2:	1ad3      	subs	r3, r2, r3
 80061d4:	2b02      	cmp	r3, #2
 80061d6:	d901      	bls.n	80061dc <HAL_RCC_OscConfig+0x288>
 80061d8:	2303      	movs	r3, #3
 80061da:	e1c6      	b.n	800656a <HAL_RCC_OscConfig+0x616>
 80061dc:	4b28      	ldr	r3, [pc, #160]	@ (8006280 <HAL_RCC_OscConfig+0x32c>)
 80061de:	6a5b      	ldr	r3, [r3, #36]	@ 0x24
 80061e0:	2202      	movs	r2, #2
 80061e2:	4013      	ands	r3, r2
 80061e4:	d1f1      	bne.n	80061ca <HAL_RCC_OscConfig+0x276>
 80061e6:	687b      	ldr	r3, [r7, #4]
 80061e8:	681b      	ldr	r3, [r3, #0]
 80061ea:	2204      	movs	r2, #4
 80061ec:	4013      	ands	r3, r2
 80061ee:	d100      	bne.n	80061f2 <HAL_RCC_OscConfig+0x29e>
 80061f0:	e0b4      	b.n	800635c <HAL_RCC_OscConfig+0x408>
 80061f2:	201f      	movs	r0, #31
 80061f4:	183b      	adds	r3, r7, r0
 80061f6:	2200      	movs	r2, #0
 80061f8:	701a      	strb	r2, [r3, #0]
 80061fa:	4b21      	ldr	r3, [pc, #132]	@ (8006280 <HAL_RCC_OscConfig+0x32c>)
 80061fc:	69da      	ldr	r2, [r3, #28]
 80061fe:	2380      	movs	r3, #128	@ 0x80
 8006200:	055b      	lsls	r3, r3, #21
 8006202:	4013      	ands	r3, r2
 8006204:	d110      	bne.n	8006228 <HAL_RCC_OscConfig+0x2d4>
 8006206:	4b1e      	ldr	r3, [pc, #120]	@ (8006280 <HAL_RCC_OscConfig+0x32c>)
 8006208:	69da      	ldr	r2, [r3, #28]
 800620a:	4b1d      	ldr	r3, [pc, #116]	@ (8006280 <HAL_RCC_OscConfig+0x32c>)
 800620c:	2180      	movs	r1, #128	@ 0x80
 800620e:	0549      	lsls	r1, r1, #21
 8006210:	430a      	orrs	r2, r1
 8006212:	61da      	str	r2, [r3, #28]
 8006214:	4b1a      	ldr	r3, [pc, #104]	@ (8006280 <HAL_RCC_OscConfig+0x32c>)
 8006216:	69da      	ldr	r2, [r3, #28]
 8006218:	2380      	movs	r3, #128	@ 0x80
 800621a:	055b      	lsls	r3, r3, #21
 800621c:	4013      	ands	r3, r2
 800621e:	60fb      	str	r3, [r7, #12]
 8006220:	68fb      	ldr	r3, [r7, #12]
 8006222:	183b      	adds	r3, r7, r0
 8006224:	2201      	movs	r2, #1
 8006226:	701a      	strb	r2, [r3, #0]
 8006228:	4b18      	ldr	r3, [pc, #96]	@ (800628c <HAL_RCC_OscConfig+0x338>)
 800622a:	681a      	ldr	r2, [r3, #0]
 800622c:	2380      	movs	r3, #128	@ 0x80
 800622e:	005b      	lsls	r3, r3, #1
 8006230:	4013      	ands	r3, r2
 8006232:	d11a      	bne.n	800626a <HAL_RCC_OscConfig+0x316>
 8006234:	4b15      	ldr	r3, [pc, #84]	@ (800628c <HAL_RCC_OscConfig+0x338>)
 8006236:	681a      	ldr	r2, [r3, #0]
 8006238:	4b14      	ldr	r3, [pc, #80]	@ (800628c <HAL_RCC_OscConfig+0x338>)
 800623a:	2180      	movs	r1, #128	@ 0x80
 800623c:	0049      	lsls	r1, r1, #1
 800623e:	430a      	orrs	r2, r1
 8006240:	601a      	str	r2, [r3, #0]
 8006242:	f7fe fe61 	bl	8004f08 <HAL_GetTick>
 8006246:	0003      	movs	r3, r0
 8006248:	61bb      	str	r3, [r7, #24]
 800624a:	e008      	b.n	800625e <HAL_RCC_OscConfig+0x30a>
 800624c:	f7fe fe5c 	bl	8004f08 <HAL_GetTick>
 8006250:	0002      	movs	r2, r0
 8006252:	69bb      	ldr	r3, [r7, #24]
 8006254:	1ad3      	subs	r3, r2, r3
 8006256:	2b64      	cmp	r3, #100	@ 0x64
 8006258:	d901      	bls.n	800625e <HAL_RCC_OscConfig+0x30a>
 800625a:	2303      	movs	r3, #3
 800625c:	e185      	b.n	800656a <HAL_RCC_OscConfig+0x616>
 800625e:	4b0b      	ldr	r3, [pc, #44]	@ (800628c <HAL_RCC_OscConfig+0x338>)
 8006260:	681a      	ldr	r2, [r3, #0]
 8006262:	2380      	movs	r3, #128	@ 0x80
 8006264:	005b      	lsls	r3, r3, #1
 8006266:	4013      	ands	r3, r2
 8006268:	d0f0      	beq.n	800624c <HAL_RCC_OscConfig+0x2f8>
 800626a:	687b      	ldr	r3, [r7, #4]
 800626c:	689b      	ldr	r3, [r3, #8]
 800626e:	2b01      	cmp	r3, #1
 8006270:	d10e      	bne.n	8006290 <HAL_RCC_OscConfig+0x33c>
 8006272:	4b03      	ldr	r3, [pc, #12]	@ (8006280 <HAL_RCC_OscConfig+0x32c>)
 8006274:	6a1a      	ldr	r2, [r3, #32]
 8006276:	4b02      	ldr	r3, [pc, #8]	@ (8006280 <HAL_RCC_OscConfig+0x32c>)
 8006278:	2101      	movs	r1, #1
 800627a:	430a      	orrs	r2, r1
 800627c:	621a      	str	r2, [r3, #32]
 800627e:	e035      	b.n	80062ec <HAL_RCC_OscConfig+0x398>
 8006280:	40021000 	.word	0x40021000
 8006284:	fffeffff 	.word	0xfffeffff
 8006288:	fffbffff 	.word	0xfffbffff
 800628c:	40007000 	.word	0x40007000
 8006290:	687b      	ldr	r3, [r7, #4]
 8006292:	689b      	ldr	r3, [r3, #8]
 8006294:	2b00      	cmp	r3, #0
 8006296:	d10c      	bne.n	80062b2 <HAL_RCC_OscConfig+0x35e>
 8006298:	4bb6      	ldr	r3, [pc, #728]	@ (8006574 <HAL_RCC_OscConfig+0x620>)
 800629a:	6a1a      	ldr	r2, [r3, #32]
 800629c:	4bb5      	ldr	r3, [pc, #724]	@ (8006574 <HAL_RCC_OscConfig+0x620>)
 800629e:	2101      	movs	r1, #1
 80062a0:	438a      	bics	r2, r1
 80062a2:	621a      	str	r2, [r3, #32]
 80062a4:	4bb3      	ldr	r3, [pc, #716]	@ (8006574 <HAL_RCC_OscConfig+0x620>)
 80062a6:	6a1a      	ldr	r2, [r3, #32]
 80062a8:	4bb2      	ldr	r3, [pc, #712]	@ (8006574 <HAL_RCC_OscConfig+0x620>)
 80062aa:	2104      	movs	r1, #4
 80062ac:	438a      	bics	r2, r1
 80062ae:	621a      	str	r2, [r3, #32]
 80062b0:	e01c      	b.n	80062ec <HAL_RCC_OscConfig+0x398>
 80062b2:	687b      	ldr	r3, [r7, #4]
 80062b4:	689b      	ldr	r3, [r3, #8]
 80062b6:	2b05      	cmp	r3, #5
 80062b8:	d10c      	bne.n	80062d4 <HAL_RCC_OscConfig+0x380>
 80062ba:	4bae      	ldr	r3, [pc, #696]	@ (8006574 <HAL_RCC_OscConfig+0x620>)
 80062bc:	6a1a      	ldr	r2, [r3, #32]
 80062be:	4bad      	ldr	r3, [pc, #692]	@ (8006574 <HAL_RCC_OscConfig+0x620>)
 80062c0:	2104      	movs	r1, #4
 80062c2:	430a      	orrs	r2, r1
 80062c4:	621a      	str	r2, [r3, #32]
 80062c6:	4bab      	ldr	r3, [pc, #684]	@ (8006574 <HAL_RCC_OscConfig+0x620>)
 80062c8:	6a1a      	ldr	r2, [r3, #32]
 80062ca:	4baa      	ldr	r3, [pc, #680]	@ (8006574 <HAL_RCC_OscConfig+0x620>)
 80062cc:	2101      	movs	r1, #1
 80062ce:	430a      	orrs	r2, r1
 80062d0:	621a      	str	r2, [r3, #32]
 80062d2:	e00b      	b.n	80062ec <HAL_RCC_OscConfig+0x398>
 80062d4:	4ba7      	ldr	r3, [pc, #668]	@ (8006574 <HAL_RCC_OscConfig+0x620>)
 80062d6:	6a1a      	ldr	r2, [r3, #32]
 80062d8:	4ba6      	ldr	r3, [pc, #664]	@ (8006574 <HAL_RCC_OscConfig+0x620>)
 80062da:	2101      	movs	r1, #1
 80062dc:	438a      	bics	r2, r1
 80062de:	621a      	str	r2, [r3, #32]
 80062e0:	4ba4      	ldr	r3, [pc, #656]	@ (8006574 <HAL_RCC_OscConfig+0x620>)
 80062e2:	6a1a      	ldr	r2, [r3, #32]
 80062e4:	4ba3      	ldr	r3, [pc, #652]	@ (8006574 <HAL_RCC_OscConfig+0x620>)
 80062e6:	2104      	movs	r1, #4
 80062e8:	438a      	bics	r2, r1
 80062ea:	621a      	str	r2, [r3, #32]
 80062ec:	687b      	ldr	r3, [r7, #4]
 80062ee:	689b      	ldr	r3, [r3, #8]
 80062f0:	2b00      	cmp	r3, #0
 80062f2:	d014      	beq.n	800631e <HAL_RCC_OscConfig+0x3ca>
 80062f4:	f7fe fe08 	bl	8004f08 <HAL_GetTick>
 80062f8:	0003      	movs	r3, r0
 80062fa:	61bb      	str	r3, [r7, #24]
 80062fc:	e009      	b.n	8006312 <HAL_RCC_OscConfig+0x3be>
 80062fe:	f7fe fe03 	bl	8004f08 <HAL_GetTick>
 8006302:	0002      	movs	r2, r0
 8006304:	69bb      	ldr	r3, [r7, #24]
 8006306:	1ad3      	subs	r3, r2, r3
 8006308:	4a9b      	ldr	r2, [pc, #620]	@ (8006578 <HAL_RCC_OscConfig+0x624>)
 800630a:	4293      	cmp	r3, r2
 800630c:	d901      	bls.n	8006312 <HAL_RCC_OscConfig+0x3be>
 800630e:	2303      	movs	r3, #3
 8006310:	e12b      	b.n	800656a <HAL_RCC_OscConfig+0x616>
 8006312:	4b98      	ldr	r3, [pc, #608]	@ (8006574 <HAL_RCC_OscConfig+0x620>)
 8006314:	6a1b      	ldr	r3, [r3, #32]
 8006316:	2202      	movs	r2, #2
 8006318:	4013      	ands	r3, r2
 800631a:	d0f0      	beq.n	80062fe <HAL_RCC_OscConfig+0x3aa>
 800631c:	e013      	b.n	8006346 <HAL_RCC_OscConfig+0x3f2>
 800631e:	f7fe fdf3 	bl	8004f08 <HAL_GetTick>
 8006322:	0003      	movs	r3, r0
 8006324:	61bb      	str	r3, [r7, #24]
 8006326:	e009      	b.n	800633c <HAL_RCC_OscConfig+0x3e8>
 8006328:	f7fe fdee 	bl	8004f08 <HAL_GetTick>
 800632c:	0002      	movs	r2, r0
 800632e:	69bb      	ldr	r3, [r7, #24]
 8006330:	1ad3      	subs	r3, r2, r3
 8006332:	4a91      	ldr	r2, [pc, #580]	@ (8006578 <HAL_RCC_OscConfig+0x624>)
 8006334:	4293      	cmp	r3, r2
 8006336:	d901      	bls.n	800633c <HAL_RCC_OscConfig+0x3e8>
 8006338:	2303      	movs	r3, #3
 800633a:	e116      	b.n	800656a <HAL_RCC_OscConfig+0x616>
 800633c:	4b8d      	ldr	r3, [pc, #564]	@ (8006574 <HAL_RCC_OscConfig+0x620>)
 800633e:	6a1b      	ldr	r3, [r3, #32]
 8006340:	2202      	movs	r2, #2
 8006342:	4013      	ands	r3, r2
 8006344:	d1f0      	bne.n	8006328 <HAL_RCC_OscConfig+0x3d4>
 8006346:	231f      	movs	r3, #31
 8006348:	18fb      	adds	r3, r7, r3
 800634a:	781b      	ldrb	r3, [r3, #0]
 800634c:	2b01      	cmp	r3, #1
 800634e:	d105      	bne.n	800635c <HAL_RCC_OscConfig+0x408>
 8006350:	4b88      	ldr	r3, [pc, #544]	@ (8006574 <HAL_RCC_OscConfig+0x620>)
 8006352:	69da      	ldr	r2, [r3, #28]
 8006354:	4b87      	ldr	r3, [pc, #540]	@ (8006574 <HAL_RCC_OscConfig+0x620>)
 8006356:	4989      	ldr	r1, [pc, #548]	@ (800657c <HAL_RCC_OscConfig+0x628>)
 8006358:	400a      	ands	r2, r1
 800635a:	61da      	str	r2, [r3, #28]
 800635c:	687b      	ldr	r3, [r7, #4]
 800635e:	681b      	ldr	r3, [r3, #0]
 8006360:	2210      	movs	r2, #16
 8006362:	4013      	ands	r3, r2
 8006364:	d063      	beq.n	800642e <HAL_RCC_OscConfig+0x4da>
 8006366:	687b      	ldr	r3, [r7, #4]
 8006368:	695b      	ldr	r3, [r3, #20]
 800636a:	2b01      	cmp	r3, #1
 800636c:	d12a      	bne.n	80063c4 <HAL_RCC_OscConfig+0x470>
 800636e:	4b81      	ldr	r3, [pc, #516]	@ (8006574 <HAL_RCC_OscConfig+0x620>)
 8006370:	6b5a      	ldr	r2, [r3, #52]	@ 0x34
 8006372:	4b80      	ldr	r3, [pc, #512]	@ (8006574 <HAL_RCC_OscConfig+0x620>)
 8006374:	2104      	movs	r1, #4
 8006376:	430a      	orrs	r2, r1
 8006378:	635a      	str	r2, [r3, #52]	@ 0x34
 800637a:	4b7e      	ldr	r3, [pc, #504]	@ (8006574 <HAL_RCC_OscConfig+0x620>)
 800637c:	6b5a      	ldr	r2, [r3, #52]	@ 0x34
 800637e:	4b7d      	ldr	r3, [pc, #500]	@ (8006574 <HAL_RCC_OscConfig+0x620>)
 8006380:	2101      	movs	r1, #1
 8006382:	430a      	orrs	r2, r1
 8006384:	635a      	str	r2, [r3, #52]	@ 0x34
 8006386:	f7fe fdbf 	bl	8004f08 <HAL_GetTick>
 800638a:	0003      	movs	r3, r0
 800638c:	61bb      	str	r3, [r7, #24]
 800638e:	e008      	b.n	80063a2 <HAL_RCC_OscConfig+0x44e>
 8006390:	f7fe fdba 	bl	8004f08 <HAL_GetTick>
 8006394:	0002      	movs	r2, r0
 8006396:	69bb      	ldr	r3, [r7, #24]
 8006398:	1ad3      	subs	r3, r2, r3
 800639a:	2b02      	cmp	r3, #2
 800639c:	d901      	bls.n	80063a2 <HAL_RCC_OscConfig+0x44e>
 800639e:	2303      	movs	r3, #3
 80063a0:	e0e3      	b.n	800656a <HAL_RCC_OscConfig+0x616>
 80063a2:	4b74      	ldr	r3, [pc, #464]	@ (8006574 <HAL_RCC_OscConfig+0x620>)
 80063a4:	6b5b      	ldr	r3, [r3, #52]	@ 0x34
 80063a6:	2202      	movs	r2, #2
 80063a8:	4013      	ands	r3, r2
 80063aa:	d0f1      	beq.n	8006390 <HAL_RCC_OscConfig+0x43c>
 80063ac:	4b71      	ldr	r3, [pc, #452]	@ (8006574 <HAL_RCC_OscConfig+0x620>)
 80063ae:	6b5b      	ldr	r3, [r3, #52]	@ 0x34
 80063b0:	22f8      	movs	r2, #248	@ 0xf8
 80063b2:	4393      	bics	r3, r2
 80063b4:	0019      	movs	r1, r3
 80063b6:	687b      	ldr	r3, [r7, #4]
 80063b8:	699b      	ldr	r3, [r3, #24]
 80063ba:	00da      	lsls	r2, r3, #3
 80063bc:	4b6d      	ldr	r3, [pc, #436]	@ (8006574 <HAL_RCC_OscConfig+0x620>)
 80063be:	430a      	orrs	r2, r1
 80063c0:	635a      	str	r2, [r3, #52]	@ 0x34
 80063c2:	e034      	b.n	800642e <HAL_RCC_OscConfig+0x4da>
 80063c4:	687b      	ldr	r3, [r7, #4]
 80063c6:	695b      	ldr	r3, [r3, #20]
 80063c8:	3305      	adds	r3, #5
 80063ca:	d111      	bne.n	80063f0 <HAL_RCC_OscConfig+0x49c>
 80063cc:	4b69      	ldr	r3, [pc, #420]	@ (8006574 <HAL_RCC_OscConfig+0x620>)
 80063ce:	6b5a      	ldr	r2, [r3, #52]	@ 0x34
 80063d0:	4b68      	ldr	r3, [pc, #416]	@ (8006574 <HAL_RCC_OscConfig+0x620>)
 80063d2:	2104      	movs	r1, #4
 80063d4:	438a      	bics	r2, r1
 80063d6:	635a      	str	r2, [r3, #52]	@ 0x34
 80063d8:	4b66      	ldr	r3, [pc, #408]	@ (8006574 <HAL_RCC_OscConfig+0x620>)
 80063da:	6b5b      	ldr	r3, [r3, #52]	@ 0x34
 80063dc:	22f8      	movs	r2, #248	@ 0xf8
 80063de:	4393      	bics	r3, r2
 80063e0:	0019      	movs	r1, r3
 80063e2:	687b      	ldr	r3, [r7, #4]
 80063e4:	699b      	ldr	r3, [r3, #24]
 80063e6:	00da      	lsls	r2, r3, #3
 80063e8:	4b62      	ldr	r3, [pc, #392]	@ (8006574 <HAL_RCC_OscConfig+0x620>)
 80063ea:	430a      	orrs	r2, r1
 80063ec:	635a      	str	r2, [r3, #52]	@ 0x34
 80063ee:	e01e      	b.n	800642e <HAL_RCC_OscConfig+0x4da>
 80063f0:	4b60      	ldr	r3, [pc, #384]	@ (8006574 <HAL_RCC_OscConfig+0x620>)
 80063f2:	6b5a      	ldr	r2, [r3, #52]	@ 0x34
 80063f4:	4b5f      	ldr	r3, [pc, #380]	@ (8006574 <HAL_RCC_OscConfig+0x620>)
 80063f6:	2104      	movs	r1, #4
 80063f8:	430a      	orrs	r2, r1
 80063fa:	635a      	str	r2, [r3, #52]	@ 0x34
 80063fc:	4b5d      	ldr	r3, [pc, #372]	@ (8006574 <HAL_RCC_OscConfig+0x620>)
 80063fe:	6b5a      	ldr	r2, [r3, #52]	@ 0x34
 8006400:	4b5c      	ldr	r3, [pc, #368]	@ (8006574 <HAL_RCC_OscConfig+0x620>)
 8006402:	2101      	movs	r1, #1
 8006404:	438a      	bics	r2, r1
 8006406:	635a      	str	r2, [r3, #52]	@ 0x34
 8006408:	f7fe fd7e 	bl	8004f08 <HAL_GetTick>
 800640c:	0003      	movs	r3, r0
 800640e:	61bb      	str	r3, [r7, #24]
 8006410:	e008      	b.n	8006424 <HAL_RCC_OscConfig+0x4d0>
 8006412:	f7fe fd79 	bl	8004f08 <HAL_GetTick>
 8006416:	0002      	movs	r2, r0
 8006418:	69bb      	ldr	r3, [r7, #24]
 800641a:	1ad3      	subs	r3, r2, r3
 800641c:	2b02      	cmp	r3, #2
 800641e:	d901      	bls.n	8006424 <HAL_RCC_OscConfig+0x4d0>
 8006420:	2303      	movs	r3, #3
 8006422:	e0a2      	b.n	800656a <HAL_RCC_OscConfig+0x616>
 8006424:	4b53      	ldr	r3, [pc, #332]	@ (8006574 <HAL_RCC_OscConfig+0x620>)
 8006426:	6b5b      	ldr	r3, [r3, #52]	@ 0x34
 8006428:	2202      	movs	r2, #2
 800642a:	4013      	ands	r3, r2
 800642c:	d1f1      	bne.n	8006412 <HAL_RCC_OscConfig+0x4be>
 800642e:	687b      	ldr	r3, [r7, #4]
 8006430:	6a1b      	ldr	r3, [r3, #32]
 8006432:	2b00      	cmp	r3, #0
 8006434:	d100      	bne.n	8006438 <HAL_RCC_OscConfig+0x4e4>
 8006436:	e097      	b.n	8006568 <HAL_RCC_OscConfig+0x614>
 8006438:	4b4e      	ldr	r3, [pc, #312]	@ (8006574 <HAL_RCC_OscConfig+0x620>)
 800643a:	685b      	ldr	r3, [r3, #4]
 800643c:	220c      	movs	r2, #12
 800643e:	4013      	ands	r3, r2
 8006440:	2b08      	cmp	r3, #8
 8006442:	d100      	bne.n	8006446 <HAL_RCC_OscConfig+0x4f2>
 8006444:	e06b      	b.n	800651e <HAL_RCC_OscConfig+0x5ca>
 8006446:	687b      	ldr	r3, [r7, #4]
 8006448:	6a1b      	ldr	r3, [r3, #32]
 800644a:	2b02      	cmp	r3, #2
 800644c:	d14c      	bne.n	80064e8 <HAL_RCC_OscConfig+0x594>
 800644e:	4b49      	ldr	r3, [pc, #292]	@ (8006574 <HAL_RCC_OscConfig+0x620>)
 8006450:	681a      	ldr	r2, [r3, #0]
 8006452:	4b48      	ldr	r3, [pc, #288]	@ (8006574 <HAL_RCC_OscConfig+0x620>)
 8006454:	494a      	ldr	r1, [pc, #296]	@ (8006580 <HAL_RCC_OscConfig+0x62c>)
 8006456:	400a      	ands	r2, r1
 8006458:	601a      	str	r2, [r3, #0]
 800645a:	f7fe fd55 	bl	8004f08 <HAL_GetTick>
 800645e:	0003      	movs	r3, r0
 8006460:	61bb      	str	r3, [r7, #24]
 8006462:	e008      	b.n	8006476 <HAL_RCC_OscConfig+0x522>
 8006464:	f7fe fd50 	bl	8004f08 <HAL_GetTick>
 8006468:	0002      	movs	r2, r0
 800646a:	69bb      	ldr	r3, [r7, #24]
 800646c:	1ad3      	subs	r3, r2, r3
 800646e:	2b02      	cmp	r3, #2
 8006470:	d901      	bls.n	8006476 <HAL_RCC_OscConfig+0x522>
 8006472:	2303      	movs	r3, #3
 8006474:	e079      	b.n	800656a <HAL_RCC_OscConfig+0x616>
 8006476:	4b3f      	ldr	r3, [pc, #252]	@ (8006574 <HAL_RCC_OscConfig+0x620>)
 8006478:	681a      	ldr	r2, [r3, #0]
 800647a:	2380      	movs	r3, #128	@ 0x80
 800647c:	049b      	lsls	r3, r3, #18
 800647e:	4013      	ands	r3, r2
 8006480:	d1f0      	bne.n	8006464 <HAL_RCC_OscConfig+0x510>
 8006482:	4b3c      	ldr	r3, [pc, #240]	@ (8006574 <HAL_RCC_OscConfig+0x620>)
 8006484:	6adb      	ldr	r3, [r3, #44]	@ 0x2c
 8006486:	220f      	movs	r2, #15
 8006488:	4393      	bics	r3, r2
 800648a:	0019      	movs	r1, r3
 800648c:	687b      	ldr	r3, [r7, #4]
 800648e:	6ada      	ldr	r2, [r3, #44]	@ 0x2c
 8006490:	4b38      	ldr	r3, [pc, #224]	@ (8006574 <HAL_RCC_OscConfig+0x620>)
 8006492:	430a      	orrs	r2, r1
 8006494:	62da      	str	r2, [r3, #44]	@ 0x2c
 8006496:	4b37      	ldr	r3, [pc, #220]	@ (8006574 <HAL_RCC_OscConfig+0x620>)
 8006498:	685b      	ldr	r3, [r3, #4]
 800649a:	4a3a      	ldr	r2, [pc, #232]	@ (8006584 <HAL_RCC_OscConfig+0x630>)
 800649c:	4013      	ands	r3, r2
 800649e:	0019      	movs	r1, r3
 80064a0:	687b      	ldr	r3, [r7, #4]
 80064a2:	6a9a      	ldr	r2, [r3, #40]	@ 0x28
 80064a4:	687b      	ldr	r3, [r7, #4]
 80064a6:	6a5b      	ldr	r3, [r3, #36]	@ 0x24
 80064a8:	431a      	orrs	r2, r3
 80064aa:	4b32      	ldr	r3, [pc, #200]	@ (8006574 <HAL_RCC_OscConfig+0x620>)
 80064ac:	430a      	orrs	r2, r1
 80064ae:	605a      	str	r2, [r3, #4]
 80064b0:	4b30      	ldr	r3, [pc, #192]	@ (8006574 <HAL_RCC_OscConfig+0x620>)
 80064b2:	681a      	ldr	r2, [r3, #0]
 80064b4:	4b2f      	ldr	r3, [pc, #188]	@ (8006574 <HAL_RCC_OscConfig+0x620>)
 80064b6:	2180      	movs	r1, #128	@ 0x80
 80064b8:	0449      	lsls	r1, r1, #17
 80064ba:	430a      	orrs	r2, r1
 80064bc:	601a      	str	r2, [r3, #0]
 80064be:	f7fe fd23 	bl	8004f08 <HAL_GetTick>
 80064c2:	0003      	movs	r3, r0
 80064c4:	61bb      	str	r3, [r7, #24]
 80064c6:	e008      	b.n	80064da <HAL_RCC_OscConfig+0x586>
 80064c8:	f7fe fd1e 	bl	8004f08 <HAL_GetTick>
 80064cc:	0002      	movs	r2, r0
 80064ce:	69bb      	ldr	r3, [r7, #24]
 80064d0:	1ad3      	subs	r3, r2, r3
 80064d2:	2b02      	cmp	r3, #2
 80064d4:	d901      	bls.n	80064da <HAL_RCC_OscConfig+0x586>
 80064d6:	2303      	movs	r3, #3
 80064d8:	e047      	b.n	800656a <HAL_RCC_OscConfig+0x616>
 80064da:	4b26      	ldr	r3, [pc, #152]	@ (8006574 <HAL_RCC_OscConfig+0x620>)
 80064dc:	681a      	ldr	r2, [r3, #0]
 80064de:	2380      	movs	r3, #128	@ 0x80
 80064e0:	049b      	lsls	r3, r3, #18
 80064e2:	4013      	ands	r3, r2
 80064e4:	d0f0      	beq.n	80064c8 <HAL_RCC_OscConfig+0x574>
 80064e6:	e03f      	b.n	8006568 <HAL_RCC_OscConfig+0x614>
 80064e8:	4b22      	ldr	r3, [pc, #136]	@ (8006574 <HAL_RCC_OscConfig+0x620>)
 80064ea:	681a      	ldr	r2, [r3, #0]
 80064ec:	4b21      	ldr	r3, [pc, #132]	@ (8006574 <HAL_RCC_OscConfig+0x620>)
 80064ee:	4924      	ldr	r1, [pc, #144]	@ (8006580 <HAL_RCC_OscConfig+0x62c>)
 80064f0:	400a      	ands	r2, r1
 80064f2:	601a      	str	r2, [r3, #0]
 80064f4:	f7fe fd08 	bl	8004f08 <HAL_GetTick>
 80064f8:	0003      	movs	r3, r0
 80064fa:	61bb      	str	r3, [r7, #24]
 80064fc:	e008      	b.n	8006510 <HAL_RCC_OscConfig+0x5bc>
 80064fe:	f7fe fd03 	bl	8004f08 <HAL_GetTick>
 8006502:	0002      	movs	r2, r0
 8006504:	69bb      	ldr	r3, [r7, #24]
 8006506:	1ad3      	subs	r3, r2, r3
 8006508:	2b02      	cmp	r3, #2
 800650a:	d901      	bls.n	8006510 <HAL_RCC_OscConfig+0x5bc>
 800650c:	2303      	movs	r3, #3
 800650e:	e02c      	b.n	800656a <HAL_RCC_OscConfig+0x616>
 8006510:	4b18      	ldr	r3, [pc, #96]	@ (8006574 <HAL_RCC_OscConfig+0x620>)
 8006512:	681a      	ldr	r2, [r3, #0]
 8006514:	2380      	movs	r3, #128	@ 0x80
 8006516:	049b      	lsls	r3, r3, #18
 8006518:	4013      	ands	r3, r2
 800651a:	d1f0      	bne.n	80064fe <HAL_RCC_OscConfig+0x5aa>
 800651c:	e024      	b.n	8006568 <HAL_RCC_OscConfig+0x614>
 800651e:	687b      	ldr	r3, [r7, #4]
 8006520:	6a1b      	ldr	r3, [r3, #32]
 8006522:	2b01      	cmp	r3, #1
 8006524:	d101      	bne.n	800652a <HAL_RCC_OscConfig+0x5d6>
 8006526:	2301      	movs	r3, #1
 8006528:	e01f      	b.n	800656a <HAL_RCC_OscConfig+0x616>
 800652a:	4b12      	ldr	r3, [pc, #72]	@ (8006574 <HAL_RCC_OscConfig+0x620>)
 800652c:	685b      	ldr	r3, [r3, #4]
 800652e:	617b      	str	r3, [r7, #20]
 8006530:	4b10      	ldr	r3, [pc, #64]	@ (8006574 <HAL_RCC_OscConfig+0x620>)
 8006532:	6adb      	ldr	r3, [r3, #44]	@ 0x2c
 8006534:	613b      	str	r3, [r7, #16]
 8006536:	697a      	ldr	r2, [r7, #20]
 8006538:	2380      	movs	r3, #128	@ 0x80
 800653a:	025b      	lsls	r3, r3, #9
 800653c:	401a      	ands	r2, r3
 800653e:	687b      	ldr	r3, [r7, #4]
 8006540:	6a5b      	ldr	r3, [r3, #36]	@ 0x24
 8006542:	429a      	cmp	r2, r3
 8006544:	d10e      	bne.n	8006564 <HAL_RCC_OscConfig+0x610>
 8006546:	693b      	ldr	r3, [r7, #16]
 8006548:	220f      	movs	r2, #15
 800654a:	401a      	ands	r2, r3
 800654c:	687b      	ldr	r3, [r7, #4]
 800654e:	6adb      	ldr	r3, [r3, #44]	@ 0x2c
 8006550:	429a      	cmp	r2, r3
 8006552:	d107      	bne.n	8006564 <HAL_RCC_OscConfig+0x610>
 8006554:	697a      	ldr	r2, [r7, #20]
 8006556:	23f0      	movs	r3, #240	@ 0xf0
 8006558:	039b      	lsls	r3, r3, #14
 800655a:	401a      	ands	r2, r3
 800655c:	687b      	ldr	r3, [r7, #4]
 800655e:	6a9b      	ldr	r3, [r3, #40]	@ 0x28
 8006560:	429a      	cmp	r2, r3
 8006562:	d001      	beq.n	8006568 <HAL_RCC_OscConfig+0x614>
 8006564:	2301      	movs	r3, #1
 8006566:	e000      	b.n	800656a <HAL_RCC_OscConfig+0x616>
 8006568:	2300      	movs	r3, #0
 800656a:	0018      	movs	r0, r3
 800656c:	46bd      	mov	sp, r7
 800656e:	b008      	add	sp, #32
 8006570:	bd80      	pop	{r7, pc}
 8006572:	46c0      	nop			@ (mov r8, r8)
 8006574:	40021000 	.word	0x40021000
 8006578:	00001388 	.word	0x00001388
 800657c:	efffffff 	.word	0xefffffff
 8006580:	feffffff 	.word	0xfeffffff
 8006584:	ffc2ffff 	.word	0xffc2ffff

08006588 <HAL_RCC_ClockConfig>:
 8006588:	b580      	push	{r7, lr}
 800658a:	b084      	sub	sp, #16
 800658c:	af00      	add	r7, sp, #0
 800658e:	6078      	str	r0, [r7, #4]
 8006590:	6039      	str	r1, [r7, #0]
 8006592:	687b      	ldr	r3, [r7, #4]
 8006594:	2b00      	cmp	r3, #0
 8006596:	d101      	bne.n	800659c <HAL_RCC_ClockConfig+0x14>
 8006598:	2301      	movs	r3, #1
 800659a:	e0b3      	b.n	8006704 <HAL_RCC_ClockConfig+0x17c>
 800659c:	4b5b      	ldr	r3, [pc, #364]	@ (800670c <HAL_RCC_ClockConfig+0x184>)
 800659e:	681b      	ldr	r3, [r3, #0]
 80065a0:	2201      	movs	r2, #1
 80065a2:	4013      	ands	r3, r2
 80065a4:	683a      	ldr	r2, [r7, #0]
 80065a6:	429a      	cmp	r2, r3
 80065a8:	d911      	bls.n	80065ce <HAL_RCC_ClockConfig+0x46>
 80065aa:	4b58      	ldr	r3, [pc, #352]	@ (800670c <HAL_RCC_ClockConfig+0x184>)
 80065ac:	681b      	ldr	r3, [r3, #0]
 80065ae:	2201      	movs	r2, #1
 80065b0:	4393      	bics	r3, r2
 80065b2:	0019      	movs	r1, r3
 80065b4:	4b55      	ldr	r3, [pc, #340]	@ (800670c <HAL_RCC_ClockConfig+0x184>)
 80065b6:	683a      	ldr	r2, [r7, #0]
 80065b8:	430a      	orrs	r2, r1
 80065ba:	601a      	str	r2, [r3, #0]
 80065bc:	4b53      	ldr	r3, [pc, #332]	@ (800670c <HAL_RCC_ClockConfig+0x184>)
 80065be:	681b      	ldr	r3, [r3, #0]
 80065c0:	2201      	movs	r2, #1
 80065c2:	4013      	ands	r3, r2
 80065c4:	683a      	ldr	r2, [r7, #0]
 80065c6:	429a      	cmp	r2, r3
 80065c8:	d001      	beq.n	80065ce <HAL_RCC_ClockConfig+0x46>
 80065ca:	2301      	movs	r3, #1
 80065cc:	e09a      	b.n	8006704 <HAL_RCC_ClockConfig+0x17c>
 80065ce:	687b      	ldr	r3, [r7, #4]
 80065d0:	681b      	ldr	r3, [r3, #0]
 80065d2:	2202      	movs	r2, #2
 80065d4:	4013      	ands	r3, r2
 80065d6:	d015      	beq.n	8006604 <HAL_RCC_ClockConfig+0x7c>
 80065d8:	687b      	ldr	r3, [r7, #4]
 80065da:	681b      	ldr	r3, [r3, #0]
 80065dc:	2204      	movs	r2, #4
 80065de:	4013      	ands	r3, r2
 80065e0:	d006      	beq.n	80065f0 <HAL_RCC_ClockConfig+0x68>
 80065e2:	4b4b      	ldr	r3, [pc, #300]	@ (8006710 <HAL_RCC_ClockConfig+0x188>)
 80065e4:	685a      	ldr	r2, [r3, #4]
 80065e6:	4b4a      	ldr	r3, [pc, #296]	@ (8006710 <HAL_RCC_ClockConfig+0x188>)
 80065e8:	21e0      	movs	r1, #224	@ 0xe0
 80065ea:	00c9      	lsls	r1, r1, #3
 80065ec:	430a      	orrs	r2, r1
 80065ee:	605a      	str	r2, [r3, #4]
 80065f0:	4b47      	ldr	r3, [pc, #284]	@ (8006710 <HAL_RCC_ClockConfig+0x188>)
 80065f2:	685b      	ldr	r3, [r3, #4]
 80065f4:	22f0      	movs	r2, #240	@ 0xf0
 80065f6:	4393      	bics	r3, r2
 80065f8:	0019      	movs	r1, r3
 80065fa:	687b      	ldr	r3, [r7, #4]
 80065fc:	689a      	ldr	r2, [r3, #8]
 80065fe:	4b44      	ldr	r3, [pc, #272]	@ (8006710 <HAL_RCC_ClockConfig+0x188>)
 8006600:	430a      	orrs	r2, r1
 8006602:	605a      	str	r2, [r3, #4]
 8006604:	687b      	ldr	r3, [r7, #4]
 8006606:	681b      	ldr	r3, [r3, #0]
 8006608:	2201      	movs	r2, #1
 800660a:	4013      	ands	r3, r2
 800660c:	d040      	beq.n	8006690 <HAL_RCC_ClockConfig+0x108>
 800660e:	687b      	ldr	r3, [r7, #4]
 8006610:	685b      	ldr	r3, [r3, #4]
 8006612:	2b01      	cmp	r3, #1
 8006614:	d107      	bne.n	8006626 <HAL_RCC_ClockConfig+0x9e>
 8006616:	4b3e      	ldr	r3, [pc, #248]	@ (8006710 <HAL_RCC_ClockConfig+0x188>)
 8006618:	681a      	ldr	r2, [r3, #0]
 800661a:	2380      	movs	r3, #128	@ 0x80
 800661c:	029b      	lsls	r3, r3, #10
 800661e:	4013      	ands	r3, r2
 8006620:	d114      	bne.n	800664c <HAL_RCC_ClockConfig+0xc4>
 8006622:	2301      	movs	r3, #1
 8006624:	e06e      	b.n	8006704 <HAL_RCC_ClockConfig+0x17c>
 8006626:	687b      	ldr	r3, [r7, #4]
 8006628:	685b      	ldr	r3, [r3, #4]
 800662a:	2b02      	cmp	r3, #2
 800662c:	d107      	bne.n	800663e <HAL_RCC_ClockConfig+0xb6>
 800662e:	4b38      	ldr	r3, [pc, #224]	@ (8006710 <HAL_RCC_ClockConfig+0x188>)
 8006630:	681a      	ldr	r2, [r3, #0]
 8006632:	2380      	movs	r3, #128	@ 0x80
 8006634:	049b      	lsls	r3, r3, #18
 8006636:	4013      	ands	r3, r2
 8006638:	d108      	bne.n	800664c <HAL_RCC_ClockConfig+0xc4>
 800663a:	2301      	movs	r3, #1
 800663c:	e062      	b.n	8006704 <HAL_RCC_ClockConfig+0x17c>
 800663e:	4b34      	ldr	r3, [pc, #208]	@ (8006710 <HAL_RCC_ClockConfig+0x188>)
 8006640:	681b      	ldr	r3, [r3, #0]
 8006642:	2202      	movs	r2, #2
 8006644:	4013      	ands	r3, r2
 8006646:	d101      	bne.n	800664c <HAL_RCC_ClockConfig+0xc4>
 8006648:	2301      	movs	r3, #1
 800664a:	e05b      	b.n	8006704 <HAL_RCC_ClockConfig+0x17c>
 800664c:	4b30      	ldr	r3, [pc, #192]	@ (8006710 <HAL_RCC_ClockConfig+0x188>)
 800664e:	685b      	ldr	r3, [r3, #4]
 8006650:	2203      	movs	r2, #3
 8006652:	4393      	bics	r3, r2
 8006654:	0019      	movs	r1, r3
 8006656:	687b      	ldr	r3, [r7, #4]
 8006658:	685a      	ldr	r2, [r3, #4]
 800665a:	4b2d      	ldr	r3, [pc, #180]	@ (8006710 <HAL_RCC_ClockConfig+0x188>)
 800665c:	430a      	orrs	r2, r1
 800665e:	605a      	str	r2, [r3, #4]
 8006660:	f7fe fc52 	bl	8004f08 <HAL_GetTick>
 8006664:	0003      	movs	r3, r0
 8006666:	60fb      	str	r3, [r7, #12]
 8006668:	e009      	b.n	800667e <HAL_RCC_ClockConfig+0xf6>
 800666a:	f7fe fc4d 	bl	8004f08 <HAL_GetTick>
 800666e:	0002      	movs	r2, r0
 8006670:	68fb      	ldr	r3, [r7, #12]
 8006672:	1ad3      	subs	r3, r2, r3
 8006674:	4a27      	ldr	r2, [pc, #156]	@ (8006714 <HAL_RCC_ClockConfig+0x18c>)
 8006676:	4293      	cmp	r3, r2
 8006678:	d901      	bls.n	800667e <HAL_RCC_ClockConfig+0xf6>
 800667a:	2303      	movs	r3, #3
 800667c:	e042      	b.n	8006704 <HAL_RCC_ClockConfig+0x17c>
 800667e:	4b24      	ldr	r3, [pc, #144]	@ (8006710 <HAL_RCC_ClockConfig+0x188>)
 8006680:	685b      	ldr	r3, [r3, #4]
 8006682:	220c      	movs	r2, #12
 8006684:	401a      	ands	r2, r3
 8006686:	687b      	ldr	r3, [r7, #4]
 8006688:	685b      	ldr	r3, [r3, #4]
 800668a:	009b      	lsls	r3, r3, #2
 800668c:	429a      	cmp	r2, r3
 800668e:	d1ec      	bne.n	800666a <HAL_RCC_ClockConfig+0xe2>
 8006690:	4b1e      	ldr	r3, [pc, #120]	@ (800670c <HAL_RCC_ClockConfig+0x184>)
 8006692:	681b      	ldr	r3, [r3, #0]
 8006694:	2201      	movs	r2, #1
 8006696:	4013      	ands	r3, r2
 8006698:	683a      	ldr	r2, [r7, #0]
 800669a:	429a      	cmp	r2, r3
 800669c:	d211      	bcs.n	80066c2 <HAL_RCC_ClockConfig+0x13a>
 800669e:	4b1b      	ldr	r3, [pc, #108]	@ (800670c <HAL_RCC_ClockConfig+0x184>)
 80066a0:	681b      	ldr	r3, [r3, #0]
 80066a2:	2201      	movs	r2, #1
 80066a4:	4393      	bics	r3, r2
 80066a6:	0019      	movs	r1, r3
 80066a8:	4b18      	ldr	r3, [pc, #96]	@ (800670c <HAL_RCC_ClockConfig+0x184>)
 80066aa:	683a      	ldr	r2, [r7, #0]
 80066ac:	430a      	orrs	r2, r1
 80066ae:	601a      	str	r2, [r3, #0]
 80066b0:	4b16      	ldr	r3, [pc, #88]	@ (800670c <HAL_RCC_ClockConfig+0x184>)
 80066b2:	681b      	ldr	r3, [r3, #0]
 80066b4:	2201      	movs	r2, #1
 80066b6:	4013      	ands	r3, r2
 80066b8:	683a      	ldr	r2, [r7, #0]
 80066ba:	429a      	cmp	r2, r3
 80066bc:	d001      	beq.n	80066c2 <HAL_RCC_ClockConfig+0x13a>
 80066be:	2301      	movs	r3, #1
 80066c0:	e020      	b.n	8006704 <HAL_RCC_ClockConfig+0x17c>
 80066c2:	687b      	ldr	r3, [r7, #4]
 80066c4:	681b      	ldr	r3, [r3, #0]
 80066c6:	2204      	movs	r2, #4
 80066c8:	4013      	ands	r3, r2
 80066ca:	d009      	beq.n	80066e0 <HAL_RCC_ClockConfig+0x158>
 80066cc:	4b10      	ldr	r3, [pc, #64]	@ (8006710 <HAL_RCC_ClockConfig+0x188>)
 80066ce:	685b      	ldr	r3, [r3, #4]
 80066d0:	4a11      	ldr	r2, [pc, #68]	@ (8006718 <HAL_RCC_ClockConfig+0x190>)
 80066d2:	4013      	ands	r3, r2
 80066d4:	0019      	movs	r1, r3
 80066d6:	687b      	ldr	r3, [r7, #4]
 80066d8:	68da      	ldr	r2, [r3, #12]
 80066da:	4b0d      	ldr	r3, [pc, #52]	@ (8006710 <HAL_RCC_ClockConfig+0x188>)
 80066dc:	430a      	orrs	r2, r1
 80066de:	605a      	str	r2, [r3, #4]
 80066e0:	f000 f820 	bl	8006724 <HAL_RCC_GetSysClockFreq>
 80066e4:	0001      	movs	r1, r0
 80066e6:	4b0a      	ldr	r3, [pc, #40]	@ (8006710 <HAL_RCC_ClockConfig+0x188>)
 80066e8:	685b      	ldr	r3, [r3, #4]
 80066ea:	091b      	lsrs	r3, r3, #4
 80066ec:	220f      	movs	r2, #15
 80066ee:	4013      	ands	r3, r2
 80066f0:	4a0a      	ldr	r2, [pc, #40]	@ (800671c <HAL_RCC_ClockConfig+0x194>)
 80066f2:	5cd3      	ldrb	r3, [r2, r3]
 80066f4:	000a      	movs	r2, r1
 80066f6:	40da      	lsrs	r2, r3
 80066f8:	4b09      	ldr	r3, [pc, #36]	@ (8006720 <HAL_RCC_ClockConfig+0x198>)
 80066fa:	601a      	str	r2, [r3, #0]
 80066fc:	2003      	movs	r0, #3
 80066fe:	f7fe fbbd 	bl	8004e7c <HAL_InitTick>
 8006702:	2300      	movs	r3, #0
 8006704:	0018      	movs	r0, r3
 8006706:	46bd      	mov	sp, r7
 8006708:	b004      	add	sp, #16
 800670a:	bd80      	pop	{r7, pc}
 800670c:	40022000 	.word	0x40022000
 8006710:	40021000 	.word	0x40021000
 8006714:	00001388 	.word	0x00001388
 8006718:	fffff8ff 	.word	0xfffff8ff
 800671c:	0800aae8 	.word	0x0800aae8
 8006720:	2000001c 	.word	0x2000001c

08006724 <HAL_RCC_GetSysClockFreq>:
 8006724:	b580      	push	{r7, lr}
 8006726:	b086      	sub	sp, #24
 8006728:	af00      	add	r7, sp, #0
 800672a:	2300      	movs	r3, #0
 800672c:	60fb      	str	r3, [r7, #12]
 800672e:	2300      	movs	r3, #0
 8006730:	60bb      	str	r3, [r7, #8]
 8006732:	2300      	movs	r3, #0
 8006734:	617b      	str	r3, [r7, #20]
 8006736:	2300      	movs	r3, #0
 8006738:	607b      	str	r3, [r7, #4]
 800673a:	2300      	movs	r3, #0
 800673c:	613b      	str	r3, [r7, #16]
 800673e:	4b20      	ldr	r3, [pc, #128]	@ (80067c0 <HAL_RCC_GetSysClockFreq+0x9c>)
 8006740:	685b      	ldr	r3, [r3, #4]
 8006742:	60fb      	str	r3, [r7, #12]
 8006744:	68fb      	ldr	r3, [r7, #12]
 8006746:	220c      	movs	r2, #12
 8006748:	4013      	ands	r3, r2
 800674a:	2b04      	cmp	r3, #4
 800674c:	d002      	beq.n	8006754 <HAL_RCC_GetSysClockFreq+0x30>
 800674e:	2b08      	cmp	r3, #8
 8006750:	d003      	beq.n	800675a <HAL_RCC_GetSysClockFreq+0x36>
 8006752:	e02c      	b.n	80067ae <HAL_RCC_GetSysClockFreq+0x8a>
 8006754:	4b1b      	ldr	r3, [pc, #108]	@ (80067c4 <HAL_RCC_GetSysClockFreq+0xa0>)
 8006756:	613b      	str	r3, [r7, #16]
 8006758:	e02c      	b.n	80067b4 <HAL_RCC_GetSysClockFreq+0x90>
 800675a:	68fb      	ldr	r3, [r7, #12]
 800675c:	0c9b      	lsrs	r3, r3, #18
 800675e:	220f      	movs	r2, #15
 8006760:	4013      	ands	r3, r2
 8006762:	4a19      	ldr	r2, [pc, #100]	@ (80067c8 <HAL_RCC_GetSysClockFreq+0xa4>)
 8006764:	5cd3      	ldrb	r3, [r2, r3]
 8006766:	607b      	str	r3, [r7, #4]
 8006768:	4b15      	ldr	r3, [pc, #84]	@ (80067c0 <HAL_RCC_GetSysClockFreq+0x9c>)
 800676a:	6adb      	ldr	r3, [r3, #44]	@ 0x2c
 800676c:	220f      	movs	r2, #15
 800676e:	4013      	ands	r3, r2
 8006770:	4a16      	ldr	r2, [pc, #88]	@ (80067cc <HAL_RCC_GetSysClockFreq+0xa8>)
 8006772:	5cd3      	ldrb	r3, [r2, r3]
 8006774:	60bb      	str	r3, [r7, #8]
 8006776:	68fa      	ldr	r2, [r7, #12]
 8006778:	2380      	movs	r3, #128	@ 0x80
 800677a:	025b      	lsls	r3, r3, #9
 800677c:	4013      	ands	r3, r2
 800677e:	d009      	beq.n	8006794 <HAL_RCC_GetSysClockFreq+0x70>
 8006780:	68b9      	ldr	r1, [r7, #8]
 8006782:	4810      	ldr	r0, [pc, #64]	@ (80067c4 <HAL_RCC_GetSysClockFreq+0xa0>)
 8006784:	f7f9 fcca 	bl	800011c <__udivsi3>
 8006788:	0003      	movs	r3, r0
 800678a:	001a      	movs	r2, r3
 800678c:	687b      	ldr	r3, [r7, #4]
 800678e:	4353      	muls	r3, r2
 8006790:	617b      	str	r3, [r7, #20]
 8006792:	e009      	b.n	80067a8 <HAL_RCC_GetSysClockFreq+0x84>
 8006794:	6879      	ldr	r1, [r7, #4]
 8006796:	000a      	movs	r2, r1
 8006798:	0152      	lsls	r2, r2, #5
 800679a:	1a52      	subs	r2, r2, r1
 800679c:	0193      	lsls	r3, r2, #6
 800679e:	1a9b      	subs	r3, r3, r2
 80067a0:	00db      	lsls	r3, r3, #3
 80067a2:	185b      	adds	r3, r3, r1
 80067a4:	021b      	lsls	r3, r3, #8
 80067a6:	617b      	str	r3, [r7, #20]
 80067a8:	697b      	ldr	r3, [r7, #20]
 80067aa:	613b      	str	r3, [r7, #16]
 80067ac:	e002      	b.n	80067b4 <HAL_RCC_GetSysClockFreq+0x90>
 80067ae:	4b05      	ldr	r3, [pc, #20]	@ (80067c4 <HAL_RCC_GetSysClockFreq+0xa0>)
 80067b0:	613b      	str	r3, [r7, #16]
 80067b2:	46c0      	nop			@ (mov r8, r8)
 80067b4:	693b      	ldr	r3, [r7, #16]
 80067b6:	0018      	movs	r0, r3
 80067b8:	46bd      	mov	sp, r7
 80067ba:	b006      	add	sp, #24
 80067bc:	bd80      	pop	{r7, pc}
 80067be:	46c0      	nop			@ (mov r8, r8)
 80067c0:	40021000 	.word	0x40021000
 80067c4:	007a1200 	.word	0x007a1200
 80067c8:	0800ab00 	.word	0x0800ab00
 80067cc:	0800ab10 	.word	0x0800ab10

080067d0 <HAL_RCC_GetHCLKFreq>:
 80067d0:	b580      	push	{r7, lr}
 80067d2:	af00      	add	r7, sp, #0
 80067d4:	4b02      	ldr	r3, [pc, #8]	@ (80067e0 <HAL_RCC_GetHCLKFreq+0x10>)
 80067d6:	681b      	ldr	r3, [r3, #0]
 80067d8:	0018      	movs	r0, r3
 80067da:	46bd      	mov	sp, r7
 80067dc:	bd80      	pop	{r7, pc}
 80067de:	46c0      	nop			@ (mov r8, r8)
 80067e0:	2000001c 	.word	0x2000001c

080067e4 <HAL_RCC_GetPCLK1Freq>:
 80067e4:	b580      	push	{r7, lr}
 80067e6:	af00      	add	r7, sp, #0
 80067e8:	f7ff fff2 	bl	80067d0 <HAL_RCC_GetHCLKFreq>
 80067ec:	0001      	movs	r1, r0
 80067ee:	4b06      	ldr	r3, [pc, #24]	@ (8006808 <HAL_RCC_GetPCLK1Freq+0x24>)
 80067f0:	685b      	ldr	r3, [r3, #4]
 80067f2:	0a1b      	lsrs	r3, r3, #8
 80067f4:	2207      	movs	r2, #7
 80067f6:	4013      	ands	r3, r2
 80067f8:	4a04      	ldr	r2, [pc, #16]	@ (800680c <HAL_RCC_GetPCLK1Freq+0x28>)
 80067fa:	5cd3      	ldrb	r3, [r2, r3]
 80067fc:	40d9      	lsrs	r1, r3
 80067fe:	000b      	movs	r3, r1
 8006800:	0018      	movs	r0, r3
 8006802:	46bd      	mov	sp, r7
 8006804:	bd80      	pop	{r7, pc}
 8006806:	46c0      	nop			@ (mov r8, r8)
 8006808:	40021000 	.word	0x40021000
 800680c:	0800aaf8 	.word	0x0800aaf8

08006810 <HAL_RCCEx_PeriphCLKConfig>:
 8006810:	b580      	push	{r7, lr}
 8006812:	b086      	sub	sp, #24
 8006814:	af00      	add	r7, sp, #0
 8006816:	6078      	str	r0, [r7, #4]
 8006818:	2300      	movs	r3, #0
 800681a:	613b      	str	r3, [r7, #16]
 800681c:	2300      	movs	r3, #0
 800681e:	60fb      	str	r3, [r7, #12]
 8006820:	687b      	ldr	r3, [r7, #4]
 8006822:	681a      	ldr	r2, [r3, #0]
 8006824:	2380      	movs	r3, #128	@ 0x80
 8006826:	025b      	lsls	r3, r3, #9
 8006828:	4013      	ands	r3, r2
 800682a:	d100      	bne.n	800682e <HAL_RCCEx_PeriphCLKConfig+0x1e>
 800682c:	e08e      	b.n	800694c <HAL_RCCEx_PeriphCLKConfig+0x13c>
 800682e:	2017      	movs	r0, #23
 8006830:	183b      	adds	r3, r7, r0
 8006832:	2200      	movs	r2, #0
 8006834:	701a      	strb	r2, [r3, #0]
 8006836:	4b57      	ldr	r3, [pc, #348]	@ (8006994 <HAL_RCCEx_PeriphCLKConfig+0x184>)
 8006838:	69da      	ldr	r2, [r3, #28]
 800683a:	2380      	movs	r3, #128	@ 0x80
 800683c:	055b      	lsls	r3, r3, #21
 800683e:	4013      	ands	r3, r2
 8006840:	d110      	bne.n	8006864 <HAL_RCCEx_PeriphCLKConfig+0x54>
 8006842:	4b54      	ldr	r3, [pc, #336]	@ (8006994 <HAL_RCCEx_PeriphCLKConfig+0x184>)
 8006844:	69da      	ldr	r2, [r3, #28]
 8006846:	4b53      	ldr	r3, [pc, #332]	@ (8006994 <HAL_RCCEx_PeriphCLKConfig+0x184>)
 8006848:	2180      	movs	r1, #128	@ 0x80
 800684a:	0549      	lsls	r1, r1, #21
 800684c:	430a      	orrs	r2, r1
 800684e:	61da      	str	r2, [r3, #28]
 8006850:	4b50      	ldr	r3, [pc, #320]	@ (8006994 <HAL_RCCEx_PeriphCLKConfig+0x184>)
 8006852:	69da      	ldr	r2, [r3, #28]
 8006854:	2380      	movs	r3, #128	@ 0x80
 8006856:	055b      	lsls	r3, r3, #21
 8006858:	4013      	ands	r3, r2
 800685a:	60bb      	str	r3, [r7, #8]
 800685c:	68bb      	ldr	r3, [r7, #8]
 800685e:	183b      	adds	r3, r7, r0
 8006860:	2201      	movs	r2, #1
 8006862:	701a      	strb	r2, [r3, #0]
 8006864:	4b4c      	ldr	r3, [pc, #304]	@ (8006998 <HAL_RCCEx_PeriphCLKConfig+0x188>)
 8006866:	681a      	ldr	r2, [r3, #0]
 8006868:	2380      	movs	r3, #128	@ 0x80
 800686a:	005b      	lsls	r3, r3, #1
 800686c:	4013      	ands	r3, r2
 800686e:	d11a      	bne.n	80068a6 <HAL_RCCEx_PeriphCLKConfig+0x96>
 8006870:	4b49      	ldr	r3, [pc, #292]	@ (8006998 <HAL_RCCEx_PeriphCLKConfig+0x188>)
 8006872:	681a      	ldr	r2, [r3, #0]
 8006874:	4b48      	ldr	r3, [pc, #288]	@ (8006998 <HAL_RCCEx_PeriphCLKConfig+0x188>)
 8006876:	2180      	movs	r1, #128	@ 0x80
 8006878:	0049      	lsls	r1, r1, #1
 800687a:	430a      	orrs	r2, r1
 800687c:	601a      	str	r2, [r3, #0]
 800687e:	f7fe fb43 	bl	8004f08 <HAL_GetTick>
 8006882:	0003      	movs	r3, r0
 8006884:	613b      	str	r3, [r7, #16]
 8006886:	e008      	b.n	800689a <HAL_RCCEx_PeriphCLKConfig+0x8a>
 8006888:	f7fe fb3e 	bl	8004f08 <HAL_GetTick>
 800688c:	0002      	movs	r2, r0
 800688e:	693b      	ldr	r3, [r7, #16]
 8006890:	1ad3      	subs	r3, r2, r3
 8006892:	2b64      	cmp	r3, #100	@ 0x64
 8006894:	d901      	bls.n	800689a <HAL_RCCEx_PeriphCLKConfig+0x8a>
 8006896:	2303      	movs	r3, #3
 8006898:	e077      	b.n	800698a <HAL_RCCEx_PeriphCLKConfig+0x17a>
 800689a:	4b3f      	ldr	r3, [pc, #252]	@ (8006998 <HAL_RCCEx_PeriphCLKConfig+0x188>)
 800689c:	681a      	ldr	r2, [r3, #0]
 800689e:	2380      	movs	r3, #128	@ 0x80
 80068a0:	005b      	lsls	r3, r3, #1
 80068a2:	4013      	ands	r3, r2
 80068a4:	d0f0      	beq.n	8006888 <HAL_RCCEx_PeriphCLKConfig+0x78>
 80068a6:	4b3b      	ldr	r3, [pc, #236]	@ (8006994 <HAL_RCCEx_PeriphCLKConfig+0x184>)
 80068a8:	6a1a      	ldr	r2, [r3, #32]
 80068aa:	23c0      	movs	r3, #192	@ 0xc0
 80068ac:	009b      	lsls	r3, r3, #2
 80068ae:	4013      	ands	r3, r2
 80068b0:	60fb      	str	r3, [r7, #12]
 80068b2:	68fb      	ldr	r3, [r7, #12]
 80068b4:	2b00      	cmp	r3, #0
 80068b6:	d034      	beq.n	8006922 <HAL_RCCEx_PeriphCLKConfig+0x112>
 80068b8:	687b      	ldr	r3, [r7, #4]
 80068ba:	685a      	ldr	r2, [r3, #4]
 80068bc:	23c0      	movs	r3, #192	@ 0xc0
 80068be:	009b      	lsls	r3, r3, #2
 80068c0:	4013      	ands	r3, r2
 80068c2:	68fa      	ldr	r2, [r7, #12]
 80068c4:	429a      	cmp	r2, r3
 80068c6:	d02c      	beq.n	8006922 <HAL_RCCEx_PeriphCLKConfig+0x112>
 80068c8:	4b32      	ldr	r3, [pc, #200]	@ (8006994 <HAL_RCCEx_PeriphCLKConfig+0x184>)
 80068ca:	6a1b      	ldr	r3, [r3, #32]
 80068cc:	4a33      	ldr	r2, [pc, #204]	@ (800699c <HAL_RCCEx_PeriphCLKConfig+0x18c>)
 80068ce:	4013      	ands	r3, r2
 80068d0:	60fb      	str	r3, [r7, #12]
 80068d2:	4b30      	ldr	r3, [pc, #192]	@ (8006994 <HAL_RCCEx_PeriphCLKConfig+0x184>)
 80068d4:	6a1a      	ldr	r2, [r3, #32]
 80068d6:	4b2f      	ldr	r3, [pc, #188]	@ (8006994 <HAL_RCCEx_PeriphCLKConfig+0x184>)
 80068d8:	2180      	movs	r1, #128	@ 0x80
 80068da:	0249      	lsls	r1, r1, #9
 80068dc:	430a      	orrs	r2, r1
 80068de:	621a      	str	r2, [r3, #32]
 80068e0:	4b2c      	ldr	r3, [pc, #176]	@ (8006994 <HAL_RCCEx_PeriphCLKConfig+0x184>)
 80068e2:	6a1a      	ldr	r2, [r3, #32]
 80068e4:	4b2b      	ldr	r3, [pc, #172]	@ (8006994 <HAL_RCCEx_PeriphCLKConfig+0x184>)
 80068e6:	492e      	ldr	r1, [pc, #184]	@ (80069a0 <HAL_RCCEx_PeriphCLKConfig+0x190>)
 80068e8:	400a      	ands	r2, r1
 80068ea:	621a      	str	r2, [r3, #32]
 80068ec:	4b29      	ldr	r3, [pc, #164]	@ (8006994 <HAL_RCCEx_PeriphCLKConfig+0x184>)
 80068ee:	68fa      	ldr	r2, [r7, #12]
 80068f0:	621a      	str	r2, [r3, #32]
 80068f2:	68fb      	ldr	r3, [r7, #12]
 80068f4:	2201      	movs	r2, #1
 80068f6:	4013      	ands	r3, r2
 80068f8:	d013      	beq.n	8006922 <HAL_RCCEx_PeriphCLKConfig+0x112>
 80068fa:	f7fe fb05 	bl	8004f08 <HAL_GetTick>
 80068fe:	0003      	movs	r3, r0
 8006900:	613b      	str	r3, [r7, #16]
 8006902:	e009      	b.n	8006918 <HAL_RCCEx_PeriphCLKConfig+0x108>
 8006904:	f7fe fb00 	bl	8004f08 <HAL_GetTick>
 8006908:	0002      	movs	r2, r0
 800690a:	693b      	ldr	r3, [r7, #16]
 800690c:	1ad3      	subs	r3, r2, r3
 800690e:	4a25      	ldr	r2, [pc, #148]	@ (80069a4 <HAL_RCCEx_PeriphCLKConfig+0x194>)
 8006910:	4293      	cmp	r3, r2
 8006912:	d901      	bls.n	8006918 <HAL_RCCEx_PeriphCLKConfig+0x108>
 8006914:	2303      	movs	r3, #3
 8006916:	e038      	b.n	800698a <HAL_RCCEx_PeriphCLKConfig+0x17a>
 8006918:	4b1e      	ldr	r3, [pc, #120]	@ (8006994 <HAL_RCCEx_PeriphCLKConfig+0x184>)
 800691a:	6a1b      	ldr	r3, [r3, #32]
 800691c:	2202      	movs	r2, #2
 800691e:	4013      	ands	r3, r2
 8006920:	d0f0      	beq.n	8006904 <HAL_RCCEx_PeriphCLKConfig+0xf4>
 8006922:	4b1c      	ldr	r3, [pc, #112]	@ (8006994 <HAL_RCCEx_PeriphCLKConfig+0x184>)
 8006924:	6a1b      	ldr	r3, [r3, #32]
 8006926:	4a1d      	ldr	r2, [pc, #116]	@ (800699c <HAL_RCCEx_PeriphCLKConfig+0x18c>)
 8006928:	4013      	ands	r3, r2
 800692a:	0019      	movs	r1, r3
 800692c:	687b      	ldr	r3, [r7, #4]
 800692e:	685a      	ldr	r2, [r3, #4]
 8006930:	4b18      	ldr	r3, [pc, #96]	@ (8006994 <HAL_RCCEx_PeriphCLKConfig+0x184>)
 8006932:	430a      	orrs	r2, r1
 8006934:	621a      	str	r2, [r3, #32]
 8006936:	2317      	movs	r3, #23
 8006938:	18fb      	adds	r3, r7, r3
 800693a:	781b      	ldrb	r3, [r3, #0]
 800693c:	2b01      	cmp	r3, #1
 800693e:	d105      	bne.n	800694c <HAL_RCCEx_PeriphCLKConfig+0x13c>
 8006940:	4b14      	ldr	r3, [pc, #80]	@ (8006994 <HAL_RCCEx_PeriphCLKConfig+0x184>)
 8006942:	69da      	ldr	r2, [r3, #28]
 8006944:	4b13      	ldr	r3, [pc, #76]	@ (8006994 <HAL_RCCEx_PeriphCLKConfig+0x184>)
 8006946:	4918      	ldr	r1, [pc, #96]	@ (80069a8 <HAL_RCCEx_PeriphCLKConfig+0x198>)
 8006948:	400a      	ands	r2, r1
 800694a:	61da      	str	r2, [r3, #28]
 800694c:	687b      	ldr	r3, [r7, #4]
 800694e:	681b      	ldr	r3, [r3, #0]
 8006950:	2201      	movs	r2, #1
 8006952:	4013      	ands	r3, r2
 8006954:	d009      	beq.n	800696a <HAL_RCCEx_PeriphCLKConfig+0x15a>
 8006956:	4b0f      	ldr	r3, [pc, #60]	@ (8006994 <HAL_RCCEx_PeriphCLKConfig+0x184>)
 8006958:	6b1b      	ldr	r3, [r3, #48]	@ 0x30
 800695a:	2203      	movs	r2, #3
 800695c:	4393      	bics	r3, r2
 800695e:	0019      	movs	r1, r3
 8006960:	687b      	ldr	r3, [r7, #4]
 8006962:	689a      	ldr	r2, [r3, #8]
 8006964:	4b0b      	ldr	r3, [pc, #44]	@ (8006994 <HAL_RCCEx_PeriphCLKConfig+0x184>)
 8006966:	430a      	orrs	r2, r1
 8006968:	631a      	str	r2, [r3, #48]	@ 0x30
 800696a:	687b      	ldr	r3, [r7, #4]
 800696c:	681b      	ldr	r3, [r3, #0]
 800696e:	2220      	movs	r2, #32
 8006970:	4013      	ands	r3, r2
 8006972:	d009      	beq.n	8006988 <HAL_RCCEx_PeriphCLKConfig+0x178>
 8006974:	4b07      	ldr	r3, [pc, #28]	@ (8006994 <HAL_RCCEx_PeriphCLKConfig+0x184>)
 8006976:	6b1b      	ldr	r3, [r3, #48]	@ 0x30
 8006978:	2210      	movs	r2, #16
 800697a:	4393      	bics	r3, r2
 800697c:	0019      	movs	r1, r3
 800697e:	687b      	ldr	r3, [r7, #4]
 8006980:	68da      	ldr	r2, [r3, #12]
 8006982:	4b04      	ldr	r3, [pc, #16]	@ (8006994 <HAL_RCCEx_PeriphCLKConfig+0x184>)
 8006984:	430a      	orrs	r2, r1
 8006986:	631a      	str	r2, [r3, #48]	@ 0x30
 8006988:	2300      	movs	r3, #0
 800698a:	0018      	movs	r0, r3
 800698c:	46bd      	mov	sp, r7
 800698e:	b006      	add	sp, #24
 8006990:	bd80      	pop	{r7, pc}
 8006992:	46c0      	nop			@ (mov r8, r8)
 8006994:	40021000 	.word	0x40021000
 8006998:	40007000 	.word	0x40007000
 800699c:	fffffcff 	.word	0xfffffcff
 80069a0:	fffeffff 	.word	0xfffeffff
 80069a4:	00001388 	.word	0x00001388
 80069a8:	efffffff 	.word	0xefffffff

080069ac <HAL_UART_Init>:
 80069ac:	b580      	push	{r7, lr}
 80069ae:	b082      	sub	sp, #8
 80069b0:	af00      	add	r7, sp, #0
 80069b2:	6078      	str	r0, [r7, #4]
 80069b4:	687b      	ldr	r3, [r7, #4]
 80069b6:	2b00      	cmp	r3, #0
 80069b8:	d101      	bne.n	80069be <HAL_UART_Init+0x12>
 80069ba:	2301      	movs	r3, #1
 80069bc:	e044      	b.n	8006a48 <HAL_UART_Init+0x9c>
 80069be:	687b      	ldr	r3, [r7, #4]
 80069c0:	6fdb      	ldr	r3, [r3, #124]	@ 0x7c
 80069c2:	2b00      	cmp	r3, #0
 80069c4:	d107      	bne.n	80069d6 <HAL_UART_Init+0x2a>
 80069c6:	687b      	ldr	r3, [r7, #4]
 80069c8:	2278      	movs	r2, #120	@ 0x78
 80069ca:	2100      	movs	r1, #0
 80069cc:	5499      	strb	r1, [r3, r2]
 80069ce:	687b      	ldr	r3, [r7, #4]
 80069d0:	0018      	movs	r0, r3
 80069d2:	f7fe f973 	bl	8004cbc <HAL_UART_MspInit>
 80069d6:	687b      	ldr	r3, [r7, #4]
 80069d8:	2224      	movs	r2, #36	@ 0x24
 80069da:	67da      	str	r2, [r3, #124]	@ 0x7c
 80069dc:	687b      	ldr	r3, [r7, #4]
 80069de:	681b      	ldr	r3, [r3, #0]
 80069e0:	681a      	ldr	r2, [r3, #0]
 80069e2:	687b      	ldr	r3, [r7, #4]
 80069e4:	681b      	ldr	r3, [r3, #0]
 80069e6:	2101      	movs	r1, #1
 80069e8:	438a      	bics	r2, r1
 80069ea:	601a      	str	r2, [r3, #0]
 80069ec:	687b      	ldr	r3, [r7, #4]
 80069ee:	6a5b      	ldr	r3, [r3, #36]	@ 0x24
 80069f0:	2b00      	cmp	r3, #0
 80069f2:	d003      	beq.n	80069fc <HAL_UART_Init+0x50>
 80069f4:	687b      	ldr	r3, [r7, #4]
 80069f6:	0018      	movs	r0, r3
 80069f8:	f000 fae0 	bl	8006fbc <UART_AdvFeatureConfig>
 80069fc:	687b      	ldr	r3, [r7, #4]
 80069fe:	0018      	movs	r0, r3
 8006a00:	f000 f99c 	bl	8006d3c <UART_SetConfig>
 8006a04:	0003      	movs	r3, r0
 8006a06:	2b01      	cmp	r3, #1
 8006a08:	d101      	bne.n	8006a0e <HAL_UART_Init+0x62>
 8006a0a:	2301      	movs	r3, #1
 8006a0c:	e01c      	b.n	8006a48 <HAL_UART_Init+0x9c>
 8006a0e:	687b      	ldr	r3, [r7, #4]
 8006a10:	681b      	ldr	r3, [r3, #0]
 8006a12:	685a      	ldr	r2, [r3, #4]
 8006a14:	687b      	ldr	r3, [r7, #4]
 8006a16:	681b      	ldr	r3, [r3, #0]
 8006a18:	490d      	ldr	r1, [pc, #52]	@ (8006a50 <HAL_UART_Init+0xa4>)
 8006a1a:	400a      	ands	r2, r1
 8006a1c:	605a      	str	r2, [r3, #4]
 8006a1e:	687b      	ldr	r3, [r7, #4]
 8006a20:	681b      	ldr	r3, [r3, #0]
 8006a22:	689a      	ldr	r2, [r3, #8]
 8006a24:	687b      	ldr	r3, [r7, #4]
 8006a26:	681b      	ldr	r3, [r3, #0]
 8006a28:	2108      	movs	r1, #8
 8006a2a:	438a      	bics	r2, r1
 8006a2c:	609a      	str	r2, [r3, #8]
 8006a2e:	687b      	ldr	r3, [r7, #4]
 8006a30:	681b      	ldr	r3, [r3, #0]
 8006a32:	681a      	ldr	r2, [r3, #0]
 8006a34:	687b      	ldr	r3, [r7, #4]
 8006a36:	681b      	ldr	r3, [r3, #0]
 8006a38:	2101      	movs	r1, #1
 8006a3a:	430a      	orrs	r2, r1
 8006a3c:	601a      	str	r2, [r3, #0]
 8006a3e:	687b      	ldr	r3, [r7, #4]
 8006a40:	0018      	movs	r0, r3
 8006a42:	f000 fb6f 	bl	8007124 <UART_CheckIdleState>
 8006a46:	0003      	movs	r3, r0
 8006a48:	0018      	movs	r0, r3
 8006a4a:	46bd      	mov	sp, r7
 8006a4c:	b002      	add	sp, #8
 8006a4e:	bd80      	pop	{r7, pc}
 8006a50:	fffff7ff 	.word	0xfffff7ff

08006a54 <HAL_UART_Transmit>:
 8006a54:	b580      	push	{r7, lr}
 8006a56:	b08a      	sub	sp, #40	@ 0x28
 8006a58:	af02      	add	r7, sp, #8
 8006a5a:	60f8      	str	r0, [r7, #12]
 8006a5c:	60b9      	str	r1, [r7, #8]
 8006a5e:	603b      	str	r3, [r7, #0]
 8006a60:	1dbb      	adds	r3, r7, #6
 8006a62:	801a      	strh	r2, [r3, #0]
 8006a64:	68fb      	ldr	r3, [r7, #12]
 8006a66:	6fdb      	ldr	r3, [r3, #124]	@ 0x7c
 8006a68:	2b20      	cmp	r3, #32
 8006a6a:	d000      	beq.n	8006a6e <HAL_UART_Transmit+0x1a>
 8006a6c:	e08c      	b.n	8006b88 <HAL_UART_Transmit+0x134>
 8006a6e:	68bb      	ldr	r3, [r7, #8]
 8006a70:	2b00      	cmp	r3, #0
 8006a72:	d003      	beq.n	8006a7c <HAL_UART_Transmit+0x28>
 8006a74:	1dbb      	adds	r3, r7, #6
 8006a76:	881b      	ldrh	r3, [r3, #0]
 8006a78:	2b00      	cmp	r3, #0
 8006a7a:	d101      	bne.n	8006a80 <HAL_UART_Transmit+0x2c>
 8006a7c:	2301      	movs	r3, #1
 8006a7e:	e084      	b.n	8006b8a <HAL_UART_Transmit+0x136>
 8006a80:	68fb      	ldr	r3, [r7, #12]
 8006a82:	689a      	ldr	r2, [r3, #8]
 8006a84:	2380      	movs	r3, #128	@ 0x80
 8006a86:	015b      	lsls	r3, r3, #5
 8006a88:	429a      	cmp	r2, r3
 8006a8a:	d109      	bne.n	8006aa0 <HAL_UART_Transmit+0x4c>
 8006a8c:	68fb      	ldr	r3, [r7, #12]
 8006a8e:	691b      	ldr	r3, [r3, #16]
 8006a90:	2b00      	cmp	r3, #0
 8006a92:	d105      	bne.n	8006aa0 <HAL_UART_Transmit+0x4c>
 8006a94:	68bb      	ldr	r3, [r7, #8]
 8006a96:	2201      	movs	r2, #1
 8006a98:	4013      	ands	r3, r2
 8006a9a:	d001      	beq.n	8006aa0 <HAL_UART_Transmit+0x4c>
 8006a9c:	2301      	movs	r3, #1
 8006a9e:	e074      	b.n	8006b8a <HAL_UART_Transmit+0x136>
 8006aa0:	68fb      	ldr	r3, [r7, #12]
 8006aa2:	2284      	movs	r2, #132	@ 0x84
 8006aa4:	2100      	movs	r1, #0
 8006aa6:	5099      	str	r1, [r3, r2]
 8006aa8:	68fb      	ldr	r3, [r7, #12]
 8006aaa:	2221      	movs	r2, #33	@ 0x21
 8006aac:	67da      	str	r2, [r3, #124]	@ 0x7c
 8006aae:	f7fe fa2b 	bl	8004f08 <HAL_GetTick>
 8006ab2:	0003      	movs	r3, r0
 8006ab4:	617b      	str	r3, [r7, #20]
 8006ab6:	68fb      	ldr	r3, [r7, #12]
 8006ab8:	1dba      	adds	r2, r7, #6
 8006aba:	2150      	movs	r1, #80	@ 0x50
 8006abc:	8812      	ldrh	r2, [r2, #0]
 8006abe:	525a      	strh	r2, [r3, r1]
 8006ac0:	68fb      	ldr	r3, [r7, #12]
 8006ac2:	1dba      	adds	r2, r7, #6
 8006ac4:	2152      	movs	r1, #82	@ 0x52
 8006ac6:	8812      	ldrh	r2, [r2, #0]
 8006ac8:	525a      	strh	r2, [r3, r1]
 8006aca:	68fb      	ldr	r3, [r7, #12]
 8006acc:	689a      	ldr	r2, [r3, #8]
 8006ace:	2380      	movs	r3, #128	@ 0x80
 8006ad0:	015b      	lsls	r3, r3, #5
 8006ad2:	429a      	cmp	r2, r3
 8006ad4:	d108      	bne.n	8006ae8 <HAL_UART_Transmit+0x94>
 8006ad6:	68fb      	ldr	r3, [r7, #12]
 8006ad8:	691b      	ldr	r3, [r3, #16]
 8006ada:	2b00      	cmp	r3, #0
 8006adc:	d104      	bne.n	8006ae8 <HAL_UART_Transmit+0x94>
 8006ade:	2300      	movs	r3, #0
 8006ae0:	61fb      	str	r3, [r7, #28]
 8006ae2:	68bb      	ldr	r3, [r7, #8]
 8006ae4:	61bb      	str	r3, [r7, #24]
 8006ae6:	e003      	b.n	8006af0 <HAL_UART_Transmit+0x9c>
 8006ae8:	68bb      	ldr	r3, [r7, #8]
 8006aea:	61fb      	str	r3, [r7, #28]
 8006aec:	2300      	movs	r3, #0
 8006aee:	61bb      	str	r3, [r7, #24]
 8006af0:	e02f      	b.n	8006b52 <HAL_UART_Transmit+0xfe>
 8006af2:	697a      	ldr	r2, [r7, #20]
 8006af4:	68f8      	ldr	r0, [r7, #12]
 8006af6:	683b      	ldr	r3, [r7, #0]
 8006af8:	9300      	str	r3, [sp, #0]
 8006afa:	0013      	movs	r3, r2
 8006afc:	2200      	movs	r2, #0
 8006afe:	2180      	movs	r1, #128	@ 0x80
 8006b00:	f000 fbb8 	bl	8007274 <UART_WaitOnFlagUntilTimeout>
 8006b04:	1e03      	subs	r3, r0, #0
 8006b06:	d004      	beq.n	8006b12 <HAL_UART_Transmit+0xbe>
 8006b08:	68fb      	ldr	r3, [r7, #12]
 8006b0a:	2220      	movs	r2, #32
 8006b0c:	67da      	str	r2, [r3, #124]	@ 0x7c
 8006b0e:	2303      	movs	r3, #3
 8006b10:	e03b      	b.n	8006b8a <HAL_UART_Transmit+0x136>
 8006b12:	69fb      	ldr	r3, [r7, #28]
 8006b14:	2b00      	cmp	r3, #0
 8006b16:	d10b      	bne.n	8006b30 <HAL_UART_Transmit+0xdc>
 8006b18:	69bb      	ldr	r3, [r7, #24]
 8006b1a:	881a      	ldrh	r2, [r3, #0]
 8006b1c:	68fb      	ldr	r3, [r7, #12]
 8006b1e:	681b      	ldr	r3, [r3, #0]
 8006b20:	05d2      	lsls	r2, r2, #23
 8006b22:	0dd2      	lsrs	r2, r2, #23
 8006b24:	b292      	uxth	r2, r2
 8006b26:	851a      	strh	r2, [r3, #40]	@ 0x28
 8006b28:	69bb      	ldr	r3, [r7, #24]
 8006b2a:	3302      	adds	r3, #2
 8006b2c:	61bb      	str	r3, [r7, #24]
 8006b2e:	e007      	b.n	8006b40 <HAL_UART_Transmit+0xec>
 8006b30:	69fb      	ldr	r3, [r7, #28]
 8006b32:	781a      	ldrb	r2, [r3, #0]
 8006b34:	68fb      	ldr	r3, [r7, #12]
 8006b36:	681b      	ldr	r3, [r3, #0]
 8006b38:	851a      	strh	r2, [r3, #40]	@ 0x28
 8006b3a:	69fb      	ldr	r3, [r7, #28]
 8006b3c:	3301      	adds	r3, #1
 8006b3e:	61fb      	str	r3, [r7, #28]
 8006b40:	68fb      	ldr	r3, [r7, #12]
 8006b42:	2252      	movs	r2, #82	@ 0x52
 8006b44:	5a9b      	ldrh	r3, [r3, r2]
 8006b46:	b29b      	uxth	r3, r3
 8006b48:	3b01      	subs	r3, #1
 8006b4a:	b299      	uxth	r1, r3
 8006b4c:	68fb      	ldr	r3, [r7, #12]
 8006b4e:	2252      	movs	r2, #82	@ 0x52
 8006b50:	5299      	strh	r1, [r3, r2]
 8006b52:	68fb      	ldr	r3, [r7, #12]
 8006b54:	2252      	movs	r2, #82	@ 0x52
 8006b56:	5a9b      	ldrh	r3, [r3, r2]
 8006b58:	b29b      	uxth	r3, r3
 8006b5a:	2b00      	cmp	r3, #0
 8006b5c:	d1c9      	bne.n	8006af2 <HAL_UART_Transmit+0x9e>
 8006b5e:	697a      	ldr	r2, [r7, #20]
 8006b60:	68f8      	ldr	r0, [r7, #12]
 8006b62:	683b      	ldr	r3, [r7, #0]
 8006b64:	9300      	str	r3, [sp, #0]
 8006b66:	0013      	movs	r3, r2
 8006b68:	2200      	movs	r2, #0
 8006b6a:	2140      	movs	r1, #64	@ 0x40
 8006b6c:	f000 fb82 	bl	8007274 <UART_WaitOnFlagUntilTimeout>
 8006b70:	1e03      	subs	r3, r0, #0
 8006b72:	d004      	beq.n	8006b7e <HAL_UART_Transmit+0x12a>
 8006b74:	68fb      	ldr	r3, [r7, #12]
 8006b76:	2220      	movs	r2, #32
 8006b78:	67da      	str	r2, [r3, #124]	@ 0x7c
 8006b7a:	2303      	movs	r3, #3
 8006b7c:	e005      	b.n	8006b8a <HAL_UART_Transmit+0x136>
 8006b7e:	68fb      	ldr	r3, [r7, #12]
 8006b80:	2220      	movs	r2, #32
 8006b82:	67da      	str	r2, [r3, #124]	@ 0x7c
 8006b84:	2300      	movs	r3, #0
 8006b86:	e000      	b.n	8006b8a <HAL_UART_Transmit+0x136>
 8006b88:	2302      	movs	r3, #2
 8006b8a:	0018      	movs	r0, r3
 8006b8c:	46bd      	mov	sp, r7
 8006b8e:	b008      	add	sp, #32
 8006b90:	bd80      	pop	{r7, pc}
	...

08006b94 <HAL_UART_Receive>:
 8006b94:	b580      	push	{r7, lr}
 8006b96:	b08a      	sub	sp, #40	@ 0x28
 8006b98:	af02      	add	r7, sp, #8
 8006b9a:	60f8      	str	r0, [r7, #12]
 8006b9c:	60b9      	str	r1, [r7, #8]
 8006b9e:	603b      	str	r3, [r7, #0]
 8006ba0:	1dbb      	adds	r3, r7, #6
 8006ba2:	801a      	strh	r2, [r3, #0]
 8006ba4:	68fb      	ldr	r3, [r7, #12]
 8006ba6:	2280      	movs	r2, #128	@ 0x80
 8006ba8:	589b      	ldr	r3, [r3, r2]
 8006baa:	2b20      	cmp	r3, #32
 8006bac:	d000      	beq.n	8006bb0 <HAL_UART_Receive+0x1c>
 8006bae:	e0bd      	b.n	8006d2c <HAL_UART_Receive+0x198>
 8006bb0:	68bb      	ldr	r3, [r7, #8]
 8006bb2:	2b00      	cmp	r3, #0
 8006bb4:	d003      	beq.n	8006bbe <HAL_UART_Receive+0x2a>
 8006bb6:	1dbb      	adds	r3, r7, #6
 8006bb8:	881b      	ldrh	r3, [r3, #0]
 8006bba:	2b00      	cmp	r3, #0
 8006bbc:	d101      	bne.n	8006bc2 <HAL_UART_Receive+0x2e>
 8006bbe:	2301      	movs	r3, #1
 8006bc0:	e0b5      	b.n	8006d2e <HAL_UART_Receive+0x19a>
 8006bc2:	68fb      	ldr	r3, [r7, #12]
 8006bc4:	689a      	ldr	r2, [r3, #8]
 8006bc6:	2380      	movs	r3, #128	@ 0x80
 8006bc8:	015b      	lsls	r3, r3, #5
 8006bca:	429a      	cmp	r2, r3
 8006bcc:	d109      	bne.n	8006be2 <HAL_UART_Receive+0x4e>
 8006bce:	68fb      	ldr	r3, [r7, #12]
 8006bd0:	691b      	ldr	r3, [r3, #16]
 8006bd2:	2b00      	cmp	r3, #0
 8006bd4:	d105      	bne.n	8006be2 <HAL_UART_Receive+0x4e>
 8006bd6:	68bb      	ldr	r3, [r7, #8]
 8006bd8:	2201      	movs	r2, #1
 8006bda:	4013      	ands	r3, r2
 8006bdc:	d001      	beq.n	8006be2 <HAL_UART_Receive+0x4e>
 8006bde:	2301      	movs	r3, #1
 8006be0:	e0a5      	b.n	8006d2e <HAL_UART_Receive+0x19a>
 8006be2:	68fb      	ldr	r3, [r7, #12]
 8006be4:	2284      	movs	r2, #132	@ 0x84
 8006be6:	2100      	movs	r1, #0
 8006be8:	5099      	str	r1, [r3, r2]
 8006bea:	68fb      	ldr	r3, [r7, #12]
 8006bec:	2280      	movs	r2, #128	@ 0x80
 8006bee:	2122      	movs	r1, #34	@ 0x22
 8006bf0:	5099      	str	r1, [r3, r2]
 8006bf2:	68fb      	ldr	r3, [r7, #12]
 8006bf4:	2200      	movs	r2, #0
 8006bf6:	661a      	str	r2, [r3, #96]	@ 0x60
 8006bf8:	f7fe f986 	bl	8004f08 <HAL_GetTick>
 8006bfc:	0003      	movs	r3, r0
 8006bfe:	617b      	str	r3, [r7, #20]
 8006c00:	68fb      	ldr	r3, [r7, #12]
 8006c02:	1dba      	adds	r2, r7, #6
 8006c04:	2158      	movs	r1, #88	@ 0x58
 8006c06:	8812      	ldrh	r2, [r2, #0]
 8006c08:	525a      	strh	r2, [r3, r1]
 8006c0a:	68fb      	ldr	r3, [r7, #12]
 8006c0c:	1dba      	adds	r2, r7, #6
 8006c0e:	215a      	movs	r1, #90	@ 0x5a
 8006c10:	8812      	ldrh	r2, [r2, #0]
 8006c12:	525a      	strh	r2, [r3, r1]
 8006c14:	68fb      	ldr	r3, [r7, #12]
 8006c16:	689a      	ldr	r2, [r3, #8]
 8006c18:	2380      	movs	r3, #128	@ 0x80
 8006c1a:	015b      	lsls	r3, r3, #5
 8006c1c:	429a      	cmp	r2, r3
 8006c1e:	d10d      	bne.n	8006c3c <HAL_UART_Receive+0xa8>
 8006c20:	68fb      	ldr	r3, [r7, #12]
 8006c22:	691b      	ldr	r3, [r3, #16]
 8006c24:	2b00      	cmp	r3, #0
 8006c26:	d104      	bne.n	8006c32 <HAL_UART_Receive+0x9e>
 8006c28:	68fb      	ldr	r3, [r7, #12]
 8006c2a:	225c      	movs	r2, #92	@ 0x5c
 8006c2c:	4942      	ldr	r1, [pc, #264]	@ (8006d38 <HAL_UART_Receive+0x1a4>)
 8006c2e:	5299      	strh	r1, [r3, r2]
 8006c30:	e01a      	b.n	8006c68 <HAL_UART_Receive+0xd4>
 8006c32:	68fb      	ldr	r3, [r7, #12]
 8006c34:	225c      	movs	r2, #92	@ 0x5c
 8006c36:	21ff      	movs	r1, #255	@ 0xff
 8006c38:	5299      	strh	r1, [r3, r2]
 8006c3a:	e015      	b.n	8006c68 <HAL_UART_Receive+0xd4>
 8006c3c:	68fb      	ldr	r3, [r7, #12]
 8006c3e:	689b      	ldr	r3, [r3, #8]
 8006c40:	2b00      	cmp	r3, #0
 8006c42:	d10d      	bne.n	8006c60 <HAL_UART_Receive+0xcc>
 8006c44:	68fb      	ldr	r3, [r7, #12]
 8006c46:	691b      	ldr	r3, [r3, #16]
 8006c48:	2b00      	cmp	r3, #0
 8006c4a:	d104      	bne.n	8006c56 <HAL_UART_Receive+0xc2>
 8006c4c:	68fb      	ldr	r3, [r7, #12]
 8006c4e:	225c      	movs	r2, #92	@ 0x5c
 8006c50:	21ff      	movs	r1, #255	@ 0xff
 8006c52:	5299      	strh	r1, [r3, r2]
 8006c54:	e008      	b.n	8006c68 <HAL_UART_Receive+0xd4>
 8006c56:	68fb      	ldr	r3, [r7, #12]
 8006c58:	225c      	movs	r2, #92	@ 0x5c
 8006c5a:	217f      	movs	r1, #127	@ 0x7f
 8006c5c:	5299      	strh	r1, [r3, r2]
 8006c5e:	e003      	b.n	8006c68 <HAL_UART_Receive+0xd4>
 8006c60:	68fb      	ldr	r3, [r7, #12]
 8006c62:	225c      	movs	r2, #92	@ 0x5c
 8006c64:	2100      	movs	r1, #0
 8006c66:	5299      	strh	r1, [r3, r2]
 8006c68:	2312      	movs	r3, #18
 8006c6a:	18fb      	adds	r3, r7, r3
 8006c6c:	68fa      	ldr	r2, [r7, #12]
 8006c6e:	215c      	movs	r1, #92	@ 0x5c
 8006c70:	5a52      	ldrh	r2, [r2, r1]
 8006c72:	801a      	strh	r2, [r3, #0]
 8006c74:	68fb      	ldr	r3, [r7, #12]
 8006c76:	689a      	ldr	r2, [r3, #8]
 8006c78:	2380      	movs	r3, #128	@ 0x80
 8006c7a:	015b      	lsls	r3, r3, #5
 8006c7c:	429a      	cmp	r2, r3
 8006c7e:	d108      	bne.n	8006c92 <HAL_UART_Receive+0xfe>
 8006c80:	68fb      	ldr	r3, [r7, #12]
 8006c82:	691b      	ldr	r3, [r3, #16]
 8006c84:	2b00      	cmp	r3, #0
 8006c86:	d104      	bne.n	8006c92 <HAL_UART_Receive+0xfe>
 8006c88:	2300      	movs	r3, #0
 8006c8a:	61fb      	str	r3, [r7, #28]
 8006c8c:	68bb      	ldr	r3, [r7, #8]
 8006c8e:	61bb      	str	r3, [r7, #24]
 8006c90:	e003      	b.n	8006c9a <HAL_UART_Receive+0x106>
 8006c92:	68bb      	ldr	r3, [r7, #8]
 8006c94:	61fb      	str	r3, [r7, #28]
 8006c96:	2300      	movs	r3, #0
 8006c98:	61bb      	str	r3, [r7, #24]
 8006c9a:	e03b      	b.n	8006d14 <HAL_UART_Receive+0x180>
 8006c9c:	697a      	ldr	r2, [r7, #20]
 8006c9e:	68f8      	ldr	r0, [r7, #12]
 8006ca0:	683b      	ldr	r3, [r7, #0]
 8006ca2:	9300      	str	r3, [sp, #0]
 8006ca4:	0013      	movs	r3, r2
 8006ca6:	2200      	movs	r2, #0
 8006ca8:	2120      	movs	r1, #32
 8006caa:	f000 fae3 	bl	8007274 <UART_WaitOnFlagUntilTimeout>
 8006cae:	1e03      	subs	r3, r0, #0
 8006cb0:	d005      	beq.n	8006cbe <HAL_UART_Receive+0x12a>
 8006cb2:	68fb      	ldr	r3, [r7, #12]
 8006cb4:	2280      	movs	r2, #128	@ 0x80
 8006cb6:	2120      	movs	r1, #32
 8006cb8:	5099      	str	r1, [r3, r2]
 8006cba:	2303      	movs	r3, #3
 8006cbc:	e037      	b.n	8006d2e <HAL_UART_Receive+0x19a>
 8006cbe:	69fb      	ldr	r3, [r7, #28]
 8006cc0:	2b00      	cmp	r3, #0
 8006cc2:	d10e      	bne.n	8006ce2 <HAL_UART_Receive+0x14e>
 8006cc4:	68fb      	ldr	r3, [r7, #12]
 8006cc6:	681b      	ldr	r3, [r3, #0]
 8006cc8:	8c9b      	ldrh	r3, [r3, #36]	@ 0x24
 8006cca:	b29b      	uxth	r3, r3
 8006ccc:	2212      	movs	r2, #18
 8006cce:	18ba      	adds	r2, r7, r2
 8006cd0:	8812      	ldrh	r2, [r2, #0]
 8006cd2:	4013      	ands	r3, r2
 8006cd4:	b29a      	uxth	r2, r3
 8006cd6:	69bb      	ldr	r3, [r7, #24]
 8006cd8:	801a      	strh	r2, [r3, #0]
 8006cda:	69bb      	ldr	r3, [r7, #24]
 8006cdc:	3302      	adds	r3, #2
 8006cde:	61bb      	str	r3, [r7, #24]
 8006ce0:	e00f      	b.n	8006d02 <HAL_UART_Receive+0x16e>
 8006ce2:	68fb      	ldr	r3, [r7, #12]
 8006ce4:	681b      	ldr	r3, [r3, #0]
 8006ce6:	8c9b      	ldrh	r3, [r3, #36]	@ 0x24
 8006ce8:	b29b      	uxth	r3, r3
 8006cea:	b2db      	uxtb	r3, r3
 8006cec:	2212      	movs	r2, #18
 8006cee:	18ba      	adds	r2, r7, r2
 8006cf0:	8812      	ldrh	r2, [r2, #0]
 8006cf2:	b2d2      	uxtb	r2, r2
 8006cf4:	4013      	ands	r3, r2
 8006cf6:	b2da      	uxtb	r2, r3
 8006cf8:	69fb      	ldr	r3, [r7, #28]
 8006cfa:	701a      	strb	r2, [r3, #0]
 8006cfc:	69fb      	ldr	r3, [r7, #28]
 8006cfe:	3301      	adds	r3, #1
 8006d00:	61fb      	str	r3, [r7, #28]
 8006d02:	68fb      	ldr	r3, [r7, #12]
 8006d04:	225a      	movs	r2, #90	@ 0x5a
 8006d06:	5a9b      	ldrh	r3, [r3, r2]
 8006d08:	b29b      	uxth	r3, r3
 8006d0a:	3b01      	subs	r3, #1
 8006d0c:	b299      	uxth	r1, r3
 8006d0e:	68fb      	ldr	r3, [r7, #12]
 8006d10:	225a      	movs	r2, #90	@ 0x5a
 8006d12:	5299      	strh	r1, [r3, r2]
 8006d14:	68fb      	ldr	r3, [r7, #12]
 8006d16:	225a      	movs	r2, #90	@ 0x5a
 8006d18:	5a9b      	ldrh	r3, [r3, r2]
 8006d1a:	b29b      	uxth	r3, r3
 8006d1c:	2b00      	cmp	r3, #0
 8006d1e:	d1bd      	bne.n	8006c9c <HAL_UART_Receive+0x108>
 8006d20:	68fb      	ldr	r3, [r7, #12]
 8006d22:	2280      	movs	r2, #128	@ 0x80
 8006d24:	2120      	movs	r1, #32
 8006d26:	5099      	str	r1, [r3, r2]
 8006d28:	2300      	movs	r3, #0
 8006d2a:	e000      	b.n	8006d2e <HAL_UART_Receive+0x19a>
 8006d2c:	2302      	movs	r3, #2
 8006d2e:	0018      	movs	r0, r3
 8006d30:	46bd      	mov	sp, r7
 8006d32:	b008      	add	sp, #32
 8006d34:	bd80      	pop	{r7, pc}
 8006d36:	46c0      	nop			@ (mov r8, r8)
 8006d38:	000001ff 	.word	0x000001ff

08006d3c <UART_SetConfig>:
 8006d3c:	b580      	push	{r7, lr}
 8006d3e:	b088      	sub	sp, #32
 8006d40:	af00      	add	r7, sp, #0
 8006d42:	6078      	str	r0, [r7, #4]
 8006d44:	231e      	movs	r3, #30
 8006d46:	18fb      	adds	r3, r7, r3
 8006d48:	2200      	movs	r2, #0
 8006d4a:	701a      	strb	r2, [r3, #0]
 8006d4c:	687b      	ldr	r3, [r7, #4]
 8006d4e:	689a      	ldr	r2, [r3, #8]
 8006d50:	687b      	ldr	r3, [r7, #4]
 8006d52:	691b      	ldr	r3, [r3, #16]
 8006d54:	431a      	orrs	r2, r3
 8006d56:	687b      	ldr	r3, [r7, #4]
 8006d58:	695b      	ldr	r3, [r3, #20]
 8006d5a:	431a      	orrs	r2, r3
 8006d5c:	687b      	ldr	r3, [r7, #4]
 8006d5e:	69db      	ldr	r3, [r3, #28]
 8006d60:	4313      	orrs	r3, r2
 8006d62:	617b      	str	r3, [r7, #20]
 8006d64:	687b      	ldr	r3, [r7, #4]
 8006d66:	681b      	ldr	r3, [r3, #0]
 8006d68:	681b      	ldr	r3, [r3, #0]
 8006d6a:	4a8d      	ldr	r2, [pc, #564]	@ (8006fa0 <UART_SetConfig+0x264>)
 8006d6c:	4013      	ands	r3, r2
 8006d6e:	0019      	movs	r1, r3
 8006d70:	687b      	ldr	r3, [r7, #4]
 8006d72:	681b      	ldr	r3, [r3, #0]
 8006d74:	697a      	ldr	r2, [r7, #20]
 8006d76:	430a      	orrs	r2, r1
 8006d78:	601a      	str	r2, [r3, #0]
 8006d7a:	687b      	ldr	r3, [r7, #4]
 8006d7c:	681b      	ldr	r3, [r3, #0]
 8006d7e:	685b      	ldr	r3, [r3, #4]
 8006d80:	4a88      	ldr	r2, [pc, #544]	@ (8006fa4 <UART_SetConfig+0x268>)
 8006d82:	4013      	ands	r3, r2
 8006d84:	0019      	movs	r1, r3
 8006d86:	687b      	ldr	r3, [r7, #4]
 8006d88:	68da      	ldr	r2, [r3, #12]
 8006d8a:	687b      	ldr	r3, [r7, #4]
 8006d8c:	681b      	ldr	r3, [r3, #0]
 8006d8e:	430a      	orrs	r2, r1
 8006d90:	605a      	str	r2, [r3, #4]
 8006d92:	687b      	ldr	r3, [r7, #4]
 8006d94:	699b      	ldr	r3, [r3, #24]
 8006d96:	617b      	str	r3, [r7, #20]
 8006d98:	687b      	ldr	r3, [r7, #4]
 8006d9a:	6a1b      	ldr	r3, [r3, #32]
 8006d9c:	697a      	ldr	r2, [r7, #20]
 8006d9e:	4313      	orrs	r3, r2
 8006da0:	617b      	str	r3, [r7, #20]
 8006da2:	687b      	ldr	r3, [r7, #4]
 8006da4:	681b      	ldr	r3, [r3, #0]
 8006da6:	689b      	ldr	r3, [r3, #8]
 8006da8:	4a7f      	ldr	r2, [pc, #508]	@ (8006fa8 <UART_SetConfig+0x26c>)
 8006daa:	4013      	ands	r3, r2
 8006dac:	0019      	movs	r1, r3
 8006dae:	687b      	ldr	r3, [r7, #4]
 8006db0:	681b      	ldr	r3, [r3, #0]
 8006db2:	697a      	ldr	r2, [r7, #20]
 8006db4:	430a      	orrs	r2, r1
 8006db6:	609a      	str	r2, [r3, #8]
 8006db8:	687b      	ldr	r3, [r7, #4]
 8006dba:	681b      	ldr	r3, [r3, #0]
 8006dbc:	4a7b      	ldr	r2, [pc, #492]	@ (8006fac <UART_SetConfig+0x270>)
 8006dbe:	4293      	cmp	r3, r2
 8006dc0:	d127      	bne.n	8006e12 <UART_SetConfig+0xd6>
 8006dc2:	4b7b      	ldr	r3, [pc, #492]	@ (8006fb0 <UART_SetConfig+0x274>)
 8006dc4:	6b1b      	ldr	r3, [r3, #48]	@ 0x30
 8006dc6:	2203      	movs	r2, #3
 8006dc8:	4013      	ands	r3, r2
 8006dca:	2b03      	cmp	r3, #3
 8006dcc:	d00d      	beq.n	8006dea <UART_SetConfig+0xae>
 8006dce:	d81b      	bhi.n	8006e08 <UART_SetConfig+0xcc>
 8006dd0:	2b02      	cmp	r3, #2
 8006dd2:	d014      	beq.n	8006dfe <UART_SetConfig+0xc2>
 8006dd4:	d818      	bhi.n	8006e08 <UART_SetConfig+0xcc>
 8006dd6:	2b00      	cmp	r3, #0
 8006dd8:	d002      	beq.n	8006de0 <UART_SetConfig+0xa4>
 8006dda:	2b01      	cmp	r3, #1
 8006ddc:	d00a      	beq.n	8006df4 <UART_SetConfig+0xb8>
 8006dde:	e013      	b.n	8006e08 <UART_SetConfig+0xcc>
 8006de0:	231f      	movs	r3, #31
 8006de2:	18fb      	adds	r3, r7, r3
 8006de4:	2200      	movs	r2, #0
 8006de6:	701a      	strb	r2, [r3, #0]
 8006de8:	e021      	b.n	8006e2e <UART_SetConfig+0xf2>
 8006dea:	231f      	movs	r3, #31
 8006dec:	18fb      	adds	r3, r7, r3
 8006dee:	2202      	movs	r2, #2
 8006df0:	701a      	strb	r2, [r3, #0]
 8006df2:	e01c      	b.n	8006e2e <UART_SetConfig+0xf2>
 8006df4:	231f      	movs	r3, #31
 8006df6:	18fb      	adds	r3, r7, r3
 8006df8:	2204      	movs	r2, #4
 8006dfa:	701a      	strb	r2, [r3, #0]
 8006dfc:	e017      	b.n	8006e2e <UART_SetConfig+0xf2>
 8006dfe:	231f      	movs	r3, #31
 8006e00:	18fb      	adds	r3, r7, r3
 8006e02:	2208      	movs	r2, #8
 8006e04:	701a      	strb	r2, [r3, #0]
 8006e06:	e012      	b.n	8006e2e <UART_SetConfig+0xf2>
 8006e08:	231f      	movs	r3, #31
 8006e0a:	18fb      	adds	r3, r7, r3
 8006e0c:	2210      	movs	r2, #16
 8006e0e:	701a      	strb	r2, [r3, #0]
 8006e10:	e00d      	b.n	8006e2e <UART_SetConfig+0xf2>
 8006e12:	687b      	ldr	r3, [r7, #4]
 8006e14:	681b      	ldr	r3, [r3, #0]
 8006e16:	4a67      	ldr	r2, [pc, #412]	@ (8006fb4 <UART_SetConfig+0x278>)
 8006e18:	4293      	cmp	r3, r2
 8006e1a:	d104      	bne.n	8006e26 <UART_SetConfig+0xea>
 8006e1c:	231f      	movs	r3, #31
 8006e1e:	18fb      	adds	r3, r7, r3
 8006e20:	2200      	movs	r2, #0
 8006e22:	701a      	strb	r2, [r3, #0]
 8006e24:	e003      	b.n	8006e2e <UART_SetConfig+0xf2>
 8006e26:	231f      	movs	r3, #31
 8006e28:	18fb      	adds	r3, r7, r3
 8006e2a:	2210      	movs	r2, #16
 8006e2c:	701a      	strb	r2, [r3, #0]
 8006e2e:	687b      	ldr	r3, [r7, #4]
 8006e30:	69da      	ldr	r2, [r3, #28]
 8006e32:	2380      	movs	r3, #128	@ 0x80
 8006e34:	021b      	lsls	r3, r3, #8
 8006e36:	429a      	cmp	r2, r3
 8006e38:	d15c      	bne.n	8006ef4 <UART_SetConfig+0x1b8>
 8006e3a:	231f      	movs	r3, #31
 8006e3c:	18fb      	adds	r3, r7, r3
 8006e3e:	781b      	ldrb	r3, [r3, #0]
 8006e40:	2b08      	cmp	r3, #8
 8006e42:	d015      	beq.n	8006e70 <UART_SetConfig+0x134>
 8006e44:	dc18      	bgt.n	8006e78 <UART_SetConfig+0x13c>
 8006e46:	2b04      	cmp	r3, #4
 8006e48:	d00d      	beq.n	8006e66 <UART_SetConfig+0x12a>
 8006e4a:	dc15      	bgt.n	8006e78 <UART_SetConfig+0x13c>
 8006e4c:	2b00      	cmp	r3, #0
 8006e4e:	d002      	beq.n	8006e56 <UART_SetConfig+0x11a>
 8006e50:	2b02      	cmp	r3, #2
 8006e52:	d005      	beq.n	8006e60 <UART_SetConfig+0x124>
 8006e54:	e010      	b.n	8006e78 <UART_SetConfig+0x13c>
 8006e56:	f7ff fcc5 	bl	80067e4 <HAL_RCC_GetPCLK1Freq>
 8006e5a:	0003      	movs	r3, r0
 8006e5c:	61bb      	str	r3, [r7, #24]
 8006e5e:	e012      	b.n	8006e86 <UART_SetConfig+0x14a>
 8006e60:	4b55      	ldr	r3, [pc, #340]	@ (8006fb8 <UART_SetConfig+0x27c>)
 8006e62:	61bb      	str	r3, [r7, #24]
 8006e64:	e00f      	b.n	8006e86 <UART_SetConfig+0x14a>
 8006e66:	f7ff fc5d 	bl	8006724 <HAL_RCC_GetSysClockFreq>
 8006e6a:	0003      	movs	r3, r0
 8006e6c:	61bb      	str	r3, [r7, #24]
 8006e6e:	e00a      	b.n	8006e86 <UART_SetConfig+0x14a>
 8006e70:	2380      	movs	r3, #128	@ 0x80
 8006e72:	021b      	lsls	r3, r3, #8
 8006e74:	61bb      	str	r3, [r7, #24]
 8006e76:	e006      	b.n	8006e86 <UART_SetConfig+0x14a>
 8006e78:	2300      	movs	r3, #0
 8006e7a:	61bb      	str	r3, [r7, #24]
 8006e7c:	231e      	movs	r3, #30
 8006e7e:	18fb      	adds	r3, r7, r3
 8006e80:	2201      	movs	r2, #1
 8006e82:	701a      	strb	r2, [r3, #0]
 8006e84:	46c0      	nop			@ (mov r8, r8)
 8006e86:	69bb      	ldr	r3, [r7, #24]
 8006e88:	2b00      	cmp	r3, #0
 8006e8a:	d100      	bne.n	8006e8e <UART_SetConfig+0x152>
 8006e8c:	e07a      	b.n	8006f84 <UART_SetConfig+0x248>
 8006e8e:	69bb      	ldr	r3, [r7, #24]
 8006e90:	005a      	lsls	r2, r3, #1
 8006e92:	687b      	ldr	r3, [r7, #4]
 8006e94:	685b      	ldr	r3, [r3, #4]
 8006e96:	085b      	lsrs	r3, r3, #1
 8006e98:	18d2      	adds	r2, r2, r3
 8006e9a:	687b      	ldr	r3, [r7, #4]
 8006e9c:	685b      	ldr	r3, [r3, #4]
 8006e9e:	0019      	movs	r1, r3
 8006ea0:	0010      	movs	r0, r2
 8006ea2:	f7f9 f93b 	bl	800011c <__udivsi3>
 8006ea6:	0003      	movs	r3, r0
 8006ea8:	613b      	str	r3, [r7, #16]
 8006eaa:	693b      	ldr	r3, [r7, #16]
 8006eac:	2b0f      	cmp	r3, #15
 8006eae:	d91c      	bls.n	8006eea <UART_SetConfig+0x1ae>
 8006eb0:	693a      	ldr	r2, [r7, #16]
 8006eb2:	2380      	movs	r3, #128	@ 0x80
 8006eb4:	025b      	lsls	r3, r3, #9
 8006eb6:	429a      	cmp	r2, r3
 8006eb8:	d217      	bcs.n	8006eea <UART_SetConfig+0x1ae>
 8006eba:	693b      	ldr	r3, [r7, #16]
 8006ebc:	b29a      	uxth	r2, r3
 8006ebe:	200e      	movs	r0, #14
 8006ec0:	183b      	adds	r3, r7, r0
 8006ec2:	210f      	movs	r1, #15
 8006ec4:	438a      	bics	r2, r1
 8006ec6:	801a      	strh	r2, [r3, #0]
 8006ec8:	693b      	ldr	r3, [r7, #16]
 8006eca:	085b      	lsrs	r3, r3, #1
 8006ecc:	b29b      	uxth	r3, r3
 8006ece:	2207      	movs	r2, #7
 8006ed0:	4013      	ands	r3, r2
 8006ed2:	b299      	uxth	r1, r3
 8006ed4:	183b      	adds	r3, r7, r0
 8006ed6:	183a      	adds	r2, r7, r0
 8006ed8:	8812      	ldrh	r2, [r2, #0]
 8006eda:	430a      	orrs	r2, r1
 8006edc:	801a      	strh	r2, [r3, #0]
 8006ede:	687b      	ldr	r3, [r7, #4]
 8006ee0:	681b      	ldr	r3, [r3, #0]
 8006ee2:	183a      	adds	r2, r7, r0
 8006ee4:	8812      	ldrh	r2, [r2, #0]
 8006ee6:	60da      	str	r2, [r3, #12]
 8006ee8:	e04c      	b.n	8006f84 <UART_SetConfig+0x248>
 8006eea:	231e      	movs	r3, #30
 8006eec:	18fb      	adds	r3, r7, r3
 8006eee:	2201      	movs	r2, #1
 8006ef0:	701a      	strb	r2, [r3, #0]
 8006ef2:	e047      	b.n	8006f84 <UART_SetConfig+0x248>
 8006ef4:	231f      	movs	r3, #31
 8006ef6:	18fb      	adds	r3, r7, r3
 8006ef8:	781b      	ldrb	r3, [r3, #0]
 8006efa:	2b08      	cmp	r3, #8
 8006efc:	d015      	beq.n	8006f2a <UART_SetConfig+0x1ee>
 8006efe:	dc18      	bgt.n	8006f32 <UART_SetConfig+0x1f6>
 8006f00:	2b04      	cmp	r3, #4
 8006f02:	d00d      	beq.n	8006f20 <UART_SetConfig+0x1e4>
 8006f04:	dc15      	bgt.n	8006f32 <UART_SetConfig+0x1f6>
 8006f06:	2b00      	cmp	r3, #0
 8006f08:	d002      	beq.n	8006f10 <UART_SetConfig+0x1d4>
 8006f0a:	2b02      	cmp	r3, #2
 8006f0c:	d005      	beq.n	8006f1a <UART_SetConfig+0x1de>
 8006f0e:	e010      	b.n	8006f32 <UART_SetConfig+0x1f6>
 8006f10:	f7ff fc68 	bl	80067e4 <HAL_RCC_GetPCLK1Freq>
 8006f14:	0003      	movs	r3, r0
 8006f16:	61bb      	str	r3, [r7, #24]
 8006f18:	e012      	b.n	8006f40 <UART_SetConfig+0x204>
 8006f1a:	4b27      	ldr	r3, [pc, #156]	@ (8006fb8 <UART_SetConfig+0x27c>)
 8006f1c:	61bb      	str	r3, [r7, #24]
 8006f1e:	e00f      	b.n	8006f40 <UART_SetConfig+0x204>
 8006f20:	f7ff fc00 	bl	8006724 <HAL_RCC_GetSysClockFreq>
 8006f24:	0003      	movs	r3, r0
 8006f26:	61bb      	str	r3, [r7, #24]
 8006f28:	e00a      	b.n	8006f40 <UART_SetConfig+0x204>
 8006f2a:	2380      	movs	r3, #128	@ 0x80
 8006f2c:	021b      	lsls	r3, r3, #8
 8006f2e:	61bb      	str	r3, [r7, #24]
 8006f30:	e006      	b.n	8006f40 <UART_SetConfig+0x204>
 8006f32:	2300      	movs	r3, #0
 8006f34:	61bb      	str	r3, [r7, #24]
 8006f36:	231e      	movs	r3, #30
 8006f38:	18fb      	adds	r3, r7, r3
 8006f3a:	2201      	movs	r2, #1
 8006f3c:	701a      	strb	r2, [r3, #0]
 8006f3e:	46c0      	nop			@ (mov r8, r8)
 8006f40:	69bb      	ldr	r3, [r7, #24]
 8006f42:	2b00      	cmp	r3, #0
 8006f44:	d01e      	beq.n	8006f84 <UART_SetConfig+0x248>
 8006f46:	687b      	ldr	r3, [r7, #4]
 8006f48:	685b      	ldr	r3, [r3, #4]
 8006f4a:	085a      	lsrs	r2, r3, #1
 8006f4c:	69bb      	ldr	r3, [r7, #24]
 8006f4e:	18d2      	adds	r2, r2, r3
 8006f50:	687b      	ldr	r3, [r7, #4]
 8006f52:	685b      	ldr	r3, [r3, #4]
 8006f54:	0019      	movs	r1, r3
 8006f56:	0010      	movs	r0, r2
 8006f58:	f7f9 f8e0 	bl	800011c <__udivsi3>
 8006f5c:	0003      	movs	r3, r0
 8006f5e:	613b      	str	r3, [r7, #16]
 8006f60:	693b      	ldr	r3, [r7, #16]
 8006f62:	2b0f      	cmp	r3, #15
 8006f64:	d90a      	bls.n	8006f7c <UART_SetConfig+0x240>
 8006f66:	693a      	ldr	r2, [r7, #16]
 8006f68:	2380      	movs	r3, #128	@ 0x80
 8006f6a:	025b      	lsls	r3, r3, #9
 8006f6c:	429a      	cmp	r2, r3
 8006f6e:	d205      	bcs.n	8006f7c <UART_SetConfig+0x240>
 8006f70:	693b      	ldr	r3, [r7, #16]
 8006f72:	b29a      	uxth	r2, r3
 8006f74:	687b      	ldr	r3, [r7, #4]
 8006f76:	681b      	ldr	r3, [r3, #0]
 8006f78:	60da      	str	r2, [r3, #12]
 8006f7a:	e003      	b.n	8006f84 <UART_SetConfig+0x248>
 8006f7c:	231e      	movs	r3, #30
 8006f7e:	18fb      	adds	r3, r7, r3
 8006f80:	2201      	movs	r2, #1
 8006f82:	701a      	strb	r2, [r3, #0]
 8006f84:	687b      	ldr	r3, [r7, #4]
 8006f86:	2200      	movs	r2, #0
 8006f88:	669a      	str	r2, [r3, #104]	@ 0x68
 8006f8a:	687b      	ldr	r3, [r7, #4]
 8006f8c:	2200      	movs	r2, #0
 8006f8e:	66da      	str	r2, [r3, #108]	@ 0x6c
 8006f90:	231e      	movs	r3, #30
 8006f92:	18fb      	adds	r3, r7, r3
 8006f94:	781b      	ldrb	r3, [r3, #0]
 8006f96:	0018      	movs	r0, r3
 8006f98:	46bd      	mov	sp, r7
 8006f9a:	b008      	add	sp, #32
 8006f9c:	bd80      	pop	{r7, pc}
 8006f9e:	46c0      	nop			@ (mov r8, r8)
 8006fa0:	ffff69f3 	.word	0xffff69f3
 8006fa4:	ffffcfff 	.word	0xffffcfff
 8006fa8:	fffff4ff 	.word	0xfffff4ff
 8006fac:	40013800 	.word	0x40013800
 8006fb0:	40021000 	.word	0x40021000
 8006fb4:	40004400 	.word	0x40004400
 8006fb8:	007a1200 	.word	0x007a1200

08006fbc <UART_AdvFeatureConfig>:
 8006fbc:	b580      	push	{r7, lr}
 8006fbe:	b082      	sub	sp, #8
 8006fc0:	af00      	add	r7, sp, #0
 8006fc2:	6078      	str	r0, [r7, #4]
 8006fc4:	687b      	ldr	r3, [r7, #4]
 8006fc6:	6a5b      	ldr	r3, [r3, #36]	@ 0x24
 8006fc8:	2208      	movs	r2, #8
 8006fca:	4013      	ands	r3, r2
 8006fcc:	d00b      	beq.n	8006fe6 <UART_AdvFeatureConfig+0x2a>
 8006fce:	687b      	ldr	r3, [r7, #4]
 8006fd0:	681b      	ldr	r3, [r3, #0]
 8006fd2:	685b      	ldr	r3, [r3, #4]
 8006fd4:	4a4a      	ldr	r2, [pc, #296]	@ (8007100 <UART_AdvFeatureConfig+0x144>)
 8006fd6:	4013      	ands	r3, r2
 8006fd8:	0019      	movs	r1, r3
 8006fda:	687b      	ldr	r3, [r7, #4]
 8006fdc:	6b5a      	ldr	r2, [r3, #52]	@ 0x34
 8006fde:	687b      	ldr	r3, [r7, #4]
 8006fe0:	681b      	ldr	r3, [r3, #0]
 8006fe2:	430a      	orrs	r2, r1
 8006fe4:	605a      	str	r2, [r3, #4]
 8006fe6:	687b      	ldr	r3, [r7, #4]
 8006fe8:	6a5b      	ldr	r3, [r3, #36]	@ 0x24
 8006fea:	2201      	movs	r2, #1
 8006fec:	4013      	ands	r3, r2
 8006fee:	d00b      	beq.n	8007008 <UART_AdvFeatureConfig+0x4c>
 8006ff0:	687b      	ldr	r3, [r7, #4]
 8006ff2:	681b      	ldr	r3, [r3, #0]
 8006ff4:	685b      	ldr	r3, [r3, #4]
 8006ff6:	4a43      	ldr	r2, [pc, #268]	@ (8007104 <UART_AdvFeatureConfig+0x148>)
 8006ff8:	4013      	ands	r3, r2
 8006ffa:	0019      	movs	r1, r3
 8006ffc:	687b      	ldr	r3, [r7, #4]
 8006ffe:	6a9a      	ldr	r2, [r3, #40]	@ 0x28
 8007000:	687b      	ldr	r3, [r7, #4]
 8007002:	681b      	ldr	r3, [r3, #0]
 8007004:	430a      	orrs	r2, r1
 8007006:	605a      	str	r2, [r3, #4]
 8007008:	687b      	ldr	r3, [r7, #4]
 800700a:	6a5b      	ldr	r3, [r3, #36]	@ 0x24
 800700c:	2202      	movs	r2, #2
 800700e:	4013      	ands	r3, r2
 8007010:	d00b      	beq.n	800702a <UART_AdvFeatureConfig+0x6e>
 8007012:	687b      	ldr	r3, [r7, #4]
 8007014:	681b      	ldr	r3, [r3, #0]
 8007016:	685b      	ldr	r3, [r3, #4]
 8007018:	4a3b      	ldr	r2, [pc, #236]	@ (8007108 <UART_AdvFeatureConfig+0x14c>)
 800701a:	4013      	ands	r3, r2
 800701c:	0019      	movs	r1, r3
 800701e:	687b      	ldr	r3, [r7, #4]
 8007020:	6ada      	ldr	r2, [r3, #44]	@ 0x2c
 8007022:	687b      	ldr	r3, [r7, #4]
 8007024:	681b      	ldr	r3, [r3, #0]
 8007026:	430a      	orrs	r2, r1
 8007028:	605a      	str	r2, [r3, #4]
 800702a:	687b      	ldr	r3, [r7, #4]
 800702c:	6a5b      	ldr	r3, [r3, #36]	@ 0x24
 800702e:	2204      	movs	r2, #4
 8007030:	4013      	ands	r3, r2
 8007032:	d00b      	beq.n	800704c <UART_AdvFeatureConfig+0x90>
 8007034:	687b      	ldr	r3, [r7, #4]
 8007036:	681b      	ldr	r3, [r3, #0]
 8007038:	685b      	ldr	r3, [r3, #4]
 800703a:	4a34      	ldr	r2, [pc, #208]	@ (800710c <UART_AdvFeatureConfig+0x150>)
 800703c:	4013      	ands	r3, r2
 800703e:	0019      	movs	r1, r3
 8007040:	687b      	ldr	r3, [r7, #4]
 8007042:	6b1a      	ldr	r2, [r3, #48]	@ 0x30
 8007044:	687b      	ldr	r3, [r7, #4]
 8007046:	681b      	ldr	r3, [r3, #0]
 8007048:	430a      	orrs	r2, r1
 800704a:	605a      	str	r2, [r3, #4]
 800704c:	687b      	ldr	r3, [r7, #4]
 800704e:	6a5b      	ldr	r3, [r3, #36]	@ 0x24
 8007050:	2210      	movs	r2, #16
 8007052:	4013      	ands	r3, r2
 8007054:	d00b      	beq.n	800706e <UART_AdvFeatureConfig+0xb2>
 8007056:	687b      	ldr	r3, [r7, #4]
 8007058:	681b      	ldr	r3, [r3, #0]
 800705a:	689b      	ldr	r3, [r3, #8]
 800705c:	4a2c      	ldr	r2, [pc, #176]	@ (8007110 <UART_AdvFeatureConfig+0x154>)
 800705e:	4013      	ands	r3, r2
 8007060:	0019      	movs	r1, r3
 8007062:	687b      	ldr	r3, [r7, #4]
 8007064:	6b9a      	ldr	r2, [r3, #56]	@ 0x38
 8007066:	687b      	ldr	r3, [r7, #4]
 8007068:	681b      	ldr	r3, [r3, #0]
 800706a:	430a      	orrs	r2, r1
 800706c:	609a      	str	r2, [r3, #8]
 800706e:	687b      	ldr	r3, [r7, #4]
 8007070:	6a5b      	ldr	r3, [r3, #36]	@ 0x24
 8007072:	2220      	movs	r2, #32
 8007074:	4013      	ands	r3, r2
 8007076:	d00b      	beq.n	8007090 <UART_AdvFeatureConfig+0xd4>
 8007078:	687b      	ldr	r3, [r7, #4]
 800707a:	681b      	ldr	r3, [r3, #0]
 800707c:	689b      	ldr	r3, [r3, #8]
 800707e:	4a25      	ldr	r2, [pc, #148]	@ (8007114 <UART_AdvFeatureConfig+0x158>)
 8007080:	4013      	ands	r3, r2
 8007082:	0019      	movs	r1, r3
 8007084:	687b      	ldr	r3, [r7, #4]
 8007086:	6bda      	ldr	r2, [r3, #60]	@ 0x3c
 8007088:	687b      	ldr	r3, [r7, #4]
 800708a:	681b      	ldr	r3, [r3, #0]
 800708c:	430a      	orrs	r2, r1
 800708e:	609a      	str	r2, [r3, #8]
 8007090:	687b      	ldr	r3, [r7, #4]
 8007092:	6a5b      	ldr	r3, [r3, #36]	@ 0x24
 8007094:	2240      	movs	r2, #64	@ 0x40
 8007096:	4013      	ands	r3, r2
 8007098:	d01d      	beq.n	80070d6 <UART_AdvFeatureConfig+0x11a>
 800709a:	687b      	ldr	r3, [r7, #4]
 800709c:	681b      	ldr	r3, [r3, #0]
 800709e:	685b      	ldr	r3, [r3, #4]
 80070a0:	4a1d      	ldr	r2, [pc, #116]	@ (8007118 <UART_AdvFeatureConfig+0x15c>)
 80070a2:	4013      	ands	r3, r2
 80070a4:	0019      	movs	r1, r3
 80070a6:	687b      	ldr	r3, [r7, #4]
 80070a8:	6c1a      	ldr	r2, [r3, #64]	@ 0x40
 80070aa:	687b      	ldr	r3, [r7, #4]
 80070ac:	681b      	ldr	r3, [r3, #0]
 80070ae:	430a      	orrs	r2, r1
 80070b0:	605a      	str	r2, [r3, #4]
 80070b2:	687b      	ldr	r3, [r7, #4]
 80070b4:	6c1a      	ldr	r2, [r3, #64]	@ 0x40
 80070b6:	2380      	movs	r3, #128	@ 0x80
 80070b8:	035b      	lsls	r3, r3, #13
 80070ba:	429a      	cmp	r2, r3
 80070bc:	d10b      	bne.n	80070d6 <UART_AdvFeatureConfig+0x11a>
 80070be:	687b      	ldr	r3, [r7, #4]
 80070c0:	681b      	ldr	r3, [r3, #0]
 80070c2:	685b      	ldr	r3, [r3, #4]
 80070c4:	4a15      	ldr	r2, [pc, #84]	@ (800711c <UART_AdvFeatureConfig+0x160>)
 80070c6:	4013      	ands	r3, r2
 80070c8:	0019      	movs	r1, r3
 80070ca:	687b      	ldr	r3, [r7, #4]
 80070cc:	6c5a      	ldr	r2, [r3, #68]	@ 0x44
 80070ce:	687b      	ldr	r3, [r7, #4]
 80070d0:	681b      	ldr	r3, [r3, #0]
 80070d2:	430a      	orrs	r2, r1
 80070d4:	605a      	str	r2, [r3, #4]
 80070d6:	687b      	ldr	r3, [r7, #4]
 80070d8:	6a5b      	ldr	r3, [r3, #36]	@ 0x24
 80070da:	2280      	movs	r2, #128	@ 0x80
 80070dc:	4013      	ands	r3, r2
 80070de:	d00b      	beq.n	80070f8 <UART_AdvFeatureConfig+0x13c>
 80070e0:	687b      	ldr	r3, [r7, #4]
 80070e2:	681b      	ldr	r3, [r3, #0]
 80070e4:	685b      	ldr	r3, [r3, #4]
 80070e6:	4a0e      	ldr	r2, [pc, #56]	@ (8007120 <UART_AdvFeatureConfig+0x164>)
 80070e8:	4013      	ands	r3, r2
 80070ea:	0019      	movs	r1, r3
 80070ec:	687b      	ldr	r3, [r7, #4]
 80070ee:	6c9a      	ldr	r2, [r3, #72]	@ 0x48
 80070f0:	687b      	ldr	r3, [r7, #4]
 80070f2:	681b      	ldr	r3, [r3, #0]
 80070f4:	430a      	orrs	r2, r1
 80070f6:	605a      	str	r2, [r3, #4]
 80070f8:	46c0      	nop			@ (mov r8, r8)
 80070fa:	46bd      	mov	sp, r7
 80070fc:	b002      	add	sp, #8
 80070fe:	bd80      	pop	{r7, pc}
 8007100:	ffff7fff 	.word	0xffff7fff
 8007104:	fffdffff 	.word	0xfffdffff
 8007108:	fffeffff 	.word	0xfffeffff
 800710c:	fffbffff 	.word	0xfffbffff
 8007110:	ffffefff 	.word	0xffffefff
 8007114:	ffffdfff 	.word	0xffffdfff
 8007118:	ffefffff 	.word	0xffefffff
 800711c:	ff9fffff 	.word	0xff9fffff
 8007120:	fff7ffff 	.word	0xfff7ffff

08007124 <UART_CheckIdleState>:
 8007124:	b580      	push	{r7, lr}
 8007126:	b092      	sub	sp, #72	@ 0x48
 8007128:	af02      	add	r7, sp, #8
 800712a:	6078      	str	r0, [r7, #4]
 800712c:	687b      	ldr	r3, [r7, #4]
 800712e:	2284      	movs	r2, #132	@ 0x84
 8007130:	2100      	movs	r1, #0
 8007132:	5099      	str	r1, [r3, r2]
 8007134:	f7fd fee8 	bl	8004f08 <HAL_GetTick>
 8007138:	0003      	movs	r3, r0
 800713a:	63fb      	str	r3, [r7, #60]	@ 0x3c
 800713c:	687b      	ldr	r3, [r7, #4]
 800713e:	681b      	ldr	r3, [r3, #0]
 8007140:	681b      	ldr	r3, [r3, #0]
 8007142:	2208      	movs	r2, #8
 8007144:	4013      	ands	r3, r2
 8007146:	2b08      	cmp	r3, #8
 8007148:	d12c      	bne.n	80071a4 <UART_CheckIdleState+0x80>
 800714a:	6bfb      	ldr	r3, [r7, #60]	@ 0x3c
 800714c:	2280      	movs	r2, #128	@ 0x80
 800714e:	0391      	lsls	r1, r2, #14
 8007150:	6878      	ldr	r0, [r7, #4]
 8007152:	4a46      	ldr	r2, [pc, #280]	@ (800726c <UART_CheckIdleState+0x148>)
 8007154:	9200      	str	r2, [sp, #0]
 8007156:	2200      	movs	r2, #0
 8007158:	f000 f88c 	bl	8007274 <UART_WaitOnFlagUntilTimeout>
 800715c:	1e03      	subs	r3, r0, #0
 800715e:	d021      	beq.n	80071a4 <UART_CheckIdleState+0x80>
 8007160:	f3ef 8310 	mrs	r3, PRIMASK
 8007164:	627b      	str	r3, [r7, #36]	@ 0x24
 8007166:	6a7b      	ldr	r3, [r7, #36]	@ 0x24
 8007168:	63bb      	str	r3, [r7, #56]	@ 0x38
 800716a:	2301      	movs	r3, #1
 800716c:	62bb      	str	r3, [r7, #40]	@ 0x28
 800716e:	6abb      	ldr	r3, [r7, #40]	@ 0x28
 8007170:	f383 8810 	msr	PRIMASK, r3
 8007174:	46c0      	nop			@ (mov r8, r8)
 8007176:	687b      	ldr	r3, [r7, #4]
 8007178:	681b      	ldr	r3, [r3, #0]
 800717a:	681a      	ldr	r2, [r3, #0]
 800717c:	687b      	ldr	r3, [r7, #4]
 800717e:	681b      	ldr	r3, [r3, #0]
 8007180:	2180      	movs	r1, #128	@ 0x80
 8007182:	438a      	bics	r2, r1
 8007184:	601a      	str	r2, [r3, #0]
 8007186:	6bbb      	ldr	r3, [r7, #56]	@ 0x38
 8007188:	62fb      	str	r3, [r7, #44]	@ 0x2c
 800718a:	6afb      	ldr	r3, [r7, #44]	@ 0x2c
 800718c:	f383 8810 	msr	PRIMASK, r3
 8007190:	46c0      	nop			@ (mov r8, r8)
 8007192:	687b      	ldr	r3, [r7, #4]
 8007194:	2220      	movs	r2, #32
 8007196:	67da      	str	r2, [r3, #124]	@ 0x7c
 8007198:	687b      	ldr	r3, [r7, #4]
 800719a:	2278      	movs	r2, #120	@ 0x78
 800719c:	2100      	movs	r1, #0
 800719e:	5499      	strb	r1, [r3, r2]
 80071a0:	2303      	movs	r3, #3
 80071a2:	e05f      	b.n	8007264 <UART_CheckIdleState+0x140>
 80071a4:	687b      	ldr	r3, [r7, #4]
 80071a6:	681b      	ldr	r3, [r3, #0]
 80071a8:	681b      	ldr	r3, [r3, #0]
 80071aa:	2204      	movs	r2, #4
 80071ac:	4013      	ands	r3, r2
 80071ae:	2b04      	cmp	r3, #4
 80071b0:	d146      	bne.n	8007240 <UART_CheckIdleState+0x11c>
 80071b2:	6bfb      	ldr	r3, [r7, #60]	@ 0x3c
 80071b4:	2280      	movs	r2, #128	@ 0x80
 80071b6:	03d1      	lsls	r1, r2, #15
 80071b8:	6878      	ldr	r0, [r7, #4]
 80071ba:	4a2c      	ldr	r2, [pc, #176]	@ (800726c <UART_CheckIdleState+0x148>)
 80071bc:	9200      	str	r2, [sp, #0]
 80071be:	2200      	movs	r2, #0
 80071c0:	f000 f858 	bl	8007274 <UART_WaitOnFlagUntilTimeout>
 80071c4:	1e03      	subs	r3, r0, #0
 80071c6:	d03b      	beq.n	8007240 <UART_CheckIdleState+0x11c>
 80071c8:	f3ef 8310 	mrs	r3, PRIMASK
 80071cc:	60fb      	str	r3, [r7, #12]
 80071ce:	68fb      	ldr	r3, [r7, #12]
 80071d0:	637b      	str	r3, [r7, #52]	@ 0x34
 80071d2:	2301      	movs	r3, #1
 80071d4:	613b      	str	r3, [r7, #16]
 80071d6:	693b      	ldr	r3, [r7, #16]
 80071d8:	f383 8810 	msr	PRIMASK, r3
 80071dc:	46c0      	nop			@ (mov r8, r8)
 80071de:	687b      	ldr	r3, [r7, #4]
 80071e0:	681b      	ldr	r3, [r3, #0]
 80071e2:	681a      	ldr	r2, [r3, #0]
 80071e4:	687b      	ldr	r3, [r7, #4]
 80071e6:	681b      	ldr	r3, [r3, #0]
 80071e8:	4921      	ldr	r1, [pc, #132]	@ (8007270 <UART_CheckIdleState+0x14c>)
 80071ea:	400a      	ands	r2, r1
 80071ec:	601a      	str	r2, [r3, #0]
 80071ee:	6b7b      	ldr	r3, [r7, #52]	@ 0x34
 80071f0:	617b      	str	r3, [r7, #20]
 80071f2:	697b      	ldr	r3, [r7, #20]
 80071f4:	f383 8810 	msr	PRIMASK, r3
 80071f8:	46c0      	nop			@ (mov r8, r8)
 80071fa:	f3ef 8310 	mrs	r3, PRIMASK
 80071fe:	61bb      	str	r3, [r7, #24]
 8007200:	69bb      	ldr	r3, [r7, #24]
 8007202:	633b      	str	r3, [r7, #48]	@ 0x30
 8007204:	2301      	movs	r3, #1
 8007206:	61fb      	str	r3, [r7, #28]
 8007208:	69fb      	ldr	r3, [r7, #28]
 800720a:	f383 8810 	msr	PRIMASK, r3
 800720e:	46c0      	nop			@ (mov r8, r8)
 8007210:	687b      	ldr	r3, [r7, #4]
 8007212:	681b      	ldr	r3, [r3, #0]
 8007214:	689a      	ldr	r2, [r3, #8]
 8007216:	687b      	ldr	r3, [r7, #4]
 8007218:	681b      	ldr	r3, [r3, #0]
 800721a:	2101      	movs	r1, #1
 800721c:	438a      	bics	r2, r1
 800721e:	609a      	str	r2, [r3, #8]
 8007220:	6b3b      	ldr	r3, [r7, #48]	@ 0x30
 8007222:	623b      	str	r3, [r7, #32]
 8007224:	6a3b      	ldr	r3, [r7, #32]
 8007226:	f383 8810 	msr	PRIMASK, r3
 800722a:	46c0      	nop			@ (mov r8, r8)
 800722c:	687b      	ldr	r3, [r7, #4]
 800722e:	2280      	movs	r2, #128	@ 0x80
 8007230:	2120      	movs	r1, #32
 8007232:	5099      	str	r1, [r3, r2]
 8007234:	687b      	ldr	r3, [r7, #4]
 8007236:	2278      	movs	r2, #120	@ 0x78
 8007238:	2100      	movs	r1, #0
 800723a:	5499      	strb	r1, [r3, r2]
 800723c:	2303      	movs	r3, #3
 800723e:	e011      	b.n	8007264 <UART_CheckIdleState+0x140>
 8007240:	687b      	ldr	r3, [r7, #4]
 8007242:	2220      	movs	r2, #32
 8007244:	67da      	str	r2, [r3, #124]	@ 0x7c
 8007246:	687b      	ldr	r3, [r7, #4]
 8007248:	2280      	movs	r2, #128	@ 0x80
 800724a:	2120      	movs	r1, #32
 800724c:	5099      	str	r1, [r3, r2]
 800724e:	687b      	ldr	r3, [r7, #4]
 8007250:	2200      	movs	r2, #0
 8007252:	661a      	str	r2, [r3, #96]	@ 0x60
 8007254:	687b      	ldr	r3, [r7, #4]
 8007256:	2200      	movs	r2, #0
 8007258:	665a      	str	r2, [r3, #100]	@ 0x64
 800725a:	687b      	ldr	r3, [r7, #4]
 800725c:	2278      	movs	r2, #120	@ 0x78
 800725e:	2100      	movs	r1, #0
 8007260:	5499      	strb	r1, [r3, r2]
 8007262:	2300      	movs	r3, #0
 8007264:	0018      	movs	r0, r3
 8007266:	46bd      	mov	sp, r7
 8007268:	b010      	add	sp, #64	@ 0x40
 800726a:	bd80      	pop	{r7, pc}
 800726c:	01ffffff 	.word	0x01ffffff
 8007270:	fffffedf 	.word	0xfffffedf

08007274 <UART_WaitOnFlagUntilTimeout>:
 8007274:	b580      	push	{r7, lr}
 8007276:	b084      	sub	sp, #16
 8007278:	af00      	add	r7, sp, #0
 800727a:	60f8      	str	r0, [r7, #12]
 800727c:	60b9      	str	r1, [r7, #8]
 800727e:	603b      	str	r3, [r7, #0]
 8007280:	1dfb      	adds	r3, r7, #7
 8007282:	701a      	strb	r2, [r3, #0]
 8007284:	e051      	b.n	800732a <UART_WaitOnFlagUntilTimeout+0xb6>
 8007286:	69bb      	ldr	r3, [r7, #24]
 8007288:	3301      	adds	r3, #1
 800728a:	d04e      	beq.n	800732a <UART_WaitOnFlagUntilTimeout+0xb6>
 800728c:	f7fd fe3c 	bl	8004f08 <HAL_GetTick>
 8007290:	0002      	movs	r2, r0
 8007292:	683b      	ldr	r3, [r7, #0]
 8007294:	1ad3      	subs	r3, r2, r3
 8007296:	69ba      	ldr	r2, [r7, #24]
 8007298:	429a      	cmp	r2, r3
 800729a:	d302      	bcc.n	80072a2 <UART_WaitOnFlagUntilTimeout+0x2e>
 800729c:	69bb      	ldr	r3, [r7, #24]
 800729e:	2b00      	cmp	r3, #0
 80072a0:	d101      	bne.n	80072a6 <UART_WaitOnFlagUntilTimeout+0x32>
 80072a2:	2303      	movs	r3, #3
 80072a4:	e051      	b.n	800734a <UART_WaitOnFlagUntilTimeout+0xd6>
 80072a6:	68fb      	ldr	r3, [r7, #12]
 80072a8:	681b      	ldr	r3, [r3, #0]
 80072aa:	681b      	ldr	r3, [r3, #0]
 80072ac:	2204      	movs	r2, #4
 80072ae:	4013      	ands	r3, r2
 80072b0:	d03b      	beq.n	800732a <UART_WaitOnFlagUntilTimeout+0xb6>
 80072b2:	68bb      	ldr	r3, [r7, #8]
 80072b4:	2b80      	cmp	r3, #128	@ 0x80
 80072b6:	d038      	beq.n	800732a <UART_WaitOnFlagUntilTimeout+0xb6>
 80072b8:	68bb      	ldr	r3, [r7, #8]
 80072ba:	2b40      	cmp	r3, #64	@ 0x40
 80072bc:	d035      	beq.n	800732a <UART_WaitOnFlagUntilTimeout+0xb6>
 80072be:	68fb      	ldr	r3, [r7, #12]
 80072c0:	681b      	ldr	r3, [r3, #0]
 80072c2:	69db      	ldr	r3, [r3, #28]
 80072c4:	2208      	movs	r2, #8
 80072c6:	4013      	ands	r3, r2
 80072c8:	2b08      	cmp	r3, #8
 80072ca:	d111      	bne.n	80072f0 <UART_WaitOnFlagUntilTimeout+0x7c>
 80072cc:	68fb      	ldr	r3, [r7, #12]
 80072ce:	681b      	ldr	r3, [r3, #0]
 80072d0:	2208      	movs	r2, #8
 80072d2:	621a      	str	r2, [r3, #32]
 80072d4:	68fb      	ldr	r3, [r7, #12]
 80072d6:	0018      	movs	r0, r3
 80072d8:	f000 f83c 	bl	8007354 <UART_EndRxTransfer>
 80072dc:	68fb      	ldr	r3, [r7, #12]
 80072de:	2284      	movs	r2, #132	@ 0x84
 80072e0:	2108      	movs	r1, #8
 80072e2:	5099      	str	r1, [r3, r2]
 80072e4:	68fb      	ldr	r3, [r7, #12]
 80072e6:	2278      	movs	r2, #120	@ 0x78
 80072e8:	2100      	movs	r1, #0
 80072ea:	5499      	strb	r1, [r3, r2]
 80072ec:	2301      	movs	r3, #1
 80072ee:	e02c      	b.n	800734a <UART_WaitOnFlagUntilTimeout+0xd6>
 80072f0:	68fb      	ldr	r3, [r7, #12]
 80072f2:	681b      	ldr	r3, [r3, #0]
 80072f4:	69da      	ldr	r2, [r3, #28]
 80072f6:	2380      	movs	r3, #128	@ 0x80
 80072f8:	011b      	lsls	r3, r3, #4
 80072fa:	401a      	ands	r2, r3
 80072fc:	2380      	movs	r3, #128	@ 0x80
 80072fe:	011b      	lsls	r3, r3, #4
 8007300:	429a      	cmp	r2, r3
 8007302:	d112      	bne.n	800732a <UART_WaitOnFlagUntilTimeout+0xb6>
 8007304:	68fb      	ldr	r3, [r7, #12]
 8007306:	681b      	ldr	r3, [r3, #0]
 8007308:	2280      	movs	r2, #128	@ 0x80
 800730a:	0112      	lsls	r2, r2, #4
 800730c:	621a      	str	r2, [r3, #32]
 800730e:	68fb      	ldr	r3, [r7, #12]
 8007310:	0018      	movs	r0, r3
 8007312:	f000 f81f 	bl	8007354 <UART_EndRxTransfer>
 8007316:	68fb      	ldr	r3, [r7, #12]
 8007318:	2284      	movs	r2, #132	@ 0x84
 800731a:	2120      	movs	r1, #32
 800731c:	5099      	str	r1, [r3, r2]
 800731e:	68fb      	ldr	r3, [r7, #12]
 8007320:	2278      	movs	r2, #120	@ 0x78
 8007322:	2100      	movs	r1, #0
 8007324:	5499      	strb	r1, [r3, r2]
 8007326:	2303      	movs	r3, #3
 8007328:	e00f      	b.n	800734a <UART_WaitOnFlagUntilTimeout+0xd6>
 800732a:	68fb      	ldr	r3, [r7, #12]
 800732c:	681b      	ldr	r3, [r3, #0]
 800732e:	69db      	ldr	r3, [r3, #28]
 8007330:	68ba      	ldr	r2, [r7, #8]
 8007332:	4013      	ands	r3, r2
 8007334:	68ba      	ldr	r2, [r7, #8]
 8007336:	1ad3      	subs	r3, r2, r3
 8007338:	425a      	negs	r2, r3
 800733a:	4153      	adcs	r3, r2
 800733c:	b2db      	uxtb	r3, r3
 800733e:	001a      	movs	r2, r3
 8007340:	1dfb      	adds	r3, r7, #7
 8007342:	781b      	ldrb	r3, [r3, #0]
 8007344:	429a      	cmp	r2, r3
 8007346:	d09e      	beq.n	8007286 <UART_WaitOnFlagUntilTimeout+0x12>
 8007348:	2300      	movs	r3, #0
 800734a:	0018      	movs	r0, r3
 800734c:	46bd      	mov	sp, r7
 800734e:	b004      	add	sp, #16
 8007350:	bd80      	pop	{r7, pc}
	...

08007354 <UART_EndRxTransfer>:
 8007354:	b580      	push	{r7, lr}
 8007356:	b08e      	sub	sp, #56	@ 0x38
 8007358:	af00      	add	r7, sp, #0
 800735a:	6078      	str	r0, [r7, #4]
 800735c:	f3ef 8310 	mrs	r3, PRIMASK
 8007360:	617b      	str	r3, [r7, #20]
 8007362:	697b      	ldr	r3, [r7, #20]
 8007364:	637b      	str	r3, [r7, #52]	@ 0x34
 8007366:	2301      	movs	r3, #1
 8007368:	61bb      	str	r3, [r7, #24]
 800736a:	69bb      	ldr	r3, [r7, #24]
 800736c:	f383 8810 	msr	PRIMASK, r3
 8007370:	46c0      	nop			@ (mov r8, r8)
 8007372:	687b      	ldr	r3, [r7, #4]
 8007374:	681b      	ldr	r3, [r3, #0]
 8007376:	681a      	ldr	r2, [r3, #0]
 8007378:	687b      	ldr	r3, [r7, #4]
 800737a:	681b      	ldr	r3, [r3, #0]
 800737c:	4926      	ldr	r1, [pc, #152]	@ (8007418 <UART_EndRxTransfer+0xc4>)
 800737e:	400a      	ands	r2, r1
 8007380:	601a      	str	r2, [r3, #0]
 8007382:	6b7b      	ldr	r3, [r7, #52]	@ 0x34
 8007384:	61fb      	str	r3, [r7, #28]
 8007386:	69fb      	ldr	r3, [r7, #28]
 8007388:	f383 8810 	msr	PRIMASK, r3
 800738c:	46c0      	nop			@ (mov r8, r8)
 800738e:	f3ef 8310 	mrs	r3, PRIMASK
 8007392:	623b      	str	r3, [r7, #32]
 8007394:	6a3b      	ldr	r3, [r7, #32]
 8007396:	633b      	str	r3, [r7, #48]	@ 0x30
 8007398:	2301      	movs	r3, #1
 800739a:	627b      	str	r3, [r7, #36]	@ 0x24
 800739c:	6a7b      	ldr	r3, [r7, #36]	@ 0x24
 800739e:	f383 8810 	msr	PRIMASK, r3
 80073a2:	46c0      	nop			@ (mov r8, r8)
 80073a4:	687b      	ldr	r3, [r7, #4]
 80073a6:	681b      	ldr	r3, [r3, #0]
 80073a8:	689a      	ldr	r2, [r3, #8]
 80073aa:	687b      	ldr	r3, [r7, #4]
 80073ac:	681b      	ldr	r3, [r3, #0]
 80073ae:	2101      	movs	r1, #1
 80073b0:	438a      	bics	r2, r1
 80073b2:	609a      	str	r2, [r3, #8]
 80073b4:	6b3b      	ldr	r3, [r7, #48]	@ 0x30
 80073b6:	62bb      	str	r3, [r7, #40]	@ 0x28
 80073b8:	6abb      	ldr	r3, [r7, #40]	@ 0x28
 80073ba:	f383 8810 	msr	PRIMASK, r3
 80073be:	46c0      	nop			@ (mov r8, r8)
 80073c0:	687b      	ldr	r3, [r7, #4]
 80073c2:	6e1b      	ldr	r3, [r3, #96]	@ 0x60
 80073c4:	2b01      	cmp	r3, #1
 80073c6:	d118      	bne.n	80073fa <UART_EndRxTransfer+0xa6>
 80073c8:	f3ef 8310 	mrs	r3, PRIMASK
 80073cc:	60bb      	str	r3, [r7, #8]
 80073ce:	68bb      	ldr	r3, [r7, #8]
 80073d0:	62fb      	str	r3, [r7, #44]	@ 0x2c
 80073d2:	2301      	movs	r3, #1
 80073d4:	60fb      	str	r3, [r7, #12]
 80073d6:	68fb      	ldr	r3, [r7, #12]
 80073d8:	f383 8810 	msr	PRIMASK, r3
 80073dc:	46c0      	nop			@ (mov r8, r8)
 80073de:	687b      	ldr	r3, [r7, #4]
 80073e0:	681b      	ldr	r3, [r3, #0]
 80073e2:	681a      	ldr	r2, [r3, #0]
 80073e4:	687b      	ldr	r3, [r7, #4]
 80073e6:	681b      	ldr	r3, [r3, #0]
 80073e8:	2110      	movs	r1, #16
 80073ea:	438a      	bics	r2, r1
 80073ec:	601a      	str	r2, [r3, #0]
 80073ee:	6afb      	ldr	r3, [r7, #44]	@ 0x2c
 80073f0:	613b      	str	r3, [r7, #16]
 80073f2:	693b      	ldr	r3, [r7, #16]
 80073f4:	f383 8810 	msr	PRIMASK, r3
 80073f8:	46c0      	nop			@ (mov r8, r8)
 80073fa:	687b      	ldr	r3, [r7, #4]
 80073fc:	2280      	movs	r2, #128	@ 0x80
 80073fe:	2120      	movs	r1, #32
 8007400:	5099      	str	r1, [r3, r2]
 8007402:	687b      	ldr	r3, [r7, #4]
 8007404:	2200      	movs	r2, #0
 8007406:	661a      	str	r2, [r3, #96]	@ 0x60
 8007408:	687b      	ldr	r3, [r7, #4]
 800740a:	2200      	movs	r2, #0
 800740c:	669a      	str	r2, [r3, #104]	@ 0x68
 800740e:	46c0      	nop			@ (mov r8, r8)
 8007410:	46bd      	mov	sp, r7
 8007412:	b00e      	add	sp, #56	@ 0x38
 8007414:	bd80      	pop	{r7, pc}
 8007416:	46c0      	nop			@ (mov r8, r8)
 8007418:	fffffedf 	.word	0xfffffedf

0800741c <atoi>:
 800741c:	b510      	push	{r4, lr}
 800741e:	220a      	movs	r2, #10
 8007420:	2100      	movs	r1, #0
 8007422:	f000 f88b 	bl	800753c <strtol>
 8007426:	bd10      	pop	{r4, pc}

08007428 <_strtol_l.constprop.0>:
 8007428:	b5f0      	push	{r4, r5, r6, r7, lr}
 800742a:	b085      	sub	sp, #20
 800742c:	0017      	movs	r7, r2
 800742e:	001e      	movs	r6, r3
 8007430:	9003      	str	r0, [sp, #12]
 8007432:	9101      	str	r1, [sp, #4]
 8007434:	2b24      	cmp	r3, #36	@ 0x24
 8007436:	d844      	bhi.n	80074c2 <_strtol_l.constprop.0+0x9a>
 8007438:	000c      	movs	r4, r1
 800743a:	2b01      	cmp	r3, #1
 800743c:	d041      	beq.n	80074c2 <_strtol_l.constprop.0+0x9a>
 800743e:	4b3d      	ldr	r3, [pc, #244]	@ (8007534 <_strtol_l.constprop.0+0x10c>)
 8007440:	2208      	movs	r2, #8
 8007442:	469c      	mov	ip, r3
 8007444:	0023      	movs	r3, r4
 8007446:	4661      	mov	r1, ip
 8007448:	781d      	ldrb	r5, [r3, #0]
 800744a:	3401      	adds	r4, #1
 800744c:	5d48      	ldrb	r0, [r1, r5]
 800744e:	0001      	movs	r1, r0
 8007450:	4011      	ands	r1, r2
 8007452:	4210      	tst	r0, r2
 8007454:	d1f6      	bne.n	8007444 <_strtol_l.constprop.0+0x1c>
 8007456:	2d2d      	cmp	r5, #45	@ 0x2d
 8007458:	d13a      	bne.n	80074d0 <_strtol_l.constprop.0+0xa8>
 800745a:	7825      	ldrb	r5, [r4, #0]
 800745c:	1c9c      	adds	r4, r3, #2
 800745e:	2301      	movs	r3, #1
 8007460:	9300      	str	r3, [sp, #0]
 8007462:	2210      	movs	r2, #16
 8007464:	0033      	movs	r3, r6
 8007466:	4393      	bics	r3, r2
 8007468:	d109      	bne.n	800747e <_strtol_l.constprop.0+0x56>
 800746a:	2d30      	cmp	r5, #48	@ 0x30
 800746c:	d136      	bne.n	80074dc <_strtol_l.constprop.0+0xb4>
 800746e:	2120      	movs	r1, #32
 8007470:	7823      	ldrb	r3, [r4, #0]
 8007472:	438b      	bics	r3, r1
 8007474:	2b58      	cmp	r3, #88	@ 0x58
 8007476:	d131      	bne.n	80074dc <_strtol_l.constprop.0+0xb4>
 8007478:	0016      	movs	r6, r2
 800747a:	7865      	ldrb	r5, [r4, #1]
 800747c:	3402      	adds	r4, #2
 800747e:	4a2e      	ldr	r2, [pc, #184]	@ (8007538 <_strtol_l.constprop.0+0x110>)
 8007480:	9b00      	ldr	r3, [sp, #0]
 8007482:	4694      	mov	ip, r2
 8007484:	4463      	add	r3, ip
 8007486:	0031      	movs	r1, r6
 8007488:	0018      	movs	r0, r3
 800748a:	9302      	str	r3, [sp, #8]
 800748c:	f7f8 fecc 	bl	8000228 <__aeabi_uidivmod>
 8007490:	2200      	movs	r2, #0
 8007492:	4684      	mov	ip, r0
 8007494:	0010      	movs	r0, r2
 8007496:	002b      	movs	r3, r5
 8007498:	3b30      	subs	r3, #48	@ 0x30
 800749a:	2b09      	cmp	r3, #9
 800749c:	d825      	bhi.n	80074ea <_strtol_l.constprop.0+0xc2>
 800749e:	001d      	movs	r5, r3
 80074a0:	42ae      	cmp	r6, r5
 80074a2:	dd31      	ble.n	8007508 <_strtol_l.constprop.0+0xe0>
 80074a4:	1c53      	adds	r3, r2, #1
 80074a6:	d009      	beq.n	80074bc <_strtol_l.constprop.0+0x94>
 80074a8:	2201      	movs	r2, #1
 80074aa:	4252      	negs	r2, r2
 80074ac:	4584      	cmp	ip, r0
 80074ae:	d305      	bcc.n	80074bc <_strtol_l.constprop.0+0x94>
 80074b0:	d101      	bne.n	80074b6 <_strtol_l.constprop.0+0x8e>
 80074b2:	42a9      	cmp	r1, r5
 80074b4:	db25      	blt.n	8007502 <_strtol_l.constprop.0+0xda>
 80074b6:	2201      	movs	r2, #1
 80074b8:	4370      	muls	r0, r6
 80074ba:	1828      	adds	r0, r5, r0
 80074bc:	7825      	ldrb	r5, [r4, #0]
 80074be:	3401      	adds	r4, #1
 80074c0:	e7e9      	b.n	8007496 <_strtol_l.constprop.0+0x6e>
 80074c2:	f000 f883 	bl	80075cc <__errno>
 80074c6:	2316      	movs	r3, #22
 80074c8:	6003      	str	r3, [r0, #0]
 80074ca:	2000      	movs	r0, #0
 80074cc:	b005      	add	sp, #20
 80074ce:	bdf0      	pop	{r4, r5, r6, r7, pc}
 80074d0:	9100      	str	r1, [sp, #0]
 80074d2:	2d2b      	cmp	r5, #43	@ 0x2b
 80074d4:	d1c5      	bne.n	8007462 <_strtol_l.constprop.0+0x3a>
 80074d6:	7825      	ldrb	r5, [r4, #0]
 80074d8:	1c9c      	adds	r4, r3, #2
 80074da:	e7c2      	b.n	8007462 <_strtol_l.constprop.0+0x3a>
 80074dc:	2e00      	cmp	r6, #0
 80074de:	d1ce      	bne.n	800747e <_strtol_l.constprop.0+0x56>
 80074e0:	3608      	adds	r6, #8
 80074e2:	2d30      	cmp	r5, #48	@ 0x30
 80074e4:	d0cb      	beq.n	800747e <_strtol_l.constprop.0+0x56>
 80074e6:	3602      	adds	r6, #2
 80074e8:	e7c9      	b.n	800747e <_strtol_l.constprop.0+0x56>
 80074ea:	002b      	movs	r3, r5
 80074ec:	3b41      	subs	r3, #65	@ 0x41
 80074ee:	2b19      	cmp	r3, #25
 80074f0:	d801      	bhi.n	80074f6 <_strtol_l.constprop.0+0xce>
 80074f2:	3d37      	subs	r5, #55	@ 0x37
 80074f4:	e7d4      	b.n	80074a0 <_strtol_l.constprop.0+0x78>
 80074f6:	002b      	movs	r3, r5
 80074f8:	3b61      	subs	r3, #97	@ 0x61
 80074fa:	2b19      	cmp	r3, #25
 80074fc:	d804      	bhi.n	8007508 <_strtol_l.constprop.0+0xe0>
 80074fe:	3d57      	subs	r5, #87	@ 0x57
 8007500:	e7ce      	b.n	80074a0 <_strtol_l.constprop.0+0x78>
 8007502:	2201      	movs	r2, #1
 8007504:	4252      	negs	r2, r2
 8007506:	e7d9      	b.n	80074bc <_strtol_l.constprop.0+0x94>
 8007508:	1c53      	adds	r3, r2, #1
 800750a:	d108      	bne.n	800751e <_strtol_l.constprop.0+0xf6>
 800750c:	2322      	movs	r3, #34	@ 0x22
 800750e:	9a03      	ldr	r2, [sp, #12]
 8007510:	9802      	ldr	r0, [sp, #8]
 8007512:	6013      	str	r3, [r2, #0]
 8007514:	2f00      	cmp	r7, #0
 8007516:	d0d9      	beq.n	80074cc <_strtol_l.constprop.0+0xa4>
 8007518:	1e63      	subs	r3, r4, #1
 800751a:	9301      	str	r3, [sp, #4]
 800751c:	e007      	b.n	800752e <_strtol_l.constprop.0+0x106>
 800751e:	9b00      	ldr	r3, [sp, #0]
 8007520:	2b00      	cmp	r3, #0
 8007522:	d000      	beq.n	8007526 <_strtol_l.constprop.0+0xfe>
 8007524:	4240      	negs	r0, r0
 8007526:	2f00      	cmp	r7, #0
 8007528:	d0d0      	beq.n	80074cc <_strtol_l.constprop.0+0xa4>
 800752a:	2a00      	cmp	r2, #0
 800752c:	d1f4      	bne.n	8007518 <_strtol_l.constprop.0+0xf0>
 800752e:	9b01      	ldr	r3, [sp, #4]
 8007530:	603b      	str	r3, [r7, #0]
 8007532:	e7cb      	b.n	80074cc <_strtol_l.constprop.0+0xa4>
 8007534:	0800ab21 	.word	0x0800ab21
 8007538:	7fffffff 	.word	0x7fffffff

0800753c <strtol>:
 800753c:	b510      	push	{r4, lr}
 800753e:	4c04      	ldr	r4, [pc, #16]	@ (8007550 <strtol+0x14>)
 8007540:	0013      	movs	r3, r2
 8007542:	000a      	movs	r2, r1
 8007544:	0001      	movs	r1, r0
 8007546:	6820      	ldr	r0, [r4, #0]
 8007548:	f7ff ff6e 	bl	8007428 <_strtol_l.constprop.0>
 800754c:	bd10      	pop	{r4, pc}
 800754e:	46c0      	nop			@ (mov r8, r8)
 8007550:	20000028 	.word	0x20000028

08007554 <siprintf>:
 8007554:	b40e      	push	{r1, r2, r3}
 8007556:	b500      	push	{lr}
 8007558:	490b      	ldr	r1, [pc, #44]	@ (8007588 <siprintf+0x34>)
 800755a:	b09c      	sub	sp, #112	@ 0x70
 800755c:	ab1d      	add	r3, sp, #116	@ 0x74
 800755e:	9002      	str	r0, [sp, #8]
 8007560:	9006      	str	r0, [sp, #24]
 8007562:	9107      	str	r1, [sp, #28]
 8007564:	9104      	str	r1, [sp, #16]
 8007566:	4809      	ldr	r0, [pc, #36]	@ (800758c <siprintf+0x38>)
 8007568:	4909      	ldr	r1, [pc, #36]	@ (8007590 <siprintf+0x3c>)
 800756a:	cb04      	ldmia	r3!, {r2}
 800756c:	9105      	str	r1, [sp, #20]
 800756e:	6800      	ldr	r0, [r0, #0]
 8007570:	a902      	add	r1, sp, #8
 8007572:	9301      	str	r3, [sp, #4]
 8007574:	f000 f9b2 	bl	80078dc <_svfiprintf_r>
 8007578:	2200      	movs	r2, #0
 800757a:	9b02      	ldr	r3, [sp, #8]
 800757c:	701a      	strb	r2, [r3, #0]
 800757e:	b01c      	add	sp, #112	@ 0x70
 8007580:	bc08      	pop	{r3}
 8007582:	b003      	add	sp, #12
 8007584:	4718      	bx	r3
 8007586:	46c0      	nop			@ (mov r8, r8)
 8007588:	7fffffff 	.word	0x7fffffff
 800758c:	20000028 	.word	0x20000028
 8007590:	ffff0208 	.word	0xffff0208

08007594 <memset>:
 8007594:	0003      	movs	r3, r0
 8007596:	1882      	adds	r2, r0, r2
 8007598:	4293      	cmp	r3, r2
 800759a:	d100      	bne.n	800759e <memset+0xa>
 800759c:	4770      	bx	lr
 800759e:	7019      	strb	r1, [r3, #0]
 80075a0:	3301      	adds	r3, #1
 80075a2:	e7f9      	b.n	8007598 <memset+0x4>

080075a4 <strncpy>:
 80075a4:	0003      	movs	r3, r0
 80075a6:	b530      	push	{r4, r5, lr}
 80075a8:	001d      	movs	r5, r3
 80075aa:	2a00      	cmp	r2, #0
 80075ac:	d006      	beq.n	80075bc <strncpy+0x18>
 80075ae:	780c      	ldrb	r4, [r1, #0]
 80075b0:	3a01      	subs	r2, #1
 80075b2:	3301      	adds	r3, #1
 80075b4:	702c      	strb	r4, [r5, #0]
 80075b6:	3101      	adds	r1, #1
 80075b8:	2c00      	cmp	r4, #0
 80075ba:	d1f5      	bne.n	80075a8 <strncpy+0x4>
 80075bc:	2100      	movs	r1, #0
 80075be:	189a      	adds	r2, r3, r2
 80075c0:	4293      	cmp	r3, r2
 80075c2:	d100      	bne.n	80075c6 <strncpy+0x22>
 80075c4:	bd30      	pop	{r4, r5, pc}
 80075c6:	7019      	strb	r1, [r3, #0]
 80075c8:	3301      	adds	r3, #1
 80075ca:	e7f9      	b.n	80075c0 <strncpy+0x1c>

080075cc <__errno>:
 80075cc:	4b01      	ldr	r3, [pc, #4]	@ (80075d4 <__errno+0x8>)
 80075ce:	6818      	ldr	r0, [r3, #0]
 80075d0:	4770      	bx	lr
 80075d2:	46c0      	nop			@ (mov r8, r8)
 80075d4:	20000028 	.word	0x20000028

080075d8 <__libc_init_array>:
 80075d8:	b570      	push	{r4, r5, r6, lr}
 80075da:	2600      	movs	r6, #0
 80075dc:	4c0c      	ldr	r4, [pc, #48]	@ (8007610 <__libc_init_array+0x38>)
 80075de:	4d0d      	ldr	r5, [pc, #52]	@ (8007614 <__libc_init_array+0x3c>)
 80075e0:	1b64      	subs	r4, r4, r5
 80075e2:	10a4      	asrs	r4, r4, #2
 80075e4:	42a6      	cmp	r6, r4
 80075e6:	d109      	bne.n	80075fc <__libc_init_array+0x24>
 80075e8:	2600      	movs	r6, #0
 80075ea:	f000 fcad 	bl	8007f48 <_init>
 80075ee:	4c0a      	ldr	r4, [pc, #40]	@ (8007618 <__libc_init_array+0x40>)
 80075f0:	4d0a      	ldr	r5, [pc, #40]	@ (800761c <__libc_init_array+0x44>)
 80075f2:	1b64      	subs	r4, r4, r5
 80075f4:	10a4      	asrs	r4, r4, #2
 80075f6:	42a6      	cmp	r6, r4
 80075f8:	d105      	bne.n	8007606 <__libc_init_array+0x2e>
 80075fa:	bd70      	pop	{r4, r5, r6, pc}
 80075fc:	00b3      	lsls	r3, r6, #2
 80075fe:	58eb      	ldr	r3, [r5, r3]
 8007600:	4798      	blx	r3
 8007602:	3601      	adds	r6, #1
 8007604:	e7ee      	b.n	80075e4 <__libc_init_array+0xc>
 8007606:	00b3      	lsls	r3, r6, #2
 8007608:	58eb      	ldr	r3, [r5, r3]
 800760a:	4798      	blx	r3
 800760c:	3601      	adds	r6, #1
 800760e:	e7f2      	b.n	80075f6 <__libc_init_array+0x1e>
 8007610:	0800ac54 	.word	0x0800ac54
 8007614:	0800ac54 	.word	0x0800ac54
 8007618:	0800ac58 	.word	0x0800ac58
 800761c:	0800ac54 	.word	0x0800ac54

08007620 <__retarget_lock_acquire_recursive>:
 8007620:	4770      	bx	lr

08007622 <__retarget_lock_release_recursive>:
 8007622:	4770      	bx	lr

08007624 <_free_r>:
 8007624:	b570      	push	{r4, r5, r6, lr}
 8007626:	0005      	movs	r5, r0
 8007628:	1e0c      	subs	r4, r1, #0
 800762a:	d010      	beq.n	800764e <_free_r+0x2a>
 800762c:	3c04      	subs	r4, #4
 800762e:	6823      	ldr	r3, [r4, #0]
 8007630:	2b00      	cmp	r3, #0
 8007632:	da00      	bge.n	8007636 <_free_r+0x12>
 8007634:	18e4      	adds	r4, r4, r3
 8007636:	0028      	movs	r0, r5
 8007638:	f000 f8e0 	bl	80077fc <__malloc_lock>
 800763c:	4a1d      	ldr	r2, [pc, #116]	@ (80076b4 <_free_r+0x90>)
 800763e:	6813      	ldr	r3, [r2, #0]
 8007640:	2b00      	cmp	r3, #0
 8007642:	d105      	bne.n	8007650 <_free_r+0x2c>
 8007644:	6063      	str	r3, [r4, #4]
 8007646:	6014      	str	r4, [r2, #0]
 8007648:	0028      	movs	r0, r5
 800764a:	f000 f8df 	bl	800780c <__malloc_unlock>
 800764e:	bd70      	pop	{r4, r5, r6, pc}
 8007650:	42a3      	cmp	r3, r4
 8007652:	d908      	bls.n	8007666 <_free_r+0x42>
 8007654:	6820      	ldr	r0, [r4, #0]
 8007656:	1821      	adds	r1, r4, r0
 8007658:	428b      	cmp	r3, r1
 800765a:	d1f3      	bne.n	8007644 <_free_r+0x20>
 800765c:	6819      	ldr	r1, [r3, #0]
 800765e:	685b      	ldr	r3, [r3, #4]
 8007660:	1809      	adds	r1, r1, r0
 8007662:	6021      	str	r1, [r4, #0]
 8007664:	e7ee      	b.n	8007644 <_free_r+0x20>
 8007666:	001a      	movs	r2, r3
 8007668:	685b      	ldr	r3, [r3, #4]
 800766a:	2b00      	cmp	r3, #0
 800766c:	d001      	beq.n	8007672 <_free_r+0x4e>
 800766e:	42a3      	cmp	r3, r4
 8007670:	d9f9      	bls.n	8007666 <_free_r+0x42>
 8007672:	6811      	ldr	r1, [r2, #0]
 8007674:	1850      	adds	r0, r2, r1
 8007676:	42a0      	cmp	r0, r4
 8007678:	d10b      	bne.n	8007692 <_free_r+0x6e>
 800767a:	6820      	ldr	r0, [r4, #0]
 800767c:	1809      	adds	r1, r1, r0
 800767e:	1850      	adds	r0, r2, r1
 8007680:	6011      	str	r1, [r2, #0]
 8007682:	4283      	cmp	r3, r0
 8007684:	d1e0      	bne.n	8007648 <_free_r+0x24>
 8007686:	6818      	ldr	r0, [r3, #0]
 8007688:	685b      	ldr	r3, [r3, #4]
 800768a:	1841      	adds	r1, r0, r1
 800768c:	6011      	str	r1, [r2, #0]
 800768e:	6053      	str	r3, [r2, #4]
 8007690:	e7da      	b.n	8007648 <_free_r+0x24>
 8007692:	42a0      	cmp	r0, r4
 8007694:	d902      	bls.n	800769c <_free_r+0x78>
 8007696:	230c      	movs	r3, #12
 8007698:	602b      	str	r3, [r5, #0]
 800769a:	e7d5      	b.n	8007648 <_free_r+0x24>
 800769c:	6820      	ldr	r0, [r4, #0]
 800769e:	1821      	adds	r1, r4, r0
 80076a0:	428b      	cmp	r3, r1
 80076a2:	d103      	bne.n	80076ac <_free_r+0x88>
 80076a4:	6819      	ldr	r1, [r3, #0]
 80076a6:	685b      	ldr	r3, [r3, #4]
 80076a8:	1809      	adds	r1, r1, r0
 80076aa:	6021      	str	r1, [r4, #0]
 80076ac:	6063      	str	r3, [r4, #4]
 80076ae:	6054      	str	r4, [r2, #4]
 80076b0:	e7ca      	b.n	8007648 <_free_r+0x24>
 80076b2:	46c0      	nop			@ (mov r8, r8)
 80076b4:	200006d4 	.word	0x200006d4

080076b8 <sbrk_aligned>:
 80076b8:	b570      	push	{r4, r5, r6, lr}
 80076ba:	4e0f      	ldr	r6, [pc, #60]	@ (80076f8 <sbrk_aligned+0x40>)
 80076bc:	000d      	movs	r5, r1
 80076be:	6831      	ldr	r1, [r6, #0]
 80076c0:	0004      	movs	r4, r0
 80076c2:	2900      	cmp	r1, #0
 80076c4:	d102      	bne.n	80076cc <sbrk_aligned+0x14>
 80076c6:	f000 fb99 	bl	8007dfc <_sbrk_r>
 80076ca:	6030      	str	r0, [r6, #0]
 80076cc:	0029      	movs	r1, r5
 80076ce:	0020      	movs	r0, r4
 80076d0:	f000 fb94 	bl	8007dfc <_sbrk_r>
 80076d4:	1c43      	adds	r3, r0, #1
 80076d6:	d103      	bne.n	80076e0 <sbrk_aligned+0x28>
 80076d8:	2501      	movs	r5, #1
 80076da:	426d      	negs	r5, r5
 80076dc:	0028      	movs	r0, r5
 80076de:	bd70      	pop	{r4, r5, r6, pc}
 80076e0:	2303      	movs	r3, #3
 80076e2:	1cc5      	adds	r5, r0, #3
 80076e4:	439d      	bics	r5, r3
 80076e6:	42a8      	cmp	r0, r5
 80076e8:	d0f8      	beq.n	80076dc <sbrk_aligned+0x24>
 80076ea:	1a29      	subs	r1, r5, r0
 80076ec:	0020      	movs	r0, r4
 80076ee:	f000 fb85 	bl	8007dfc <_sbrk_r>
 80076f2:	3001      	adds	r0, #1
 80076f4:	d1f2      	bne.n	80076dc <sbrk_aligned+0x24>
 80076f6:	e7ef      	b.n	80076d8 <sbrk_aligned+0x20>
 80076f8:	200006d0 	.word	0x200006d0

080076fc <_malloc_r>:
 80076fc:	b5f7      	push	{r0, r1, r2, r4, r5, r6, r7, lr}
 80076fe:	2203      	movs	r2, #3
 8007700:	1ccb      	adds	r3, r1, #3
 8007702:	4393      	bics	r3, r2
 8007704:	3308      	adds	r3, #8
 8007706:	0005      	movs	r5, r0
 8007708:	001f      	movs	r7, r3
 800770a:	2b0c      	cmp	r3, #12
 800770c:	d234      	bcs.n	8007778 <_malloc_r+0x7c>
 800770e:	270c      	movs	r7, #12
 8007710:	42b9      	cmp	r1, r7
 8007712:	d833      	bhi.n	800777c <_malloc_r+0x80>
 8007714:	0028      	movs	r0, r5
 8007716:	f000 f871 	bl	80077fc <__malloc_lock>
 800771a:	4e37      	ldr	r6, [pc, #220]	@ (80077f8 <_malloc_r+0xfc>)
 800771c:	6833      	ldr	r3, [r6, #0]
 800771e:	001c      	movs	r4, r3
 8007720:	2c00      	cmp	r4, #0
 8007722:	d12f      	bne.n	8007784 <_malloc_r+0x88>
 8007724:	0039      	movs	r1, r7
 8007726:	0028      	movs	r0, r5
 8007728:	f7ff ffc6 	bl	80076b8 <sbrk_aligned>
 800772c:	0004      	movs	r4, r0
 800772e:	1c43      	adds	r3, r0, #1
 8007730:	d15f      	bne.n	80077f2 <_malloc_r+0xf6>
 8007732:	6834      	ldr	r4, [r6, #0]
 8007734:	9400      	str	r4, [sp, #0]
 8007736:	9b00      	ldr	r3, [sp, #0]
 8007738:	2b00      	cmp	r3, #0
 800773a:	d14a      	bne.n	80077d2 <_malloc_r+0xd6>
 800773c:	2c00      	cmp	r4, #0
 800773e:	d052      	beq.n	80077e6 <_malloc_r+0xea>
 8007740:	6823      	ldr	r3, [r4, #0]
 8007742:	0028      	movs	r0, r5
 8007744:	18e3      	adds	r3, r4, r3
 8007746:	9900      	ldr	r1, [sp, #0]
 8007748:	9301      	str	r3, [sp, #4]
 800774a:	f000 fb57 	bl	8007dfc <_sbrk_r>
 800774e:	9b01      	ldr	r3, [sp, #4]
 8007750:	4283      	cmp	r3, r0
 8007752:	d148      	bne.n	80077e6 <_malloc_r+0xea>
 8007754:	6823      	ldr	r3, [r4, #0]
 8007756:	0028      	movs	r0, r5
 8007758:	1aff      	subs	r7, r7, r3
 800775a:	0039      	movs	r1, r7
 800775c:	f7ff ffac 	bl	80076b8 <sbrk_aligned>
 8007760:	3001      	adds	r0, #1
 8007762:	d040      	beq.n	80077e6 <_malloc_r+0xea>
 8007764:	6823      	ldr	r3, [r4, #0]
 8007766:	19db      	adds	r3, r3, r7
 8007768:	6023      	str	r3, [r4, #0]
 800776a:	6833      	ldr	r3, [r6, #0]
 800776c:	685a      	ldr	r2, [r3, #4]
 800776e:	2a00      	cmp	r2, #0
 8007770:	d133      	bne.n	80077da <_malloc_r+0xde>
 8007772:	9b00      	ldr	r3, [sp, #0]
 8007774:	6033      	str	r3, [r6, #0]
 8007776:	e019      	b.n	80077ac <_malloc_r+0xb0>
 8007778:	2b00      	cmp	r3, #0
 800777a:	dac9      	bge.n	8007710 <_malloc_r+0x14>
 800777c:	230c      	movs	r3, #12
 800777e:	602b      	str	r3, [r5, #0]
 8007780:	2000      	movs	r0, #0
 8007782:	bdfe      	pop	{r1, r2, r3, r4, r5, r6, r7, pc}
 8007784:	6821      	ldr	r1, [r4, #0]
 8007786:	1bc9      	subs	r1, r1, r7
 8007788:	d420      	bmi.n	80077cc <_malloc_r+0xd0>
 800778a:	290b      	cmp	r1, #11
 800778c:	d90a      	bls.n	80077a4 <_malloc_r+0xa8>
 800778e:	19e2      	adds	r2, r4, r7
 8007790:	6027      	str	r7, [r4, #0]
 8007792:	42a3      	cmp	r3, r4
 8007794:	d104      	bne.n	80077a0 <_malloc_r+0xa4>
 8007796:	6032      	str	r2, [r6, #0]
 8007798:	6863      	ldr	r3, [r4, #4]
 800779a:	6011      	str	r1, [r2, #0]
 800779c:	6053      	str	r3, [r2, #4]
 800779e:	e005      	b.n	80077ac <_malloc_r+0xb0>
 80077a0:	605a      	str	r2, [r3, #4]
 80077a2:	e7f9      	b.n	8007798 <_malloc_r+0x9c>
 80077a4:	6862      	ldr	r2, [r4, #4]
 80077a6:	42a3      	cmp	r3, r4
 80077a8:	d10e      	bne.n	80077c8 <_malloc_r+0xcc>
 80077aa:	6032      	str	r2, [r6, #0]
 80077ac:	0028      	movs	r0, r5
 80077ae:	f000 f82d 	bl	800780c <__malloc_unlock>
 80077b2:	0020      	movs	r0, r4
 80077b4:	2207      	movs	r2, #7
 80077b6:	300b      	adds	r0, #11
 80077b8:	1d23      	adds	r3, r4, #4
 80077ba:	4390      	bics	r0, r2
 80077bc:	1ac2      	subs	r2, r0, r3
 80077be:	4298      	cmp	r0, r3
 80077c0:	d0df      	beq.n	8007782 <_malloc_r+0x86>
 80077c2:	1a1b      	subs	r3, r3, r0
 80077c4:	50a3      	str	r3, [r4, r2]
 80077c6:	e7dc      	b.n	8007782 <_malloc_r+0x86>
 80077c8:	605a      	str	r2, [r3, #4]
 80077ca:	e7ef      	b.n	80077ac <_malloc_r+0xb0>
 80077cc:	0023      	movs	r3, r4
 80077ce:	6864      	ldr	r4, [r4, #4]
 80077d0:	e7a6      	b.n	8007720 <_malloc_r+0x24>
 80077d2:	9c00      	ldr	r4, [sp, #0]
 80077d4:	6863      	ldr	r3, [r4, #4]
 80077d6:	9300      	str	r3, [sp, #0]
 80077d8:	e7ad      	b.n	8007736 <_malloc_r+0x3a>
 80077da:	001a      	movs	r2, r3
 80077dc:	685b      	ldr	r3, [r3, #4]
 80077de:	42a3      	cmp	r3, r4
 80077e0:	d1fb      	bne.n	80077da <_malloc_r+0xde>
 80077e2:	2300      	movs	r3, #0
 80077e4:	e7da      	b.n	800779c <_malloc_r+0xa0>
 80077e6:	230c      	movs	r3, #12
 80077e8:	0028      	movs	r0, r5
 80077ea:	602b      	str	r3, [r5, #0]
 80077ec:	f000 f80e 	bl	800780c <__malloc_unlock>
 80077f0:	e7c6      	b.n	8007780 <_malloc_r+0x84>
 80077f2:	6007      	str	r7, [r0, #0]
 80077f4:	e7da      	b.n	80077ac <_malloc_r+0xb0>
 80077f6:	46c0      	nop			@ (mov r8, r8)
 80077f8:	200006d4 	.word	0x200006d4

080077fc <__malloc_lock>:
 80077fc:	b510      	push	{r4, lr}
 80077fe:	4802      	ldr	r0, [pc, #8]	@ (8007808 <__malloc_lock+0xc>)
 8007800:	f7ff ff0e 	bl	8007620 <__retarget_lock_acquire_recursive>
 8007804:	bd10      	pop	{r4, pc}
 8007806:	46c0      	nop			@ (mov r8, r8)
 8007808:	200006cc 	.word	0x200006cc

0800780c <__malloc_unlock>:
 800780c:	b510      	push	{r4, lr}
 800780e:	4802      	ldr	r0, [pc, #8]	@ (8007818 <__malloc_unlock+0xc>)
 8007810:	f7ff ff07 	bl	8007622 <__retarget_lock_release_recursive>
 8007814:	bd10      	pop	{r4, pc}
 8007816:	46c0      	nop			@ (mov r8, r8)
 8007818:	200006cc 	.word	0x200006cc

0800781c <__ssputs_r>:
 800781c:	b5f0      	push	{r4, r5, r6, r7, lr}
 800781e:	688e      	ldr	r6, [r1, #8]
 8007820:	b085      	sub	sp, #20
 8007822:	001f      	movs	r7, r3
 8007824:	000c      	movs	r4, r1
 8007826:	680b      	ldr	r3, [r1, #0]
 8007828:	9002      	str	r0, [sp, #8]
 800782a:	9203      	str	r2, [sp, #12]
 800782c:	42be      	cmp	r6, r7
 800782e:	d830      	bhi.n	8007892 <__ssputs_r+0x76>
 8007830:	210c      	movs	r1, #12
 8007832:	5e62      	ldrsh	r2, [r4, r1]
 8007834:	2190      	movs	r1, #144	@ 0x90
 8007836:	00c9      	lsls	r1, r1, #3
 8007838:	420a      	tst	r2, r1
 800783a:	d028      	beq.n	800788e <__ssputs_r+0x72>
 800783c:	2003      	movs	r0, #3
 800783e:	6921      	ldr	r1, [r4, #16]
 8007840:	1a5b      	subs	r3, r3, r1
 8007842:	9301      	str	r3, [sp, #4]
 8007844:	6963      	ldr	r3, [r4, #20]
 8007846:	4343      	muls	r3, r0
 8007848:	9801      	ldr	r0, [sp, #4]
 800784a:	0fdd      	lsrs	r5, r3, #31
 800784c:	18ed      	adds	r5, r5, r3
 800784e:	1c7b      	adds	r3, r7, #1
 8007850:	181b      	adds	r3, r3, r0
 8007852:	106d      	asrs	r5, r5, #1
 8007854:	42ab      	cmp	r3, r5
 8007856:	d900      	bls.n	800785a <__ssputs_r+0x3e>
 8007858:	001d      	movs	r5, r3
 800785a:	0552      	lsls	r2, r2, #21
 800785c:	d528      	bpl.n	80078b0 <__ssputs_r+0x94>
 800785e:	0029      	movs	r1, r5
 8007860:	9802      	ldr	r0, [sp, #8]
 8007862:	f7ff ff4b 	bl	80076fc <_malloc_r>
 8007866:	1e06      	subs	r6, r0, #0
 8007868:	d02c      	beq.n	80078c4 <__ssputs_r+0xa8>
 800786a:	9a01      	ldr	r2, [sp, #4]
 800786c:	6921      	ldr	r1, [r4, #16]
 800786e:	f000 fae2 	bl	8007e36 <memcpy>
 8007872:	89a2      	ldrh	r2, [r4, #12]
 8007874:	4b18      	ldr	r3, [pc, #96]	@ (80078d8 <__ssputs_r+0xbc>)
 8007876:	401a      	ands	r2, r3
 8007878:	2380      	movs	r3, #128	@ 0x80
 800787a:	4313      	orrs	r3, r2
 800787c:	81a3      	strh	r3, [r4, #12]
 800787e:	9b01      	ldr	r3, [sp, #4]
 8007880:	6126      	str	r6, [r4, #16]
 8007882:	18f6      	adds	r6, r6, r3
 8007884:	6026      	str	r6, [r4, #0]
 8007886:	003e      	movs	r6, r7
 8007888:	6165      	str	r5, [r4, #20]
 800788a:	1aed      	subs	r5, r5, r3
 800788c:	60a5      	str	r5, [r4, #8]
 800788e:	42be      	cmp	r6, r7
 8007890:	d900      	bls.n	8007894 <__ssputs_r+0x78>
 8007892:	003e      	movs	r6, r7
 8007894:	0032      	movs	r2, r6
 8007896:	9903      	ldr	r1, [sp, #12]
 8007898:	6820      	ldr	r0, [r4, #0]
 800789a:	f000 fa9b 	bl	8007dd4 <memmove>
 800789e:	2000      	movs	r0, #0
 80078a0:	68a3      	ldr	r3, [r4, #8]
 80078a2:	1b9b      	subs	r3, r3, r6
 80078a4:	60a3      	str	r3, [r4, #8]
 80078a6:	6823      	ldr	r3, [r4, #0]
 80078a8:	199b      	adds	r3, r3, r6
 80078aa:	6023      	str	r3, [r4, #0]
 80078ac:	b005      	add	sp, #20
 80078ae:	bdf0      	pop	{r4, r5, r6, r7, pc}
 80078b0:	002a      	movs	r2, r5
 80078b2:	9802      	ldr	r0, [sp, #8]
 80078b4:	f000 fac8 	bl	8007e48 <_realloc_r>
 80078b8:	1e06      	subs	r6, r0, #0
 80078ba:	d1e0      	bne.n	800787e <__ssputs_r+0x62>
 80078bc:	6921      	ldr	r1, [r4, #16]
 80078be:	9802      	ldr	r0, [sp, #8]
 80078c0:	f7ff feb0 	bl	8007624 <_free_r>
 80078c4:	230c      	movs	r3, #12
 80078c6:	2001      	movs	r0, #1
 80078c8:	9a02      	ldr	r2, [sp, #8]
 80078ca:	4240      	negs	r0, r0
 80078cc:	6013      	str	r3, [r2, #0]
 80078ce:	89a2      	ldrh	r2, [r4, #12]
 80078d0:	3334      	adds	r3, #52	@ 0x34
 80078d2:	4313      	orrs	r3, r2
 80078d4:	81a3      	strh	r3, [r4, #12]
 80078d6:	e7e9      	b.n	80078ac <__ssputs_r+0x90>
 80078d8:	fffffb7f 	.word	0xfffffb7f

080078dc <_svfiprintf_r>:
 80078dc:	b5f0      	push	{r4, r5, r6, r7, lr}
 80078de:	b0a1      	sub	sp, #132	@ 0x84
 80078e0:	9003      	str	r0, [sp, #12]
 80078e2:	001d      	movs	r5, r3
 80078e4:	898b      	ldrh	r3, [r1, #12]
 80078e6:	000f      	movs	r7, r1
 80078e8:	0016      	movs	r6, r2
 80078ea:	061b      	lsls	r3, r3, #24
 80078ec:	d511      	bpl.n	8007912 <_svfiprintf_r+0x36>
 80078ee:	690b      	ldr	r3, [r1, #16]
 80078f0:	2b00      	cmp	r3, #0
 80078f2:	d10e      	bne.n	8007912 <_svfiprintf_r+0x36>
 80078f4:	2140      	movs	r1, #64	@ 0x40
 80078f6:	f7ff ff01 	bl	80076fc <_malloc_r>
 80078fa:	6038      	str	r0, [r7, #0]
 80078fc:	6138      	str	r0, [r7, #16]
 80078fe:	2800      	cmp	r0, #0
 8007900:	d105      	bne.n	800790e <_svfiprintf_r+0x32>
 8007902:	230c      	movs	r3, #12
 8007904:	9a03      	ldr	r2, [sp, #12]
 8007906:	6013      	str	r3, [r2, #0]
 8007908:	2001      	movs	r0, #1
 800790a:	4240      	negs	r0, r0
 800790c:	e0cf      	b.n	8007aae <_svfiprintf_r+0x1d2>
 800790e:	2340      	movs	r3, #64	@ 0x40
 8007910:	617b      	str	r3, [r7, #20]
 8007912:	2300      	movs	r3, #0
 8007914:	ac08      	add	r4, sp, #32
 8007916:	6163      	str	r3, [r4, #20]
 8007918:	3320      	adds	r3, #32
 800791a:	7663      	strb	r3, [r4, #25]
 800791c:	3310      	adds	r3, #16
 800791e:	76a3      	strb	r3, [r4, #26]
 8007920:	9507      	str	r5, [sp, #28]
 8007922:	0035      	movs	r5, r6
 8007924:	782b      	ldrb	r3, [r5, #0]
 8007926:	2b00      	cmp	r3, #0
 8007928:	d001      	beq.n	800792e <_svfiprintf_r+0x52>
 800792a:	2b25      	cmp	r3, #37	@ 0x25
 800792c:	d148      	bne.n	80079c0 <_svfiprintf_r+0xe4>
 800792e:	1bab      	subs	r3, r5, r6
 8007930:	9305      	str	r3, [sp, #20]
 8007932:	42b5      	cmp	r5, r6
 8007934:	d00b      	beq.n	800794e <_svfiprintf_r+0x72>
 8007936:	0032      	movs	r2, r6
 8007938:	0039      	movs	r1, r7
 800793a:	9803      	ldr	r0, [sp, #12]
 800793c:	f7ff ff6e 	bl	800781c <__ssputs_r>
 8007940:	3001      	adds	r0, #1
 8007942:	d100      	bne.n	8007946 <_svfiprintf_r+0x6a>
 8007944:	e0ae      	b.n	8007aa4 <_svfiprintf_r+0x1c8>
 8007946:	6963      	ldr	r3, [r4, #20]
 8007948:	9a05      	ldr	r2, [sp, #20]
 800794a:	189b      	adds	r3, r3, r2
 800794c:	6163      	str	r3, [r4, #20]
 800794e:	782b      	ldrb	r3, [r5, #0]
 8007950:	2b00      	cmp	r3, #0
 8007952:	d100      	bne.n	8007956 <_svfiprintf_r+0x7a>
 8007954:	e0a6      	b.n	8007aa4 <_svfiprintf_r+0x1c8>
 8007956:	2201      	movs	r2, #1
 8007958:	2300      	movs	r3, #0
 800795a:	4252      	negs	r2, r2
 800795c:	6062      	str	r2, [r4, #4]
 800795e:	a904      	add	r1, sp, #16
 8007960:	3254      	adds	r2, #84	@ 0x54
 8007962:	1852      	adds	r2, r2, r1
 8007964:	1c6e      	adds	r6, r5, #1
 8007966:	6023      	str	r3, [r4, #0]
 8007968:	60e3      	str	r3, [r4, #12]
 800796a:	60a3      	str	r3, [r4, #8]
 800796c:	7013      	strb	r3, [r2, #0]
 800796e:	65a3      	str	r3, [r4, #88]	@ 0x58
 8007970:	4b54      	ldr	r3, [pc, #336]	@ (8007ac4 <_svfiprintf_r+0x1e8>)
 8007972:	2205      	movs	r2, #5
 8007974:	0018      	movs	r0, r3
 8007976:	7831      	ldrb	r1, [r6, #0]
 8007978:	9305      	str	r3, [sp, #20]
 800797a:	f000 fa51 	bl	8007e20 <memchr>
 800797e:	1c75      	adds	r5, r6, #1
 8007980:	2800      	cmp	r0, #0
 8007982:	d11f      	bne.n	80079c4 <_svfiprintf_r+0xe8>
 8007984:	6822      	ldr	r2, [r4, #0]
 8007986:	06d3      	lsls	r3, r2, #27
 8007988:	d504      	bpl.n	8007994 <_svfiprintf_r+0xb8>
 800798a:	2353      	movs	r3, #83	@ 0x53
 800798c:	a904      	add	r1, sp, #16
 800798e:	185b      	adds	r3, r3, r1
 8007990:	2120      	movs	r1, #32
 8007992:	7019      	strb	r1, [r3, #0]
 8007994:	0713      	lsls	r3, r2, #28
 8007996:	d504      	bpl.n	80079a2 <_svfiprintf_r+0xc6>
 8007998:	2353      	movs	r3, #83	@ 0x53
 800799a:	a904      	add	r1, sp, #16
 800799c:	185b      	adds	r3, r3, r1
 800799e:	212b      	movs	r1, #43	@ 0x2b
 80079a0:	7019      	strb	r1, [r3, #0]
 80079a2:	7833      	ldrb	r3, [r6, #0]
 80079a4:	2b2a      	cmp	r3, #42	@ 0x2a
 80079a6:	d016      	beq.n	80079d6 <_svfiprintf_r+0xfa>
 80079a8:	0035      	movs	r5, r6
 80079aa:	2100      	movs	r1, #0
 80079ac:	200a      	movs	r0, #10
 80079ae:	68e3      	ldr	r3, [r4, #12]
 80079b0:	782a      	ldrb	r2, [r5, #0]
 80079b2:	1c6e      	adds	r6, r5, #1
 80079b4:	3a30      	subs	r2, #48	@ 0x30
 80079b6:	2a09      	cmp	r2, #9
 80079b8:	d950      	bls.n	8007a5c <_svfiprintf_r+0x180>
 80079ba:	2900      	cmp	r1, #0
 80079bc:	d111      	bne.n	80079e2 <_svfiprintf_r+0x106>
 80079be:	e017      	b.n	80079f0 <_svfiprintf_r+0x114>
 80079c0:	3501      	adds	r5, #1
 80079c2:	e7af      	b.n	8007924 <_svfiprintf_r+0x48>
 80079c4:	9b05      	ldr	r3, [sp, #20]
 80079c6:	6822      	ldr	r2, [r4, #0]
 80079c8:	1ac0      	subs	r0, r0, r3
 80079ca:	2301      	movs	r3, #1
 80079cc:	4083      	lsls	r3, r0
 80079ce:	4313      	orrs	r3, r2
 80079d0:	002e      	movs	r6, r5
 80079d2:	6023      	str	r3, [r4, #0]
 80079d4:	e7cc      	b.n	8007970 <_svfiprintf_r+0x94>
 80079d6:	9b07      	ldr	r3, [sp, #28]
 80079d8:	1d19      	adds	r1, r3, #4
 80079da:	681b      	ldr	r3, [r3, #0]
 80079dc:	9107      	str	r1, [sp, #28]
 80079de:	2b00      	cmp	r3, #0
 80079e0:	db01      	blt.n	80079e6 <_svfiprintf_r+0x10a>
 80079e2:	930b      	str	r3, [sp, #44]	@ 0x2c
 80079e4:	e004      	b.n	80079f0 <_svfiprintf_r+0x114>
 80079e6:	425b      	negs	r3, r3
 80079e8:	60e3      	str	r3, [r4, #12]
 80079ea:	2302      	movs	r3, #2
 80079ec:	4313      	orrs	r3, r2
 80079ee:	6023      	str	r3, [r4, #0]
 80079f0:	782b      	ldrb	r3, [r5, #0]
 80079f2:	2b2e      	cmp	r3, #46	@ 0x2e
 80079f4:	d10c      	bne.n	8007a10 <_svfiprintf_r+0x134>
 80079f6:	786b      	ldrb	r3, [r5, #1]
 80079f8:	2b2a      	cmp	r3, #42	@ 0x2a
 80079fa:	d134      	bne.n	8007a66 <_svfiprintf_r+0x18a>
 80079fc:	9b07      	ldr	r3, [sp, #28]
 80079fe:	3502      	adds	r5, #2
 8007a00:	1d1a      	adds	r2, r3, #4
 8007a02:	681b      	ldr	r3, [r3, #0]
 8007a04:	9207      	str	r2, [sp, #28]
 8007a06:	2b00      	cmp	r3, #0
 8007a08:	da01      	bge.n	8007a0e <_svfiprintf_r+0x132>
 8007a0a:	2301      	movs	r3, #1
 8007a0c:	425b      	negs	r3, r3
 8007a0e:	9309      	str	r3, [sp, #36]	@ 0x24
 8007a10:	4e2d      	ldr	r6, [pc, #180]	@ (8007ac8 <_svfiprintf_r+0x1ec>)
 8007a12:	2203      	movs	r2, #3
 8007a14:	0030      	movs	r0, r6
 8007a16:	7829      	ldrb	r1, [r5, #0]
 8007a18:	f000 fa02 	bl	8007e20 <memchr>
 8007a1c:	2800      	cmp	r0, #0
 8007a1e:	d006      	beq.n	8007a2e <_svfiprintf_r+0x152>
 8007a20:	2340      	movs	r3, #64	@ 0x40
 8007a22:	1b80      	subs	r0, r0, r6
 8007a24:	4083      	lsls	r3, r0
 8007a26:	6822      	ldr	r2, [r4, #0]
 8007a28:	3501      	adds	r5, #1
 8007a2a:	4313      	orrs	r3, r2
 8007a2c:	6023      	str	r3, [r4, #0]
 8007a2e:	7829      	ldrb	r1, [r5, #0]
 8007a30:	2206      	movs	r2, #6
 8007a32:	4826      	ldr	r0, [pc, #152]	@ (8007acc <_svfiprintf_r+0x1f0>)
 8007a34:	1c6e      	adds	r6, r5, #1
 8007a36:	7621      	strb	r1, [r4, #24]
 8007a38:	f000 f9f2 	bl	8007e20 <memchr>
 8007a3c:	2800      	cmp	r0, #0
 8007a3e:	d038      	beq.n	8007ab2 <_svfiprintf_r+0x1d6>
 8007a40:	4b23      	ldr	r3, [pc, #140]	@ (8007ad0 <_svfiprintf_r+0x1f4>)
 8007a42:	2b00      	cmp	r3, #0
 8007a44:	d122      	bne.n	8007a8c <_svfiprintf_r+0x1b0>
 8007a46:	2207      	movs	r2, #7
 8007a48:	9b07      	ldr	r3, [sp, #28]
 8007a4a:	3307      	adds	r3, #7
 8007a4c:	4393      	bics	r3, r2
 8007a4e:	3308      	adds	r3, #8
 8007a50:	9307      	str	r3, [sp, #28]
 8007a52:	6963      	ldr	r3, [r4, #20]
 8007a54:	9a04      	ldr	r2, [sp, #16]
 8007a56:	189b      	adds	r3, r3, r2
 8007a58:	6163      	str	r3, [r4, #20]
 8007a5a:	e762      	b.n	8007922 <_svfiprintf_r+0x46>
 8007a5c:	4343      	muls	r3, r0
 8007a5e:	0035      	movs	r5, r6
 8007a60:	2101      	movs	r1, #1
 8007a62:	189b      	adds	r3, r3, r2
 8007a64:	e7a4      	b.n	80079b0 <_svfiprintf_r+0xd4>
 8007a66:	2300      	movs	r3, #0
 8007a68:	200a      	movs	r0, #10
 8007a6a:	0019      	movs	r1, r3
 8007a6c:	3501      	adds	r5, #1
 8007a6e:	6063      	str	r3, [r4, #4]
 8007a70:	782a      	ldrb	r2, [r5, #0]
 8007a72:	1c6e      	adds	r6, r5, #1
 8007a74:	3a30      	subs	r2, #48	@ 0x30
 8007a76:	2a09      	cmp	r2, #9
 8007a78:	d903      	bls.n	8007a82 <_svfiprintf_r+0x1a6>
 8007a7a:	2b00      	cmp	r3, #0
 8007a7c:	d0c8      	beq.n	8007a10 <_svfiprintf_r+0x134>
 8007a7e:	9109      	str	r1, [sp, #36]	@ 0x24
 8007a80:	e7c6      	b.n	8007a10 <_svfiprintf_r+0x134>
 8007a82:	4341      	muls	r1, r0
 8007a84:	0035      	movs	r5, r6
 8007a86:	2301      	movs	r3, #1
 8007a88:	1889      	adds	r1, r1, r2
 8007a8a:	e7f1      	b.n	8007a70 <_svfiprintf_r+0x194>
 8007a8c:	aa07      	add	r2, sp, #28
 8007a8e:	9200      	str	r2, [sp, #0]
 8007a90:	0021      	movs	r1, r4
 8007a92:	003a      	movs	r2, r7
 8007a94:	4b0f      	ldr	r3, [pc, #60]	@ (8007ad4 <_svfiprintf_r+0x1f8>)
 8007a96:	9803      	ldr	r0, [sp, #12]
 8007a98:	e000      	b.n	8007a9c <_svfiprintf_r+0x1c0>
 8007a9a:	bf00      	nop
 8007a9c:	9004      	str	r0, [sp, #16]
 8007a9e:	9b04      	ldr	r3, [sp, #16]
 8007aa0:	3301      	adds	r3, #1
 8007aa2:	d1d6      	bne.n	8007a52 <_svfiprintf_r+0x176>
 8007aa4:	89bb      	ldrh	r3, [r7, #12]
 8007aa6:	980d      	ldr	r0, [sp, #52]	@ 0x34
 8007aa8:	065b      	lsls	r3, r3, #25
 8007aaa:	d500      	bpl.n	8007aae <_svfiprintf_r+0x1d2>
 8007aac:	e72c      	b.n	8007908 <_svfiprintf_r+0x2c>
 8007aae:	b021      	add	sp, #132	@ 0x84
 8007ab0:	bdf0      	pop	{r4, r5, r6, r7, pc}
 8007ab2:	aa07      	add	r2, sp, #28
 8007ab4:	9200      	str	r2, [sp, #0]
 8007ab6:	0021      	movs	r1, r4
 8007ab8:	003a      	movs	r2, r7
 8007aba:	4b06      	ldr	r3, [pc, #24]	@ (8007ad4 <_svfiprintf_r+0x1f8>)
 8007abc:	9803      	ldr	r0, [sp, #12]
 8007abe:	f000 f87b 	bl	8007bb8 <_printf_i>
 8007ac2:	e7eb      	b.n	8007a9c <_svfiprintf_r+0x1c0>
 8007ac4:	0800ac21 	.word	0x0800ac21
 8007ac8:	0800ac27 	.word	0x0800ac27
 8007acc:	0800ac2b 	.word	0x0800ac2b
 8007ad0:	00000000 	.word	0x00000000
 8007ad4:	0800781d 	.word	0x0800781d

08007ad8 <_printf_common>:
 8007ad8:	b5f7      	push	{r0, r1, r2, r4, r5, r6, r7, lr}
 8007ada:	0016      	movs	r6, r2
 8007adc:	9301      	str	r3, [sp, #4]
 8007ade:	688a      	ldr	r2, [r1, #8]
 8007ae0:	690b      	ldr	r3, [r1, #16]
 8007ae2:	000c      	movs	r4, r1
 8007ae4:	9000      	str	r0, [sp, #0]
 8007ae6:	4293      	cmp	r3, r2
 8007ae8:	da00      	bge.n	8007aec <_printf_common+0x14>
 8007aea:	0013      	movs	r3, r2
 8007aec:	0022      	movs	r2, r4
 8007aee:	6033      	str	r3, [r6, #0]
 8007af0:	3243      	adds	r2, #67	@ 0x43
 8007af2:	7812      	ldrb	r2, [r2, #0]
 8007af4:	2a00      	cmp	r2, #0
 8007af6:	d001      	beq.n	8007afc <_printf_common+0x24>
 8007af8:	3301      	adds	r3, #1
 8007afa:	6033      	str	r3, [r6, #0]
 8007afc:	6823      	ldr	r3, [r4, #0]
 8007afe:	069b      	lsls	r3, r3, #26
 8007b00:	d502      	bpl.n	8007b08 <_printf_common+0x30>
 8007b02:	6833      	ldr	r3, [r6, #0]
 8007b04:	3302      	adds	r3, #2
 8007b06:	6033      	str	r3, [r6, #0]
 8007b08:	6822      	ldr	r2, [r4, #0]
 8007b0a:	2306      	movs	r3, #6
 8007b0c:	0015      	movs	r5, r2
 8007b0e:	401d      	ands	r5, r3
 8007b10:	421a      	tst	r2, r3
 8007b12:	d027      	beq.n	8007b64 <_printf_common+0x8c>
 8007b14:	0023      	movs	r3, r4
 8007b16:	3343      	adds	r3, #67	@ 0x43
 8007b18:	781b      	ldrb	r3, [r3, #0]
 8007b1a:	1e5a      	subs	r2, r3, #1
 8007b1c:	4193      	sbcs	r3, r2
 8007b1e:	6822      	ldr	r2, [r4, #0]
 8007b20:	0692      	lsls	r2, r2, #26
 8007b22:	d430      	bmi.n	8007b86 <_printf_common+0xae>
 8007b24:	0022      	movs	r2, r4
 8007b26:	9901      	ldr	r1, [sp, #4]
 8007b28:	9800      	ldr	r0, [sp, #0]
 8007b2a:	9d08      	ldr	r5, [sp, #32]
 8007b2c:	3243      	adds	r2, #67	@ 0x43
 8007b2e:	47a8      	blx	r5
 8007b30:	3001      	adds	r0, #1
 8007b32:	d025      	beq.n	8007b80 <_printf_common+0xa8>
 8007b34:	2206      	movs	r2, #6
 8007b36:	6823      	ldr	r3, [r4, #0]
 8007b38:	2500      	movs	r5, #0
 8007b3a:	4013      	ands	r3, r2
 8007b3c:	2b04      	cmp	r3, #4
 8007b3e:	d105      	bne.n	8007b4c <_printf_common+0x74>
 8007b40:	6833      	ldr	r3, [r6, #0]
 8007b42:	68e5      	ldr	r5, [r4, #12]
 8007b44:	1aed      	subs	r5, r5, r3
 8007b46:	43eb      	mvns	r3, r5
 8007b48:	17db      	asrs	r3, r3, #31
 8007b4a:	401d      	ands	r5, r3
 8007b4c:	68a3      	ldr	r3, [r4, #8]
 8007b4e:	6922      	ldr	r2, [r4, #16]
 8007b50:	4293      	cmp	r3, r2
 8007b52:	dd01      	ble.n	8007b58 <_printf_common+0x80>
 8007b54:	1a9b      	subs	r3, r3, r2
 8007b56:	18ed      	adds	r5, r5, r3
 8007b58:	2600      	movs	r6, #0
 8007b5a:	42b5      	cmp	r5, r6
 8007b5c:	d120      	bne.n	8007ba0 <_printf_common+0xc8>
 8007b5e:	2000      	movs	r0, #0
 8007b60:	e010      	b.n	8007b84 <_printf_common+0xac>
 8007b62:	3501      	adds	r5, #1
 8007b64:	68e3      	ldr	r3, [r4, #12]
 8007b66:	6832      	ldr	r2, [r6, #0]
 8007b68:	1a9b      	subs	r3, r3, r2
 8007b6a:	42ab      	cmp	r3, r5
 8007b6c:	ddd2      	ble.n	8007b14 <_printf_common+0x3c>
 8007b6e:	0022      	movs	r2, r4
 8007b70:	2301      	movs	r3, #1
 8007b72:	9901      	ldr	r1, [sp, #4]
 8007b74:	9800      	ldr	r0, [sp, #0]
 8007b76:	9f08      	ldr	r7, [sp, #32]
 8007b78:	3219      	adds	r2, #25
 8007b7a:	47b8      	blx	r7
 8007b7c:	3001      	adds	r0, #1
 8007b7e:	d1f0      	bne.n	8007b62 <_printf_common+0x8a>
 8007b80:	2001      	movs	r0, #1
 8007b82:	4240      	negs	r0, r0
 8007b84:	bdfe      	pop	{r1, r2, r3, r4, r5, r6, r7, pc}
 8007b86:	2030      	movs	r0, #48	@ 0x30
 8007b88:	18e1      	adds	r1, r4, r3
 8007b8a:	3143      	adds	r1, #67	@ 0x43
 8007b8c:	7008      	strb	r0, [r1, #0]
 8007b8e:	0021      	movs	r1, r4
 8007b90:	1c5a      	adds	r2, r3, #1
 8007b92:	3145      	adds	r1, #69	@ 0x45
 8007b94:	7809      	ldrb	r1, [r1, #0]
 8007b96:	18a2      	adds	r2, r4, r2
 8007b98:	3243      	adds	r2, #67	@ 0x43
 8007b9a:	3302      	adds	r3, #2
 8007b9c:	7011      	strb	r1, [r2, #0]
 8007b9e:	e7c1      	b.n	8007b24 <_printf_common+0x4c>
 8007ba0:	0022      	movs	r2, r4
 8007ba2:	2301      	movs	r3, #1
 8007ba4:	9901      	ldr	r1, [sp, #4]
 8007ba6:	9800      	ldr	r0, [sp, #0]
 8007ba8:	9f08      	ldr	r7, [sp, #32]
 8007baa:	321a      	adds	r2, #26
 8007bac:	47b8      	blx	r7
 8007bae:	3001      	adds	r0, #1
 8007bb0:	d0e6      	beq.n	8007b80 <_printf_common+0xa8>
 8007bb2:	3601      	adds	r6, #1
 8007bb4:	e7d1      	b.n	8007b5a <_printf_common+0x82>
	...

08007bb8 <_printf_i>:
 8007bb8:	b5f0      	push	{r4, r5, r6, r7, lr}
 8007bba:	b08b      	sub	sp, #44	@ 0x2c
 8007bbc:	9206      	str	r2, [sp, #24]
 8007bbe:	000a      	movs	r2, r1
 8007bc0:	3243      	adds	r2, #67	@ 0x43
 8007bc2:	9307      	str	r3, [sp, #28]
 8007bc4:	9005      	str	r0, [sp, #20]
 8007bc6:	9203      	str	r2, [sp, #12]
 8007bc8:	7e0a      	ldrb	r2, [r1, #24]
 8007bca:	000c      	movs	r4, r1
 8007bcc:	9b10      	ldr	r3, [sp, #64]	@ 0x40
 8007bce:	2a78      	cmp	r2, #120	@ 0x78
 8007bd0:	d809      	bhi.n	8007be6 <_printf_i+0x2e>
 8007bd2:	2a62      	cmp	r2, #98	@ 0x62
 8007bd4:	d80b      	bhi.n	8007bee <_printf_i+0x36>
 8007bd6:	2a00      	cmp	r2, #0
 8007bd8:	d100      	bne.n	8007bdc <_printf_i+0x24>
 8007bda:	e0bc      	b.n	8007d56 <_printf_i+0x19e>
 8007bdc:	497b      	ldr	r1, [pc, #492]	@ (8007dcc <_printf_i+0x214>)
 8007bde:	9104      	str	r1, [sp, #16]
 8007be0:	2a58      	cmp	r2, #88	@ 0x58
 8007be2:	d100      	bne.n	8007be6 <_printf_i+0x2e>
 8007be4:	e090      	b.n	8007d08 <_printf_i+0x150>
 8007be6:	0025      	movs	r5, r4
 8007be8:	3542      	adds	r5, #66	@ 0x42
 8007bea:	702a      	strb	r2, [r5, #0]
 8007bec:	e022      	b.n	8007c34 <_printf_i+0x7c>
 8007bee:	0010      	movs	r0, r2
 8007bf0:	3863      	subs	r0, #99	@ 0x63
 8007bf2:	2815      	cmp	r0, #21
 8007bf4:	d8f7      	bhi.n	8007be6 <_printf_i+0x2e>
 8007bf6:	f7f8 fa87 	bl	8000108 <__gnu_thumb1_case_shi>
 8007bfa:	0016      	.short	0x0016
 8007bfc:	fff6001f 	.word	0xfff6001f
 8007c00:	fff6fff6 	.word	0xfff6fff6
 8007c04:	001ffff6 	.word	0x001ffff6
 8007c08:	fff6fff6 	.word	0xfff6fff6
 8007c0c:	fff6fff6 	.word	0xfff6fff6
 8007c10:	003600a1 	.word	0x003600a1
 8007c14:	fff60080 	.word	0xfff60080
 8007c18:	00b2fff6 	.word	0x00b2fff6
 8007c1c:	0036fff6 	.word	0x0036fff6
 8007c20:	fff6fff6 	.word	0xfff6fff6
 8007c24:	0084      	.short	0x0084
 8007c26:	0025      	movs	r5, r4
 8007c28:	681a      	ldr	r2, [r3, #0]
 8007c2a:	3542      	adds	r5, #66	@ 0x42
 8007c2c:	1d11      	adds	r1, r2, #4
 8007c2e:	6019      	str	r1, [r3, #0]
 8007c30:	6813      	ldr	r3, [r2, #0]
 8007c32:	702b      	strb	r3, [r5, #0]
 8007c34:	2301      	movs	r3, #1
 8007c36:	e0a0      	b.n	8007d7a <_printf_i+0x1c2>
 8007c38:	6818      	ldr	r0, [r3, #0]
 8007c3a:	6809      	ldr	r1, [r1, #0]
 8007c3c:	1d02      	adds	r2, r0, #4
 8007c3e:	060d      	lsls	r5, r1, #24
 8007c40:	d50b      	bpl.n	8007c5a <_printf_i+0xa2>
 8007c42:	6806      	ldr	r6, [r0, #0]
 8007c44:	601a      	str	r2, [r3, #0]
 8007c46:	2e00      	cmp	r6, #0
 8007c48:	da03      	bge.n	8007c52 <_printf_i+0x9a>
 8007c4a:	232d      	movs	r3, #45	@ 0x2d
 8007c4c:	9a03      	ldr	r2, [sp, #12]
 8007c4e:	4276      	negs	r6, r6
 8007c50:	7013      	strb	r3, [r2, #0]
 8007c52:	4b5e      	ldr	r3, [pc, #376]	@ (8007dcc <_printf_i+0x214>)
 8007c54:	270a      	movs	r7, #10
 8007c56:	9304      	str	r3, [sp, #16]
 8007c58:	e018      	b.n	8007c8c <_printf_i+0xd4>
 8007c5a:	6806      	ldr	r6, [r0, #0]
 8007c5c:	601a      	str	r2, [r3, #0]
 8007c5e:	0649      	lsls	r1, r1, #25
 8007c60:	d5f1      	bpl.n	8007c46 <_printf_i+0x8e>
 8007c62:	b236      	sxth	r6, r6
 8007c64:	e7ef      	b.n	8007c46 <_printf_i+0x8e>
 8007c66:	6808      	ldr	r0, [r1, #0]
 8007c68:	6819      	ldr	r1, [r3, #0]
 8007c6a:	c940      	ldmia	r1!, {r6}
 8007c6c:	0605      	lsls	r5, r0, #24
 8007c6e:	d402      	bmi.n	8007c76 <_printf_i+0xbe>
 8007c70:	0640      	lsls	r0, r0, #25
 8007c72:	d500      	bpl.n	8007c76 <_printf_i+0xbe>
 8007c74:	b2b6      	uxth	r6, r6
 8007c76:	6019      	str	r1, [r3, #0]
 8007c78:	4b54      	ldr	r3, [pc, #336]	@ (8007dcc <_printf_i+0x214>)
 8007c7a:	270a      	movs	r7, #10
 8007c7c:	9304      	str	r3, [sp, #16]
 8007c7e:	2a6f      	cmp	r2, #111	@ 0x6f
 8007c80:	d100      	bne.n	8007c84 <_printf_i+0xcc>
 8007c82:	3f02      	subs	r7, #2
 8007c84:	0023      	movs	r3, r4
 8007c86:	2200      	movs	r2, #0
 8007c88:	3343      	adds	r3, #67	@ 0x43
 8007c8a:	701a      	strb	r2, [r3, #0]
 8007c8c:	6863      	ldr	r3, [r4, #4]
 8007c8e:	60a3      	str	r3, [r4, #8]
 8007c90:	2b00      	cmp	r3, #0
 8007c92:	db03      	blt.n	8007c9c <_printf_i+0xe4>
 8007c94:	2104      	movs	r1, #4
 8007c96:	6822      	ldr	r2, [r4, #0]
 8007c98:	438a      	bics	r2, r1
 8007c9a:	6022      	str	r2, [r4, #0]
 8007c9c:	2e00      	cmp	r6, #0
 8007c9e:	d102      	bne.n	8007ca6 <_printf_i+0xee>
 8007ca0:	9d03      	ldr	r5, [sp, #12]
 8007ca2:	2b00      	cmp	r3, #0
 8007ca4:	d00c      	beq.n	8007cc0 <_printf_i+0x108>
 8007ca6:	9d03      	ldr	r5, [sp, #12]
 8007ca8:	0030      	movs	r0, r6
 8007caa:	0039      	movs	r1, r7
 8007cac:	f7f8 fabc 	bl	8000228 <__aeabi_uidivmod>
 8007cb0:	9b04      	ldr	r3, [sp, #16]
 8007cb2:	3d01      	subs	r5, #1
 8007cb4:	5c5b      	ldrb	r3, [r3, r1]
 8007cb6:	702b      	strb	r3, [r5, #0]
 8007cb8:	0033      	movs	r3, r6
 8007cba:	0006      	movs	r6, r0
 8007cbc:	429f      	cmp	r7, r3
 8007cbe:	d9f3      	bls.n	8007ca8 <_printf_i+0xf0>
 8007cc0:	2f08      	cmp	r7, #8
 8007cc2:	d109      	bne.n	8007cd8 <_printf_i+0x120>
 8007cc4:	6823      	ldr	r3, [r4, #0]
 8007cc6:	07db      	lsls	r3, r3, #31
 8007cc8:	d506      	bpl.n	8007cd8 <_printf_i+0x120>
 8007cca:	6862      	ldr	r2, [r4, #4]
 8007ccc:	6923      	ldr	r3, [r4, #16]
 8007cce:	429a      	cmp	r2, r3
 8007cd0:	dc02      	bgt.n	8007cd8 <_printf_i+0x120>
 8007cd2:	2330      	movs	r3, #48	@ 0x30
 8007cd4:	3d01      	subs	r5, #1
 8007cd6:	702b      	strb	r3, [r5, #0]
 8007cd8:	9b03      	ldr	r3, [sp, #12]
 8007cda:	1b5b      	subs	r3, r3, r5
 8007cdc:	6123      	str	r3, [r4, #16]
 8007cde:	9b07      	ldr	r3, [sp, #28]
 8007ce0:	0021      	movs	r1, r4
 8007ce2:	9300      	str	r3, [sp, #0]
 8007ce4:	9805      	ldr	r0, [sp, #20]
 8007ce6:	9b06      	ldr	r3, [sp, #24]
 8007ce8:	aa09      	add	r2, sp, #36	@ 0x24
 8007cea:	f7ff fef5 	bl	8007ad8 <_printf_common>
 8007cee:	3001      	adds	r0, #1
 8007cf0:	d148      	bne.n	8007d84 <_printf_i+0x1cc>
 8007cf2:	2001      	movs	r0, #1
 8007cf4:	4240      	negs	r0, r0
 8007cf6:	b00b      	add	sp, #44	@ 0x2c
 8007cf8:	bdf0      	pop	{r4, r5, r6, r7, pc}
 8007cfa:	2220      	movs	r2, #32
 8007cfc:	6809      	ldr	r1, [r1, #0]
 8007cfe:	430a      	orrs	r2, r1
 8007d00:	6022      	str	r2, [r4, #0]
 8007d02:	2278      	movs	r2, #120	@ 0x78
 8007d04:	4932      	ldr	r1, [pc, #200]	@ (8007dd0 <_printf_i+0x218>)
 8007d06:	9104      	str	r1, [sp, #16]
 8007d08:	0021      	movs	r1, r4
 8007d0a:	3145      	adds	r1, #69	@ 0x45
 8007d0c:	700a      	strb	r2, [r1, #0]
 8007d0e:	6819      	ldr	r1, [r3, #0]
 8007d10:	6822      	ldr	r2, [r4, #0]
 8007d12:	c940      	ldmia	r1!, {r6}
 8007d14:	0610      	lsls	r0, r2, #24
 8007d16:	d402      	bmi.n	8007d1e <_printf_i+0x166>
 8007d18:	0650      	lsls	r0, r2, #25
 8007d1a:	d500      	bpl.n	8007d1e <_printf_i+0x166>
 8007d1c:	b2b6      	uxth	r6, r6
 8007d1e:	6019      	str	r1, [r3, #0]
 8007d20:	07d3      	lsls	r3, r2, #31
 8007d22:	d502      	bpl.n	8007d2a <_printf_i+0x172>
 8007d24:	2320      	movs	r3, #32
 8007d26:	4313      	orrs	r3, r2
 8007d28:	6023      	str	r3, [r4, #0]
 8007d2a:	2e00      	cmp	r6, #0
 8007d2c:	d001      	beq.n	8007d32 <_printf_i+0x17a>
 8007d2e:	2710      	movs	r7, #16
 8007d30:	e7a8      	b.n	8007c84 <_printf_i+0xcc>
 8007d32:	2220      	movs	r2, #32
 8007d34:	6823      	ldr	r3, [r4, #0]
 8007d36:	4393      	bics	r3, r2
 8007d38:	6023      	str	r3, [r4, #0]
 8007d3a:	e7f8      	b.n	8007d2e <_printf_i+0x176>
 8007d3c:	681a      	ldr	r2, [r3, #0]
 8007d3e:	680d      	ldr	r5, [r1, #0]
 8007d40:	1d10      	adds	r0, r2, #4
 8007d42:	6949      	ldr	r1, [r1, #20]
 8007d44:	6018      	str	r0, [r3, #0]
 8007d46:	6813      	ldr	r3, [r2, #0]
 8007d48:	062e      	lsls	r6, r5, #24
 8007d4a:	d501      	bpl.n	8007d50 <_printf_i+0x198>
 8007d4c:	6019      	str	r1, [r3, #0]
 8007d4e:	e002      	b.n	8007d56 <_printf_i+0x19e>
 8007d50:	066d      	lsls	r5, r5, #25
 8007d52:	d5fb      	bpl.n	8007d4c <_printf_i+0x194>
 8007d54:	8019      	strh	r1, [r3, #0]
 8007d56:	2300      	movs	r3, #0
 8007d58:	9d03      	ldr	r5, [sp, #12]
 8007d5a:	6123      	str	r3, [r4, #16]
 8007d5c:	e7bf      	b.n	8007cde <_printf_i+0x126>
 8007d5e:	681a      	ldr	r2, [r3, #0]
 8007d60:	1d11      	adds	r1, r2, #4
 8007d62:	6019      	str	r1, [r3, #0]
 8007d64:	6815      	ldr	r5, [r2, #0]
 8007d66:	2100      	movs	r1, #0
 8007d68:	0028      	movs	r0, r5
 8007d6a:	6862      	ldr	r2, [r4, #4]
 8007d6c:	f000 f858 	bl	8007e20 <memchr>
 8007d70:	2800      	cmp	r0, #0
 8007d72:	d001      	beq.n	8007d78 <_printf_i+0x1c0>
 8007d74:	1b40      	subs	r0, r0, r5
 8007d76:	6060      	str	r0, [r4, #4]
 8007d78:	6863      	ldr	r3, [r4, #4]
 8007d7a:	6123      	str	r3, [r4, #16]
 8007d7c:	2300      	movs	r3, #0
 8007d7e:	9a03      	ldr	r2, [sp, #12]
 8007d80:	7013      	strb	r3, [r2, #0]
 8007d82:	e7ac      	b.n	8007cde <_printf_i+0x126>
 8007d84:	002a      	movs	r2, r5
 8007d86:	6923      	ldr	r3, [r4, #16]
 8007d88:	9906      	ldr	r1, [sp, #24]
 8007d8a:	9805      	ldr	r0, [sp, #20]
 8007d8c:	9d07      	ldr	r5, [sp, #28]
 8007d8e:	47a8      	blx	r5
 8007d90:	3001      	adds	r0, #1
 8007d92:	d0ae      	beq.n	8007cf2 <_printf_i+0x13a>
 8007d94:	6823      	ldr	r3, [r4, #0]
 8007d96:	079b      	lsls	r3, r3, #30
 8007d98:	d415      	bmi.n	8007dc6 <_printf_i+0x20e>
 8007d9a:	9b09      	ldr	r3, [sp, #36]	@ 0x24
 8007d9c:	68e0      	ldr	r0, [r4, #12]
 8007d9e:	4298      	cmp	r0, r3
 8007da0:	daa9      	bge.n	8007cf6 <_printf_i+0x13e>
 8007da2:	0018      	movs	r0, r3
 8007da4:	e7a7      	b.n	8007cf6 <_printf_i+0x13e>
 8007da6:	0022      	movs	r2, r4
 8007da8:	2301      	movs	r3, #1
 8007daa:	9906      	ldr	r1, [sp, #24]
 8007dac:	9805      	ldr	r0, [sp, #20]
 8007dae:	9e07      	ldr	r6, [sp, #28]
 8007db0:	3219      	adds	r2, #25
 8007db2:	47b0      	blx	r6
 8007db4:	3001      	adds	r0, #1
 8007db6:	d09c      	beq.n	8007cf2 <_printf_i+0x13a>
 8007db8:	3501      	adds	r5, #1
 8007dba:	68e3      	ldr	r3, [r4, #12]
 8007dbc:	9a09      	ldr	r2, [sp, #36]	@ 0x24
 8007dbe:	1a9b      	subs	r3, r3, r2
 8007dc0:	42ab      	cmp	r3, r5
 8007dc2:	dcf0      	bgt.n	8007da6 <_printf_i+0x1ee>
 8007dc4:	e7e9      	b.n	8007d9a <_printf_i+0x1e2>
 8007dc6:	2500      	movs	r5, #0
 8007dc8:	e7f7      	b.n	8007dba <_printf_i+0x202>
 8007dca:	46c0      	nop			@ (mov r8, r8)
 8007dcc:	0800ac32 	.word	0x0800ac32
 8007dd0:	0800ac43 	.word	0x0800ac43

08007dd4 <memmove>:
 8007dd4:	b510      	push	{r4, lr}
 8007dd6:	4288      	cmp	r0, r1
 8007dd8:	d806      	bhi.n	8007de8 <memmove+0x14>
 8007dda:	2300      	movs	r3, #0
 8007ddc:	429a      	cmp	r2, r3
 8007dde:	d008      	beq.n	8007df2 <memmove+0x1e>
 8007de0:	5ccc      	ldrb	r4, [r1, r3]
 8007de2:	54c4      	strb	r4, [r0, r3]
 8007de4:	3301      	adds	r3, #1
 8007de6:	e7f9      	b.n	8007ddc <memmove+0x8>
 8007de8:	188b      	adds	r3, r1, r2
 8007dea:	4298      	cmp	r0, r3
 8007dec:	d2f5      	bcs.n	8007dda <memmove+0x6>
 8007dee:	3a01      	subs	r2, #1
 8007df0:	d200      	bcs.n	8007df4 <memmove+0x20>
 8007df2:	bd10      	pop	{r4, pc}
 8007df4:	5c8b      	ldrb	r3, [r1, r2]
 8007df6:	5483      	strb	r3, [r0, r2]
 8007df8:	e7f9      	b.n	8007dee <memmove+0x1a>
	...

08007dfc <_sbrk_r>:
 8007dfc:	2300      	movs	r3, #0
 8007dfe:	b570      	push	{r4, r5, r6, lr}
 8007e00:	4d06      	ldr	r5, [pc, #24]	@ (8007e1c <_sbrk_r+0x20>)
 8007e02:	0004      	movs	r4, r0
 8007e04:	0008      	movs	r0, r1
 8007e06:	602b      	str	r3, [r5, #0]
 8007e08:	f7fc ffbe 	bl	8004d88 <_sbrk>
 8007e0c:	1c43      	adds	r3, r0, #1
 8007e0e:	d103      	bne.n	8007e18 <_sbrk_r+0x1c>
 8007e10:	682b      	ldr	r3, [r5, #0]
 8007e12:	2b00      	cmp	r3, #0
 8007e14:	d000      	beq.n	8007e18 <_sbrk_r+0x1c>
 8007e16:	6023      	str	r3, [r4, #0]
 8007e18:	bd70      	pop	{r4, r5, r6, pc}
 8007e1a:	46c0      	nop			@ (mov r8, r8)
 8007e1c:	200006c8 	.word	0x200006c8

08007e20 <memchr>:
 8007e20:	b2c9      	uxtb	r1, r1
 8007e22:	1882      	adds	r2, r0, r2
 8007e24:	4290      	cmp	r0, r2
 8007e26:	d101      	bne.n	8007e2c <memchr+0xc>
 8007e28:	2000      	movs	r0, #0
 8007e2a:	4770      	bx	lr
 8007e2c:	7803      	ldrb	r3, [r0, #0]
 8007e2e:	428b      	cmp	r3, r1
 8007e30:	d0fb      	beq.n	8007e2a <memchr+0xa>
 8007e32:	3001      	adds	r0, #1
 8007e34:	e7f6      	b.n	8007e24 <memchr+0x4>

08007e36 <memcpy>:
 8007e36:	2300      	movs	r3, #0
 8007e38:	b510      	push	{r4, lr}
 8007e3a:	429a      	cmp	r2, r3
 8007e3c:	d100      	bne.n	8007e40 <memcpy+0xa>
 8007e3e:	bd10      	pop	{r4, pc}
 8007e40:	5ccc      	ldrb	r4, [r1, r3]
 8007e42:	54c4      	strb	r4, [r0, r3]
 8007e44:	3301      	adds	r3, #1
 8007e46:	e7f8      	b.n	8007e3a <memcpy+0x4>

08007e48 <_realloc_r>:
 8007e48:	b5f7      	push	{r0, r1, r2, r4, r5, r6, r7, lr}
 8007e4a:	0006      	movs	r6, r0
 8007e4c:	000c      	movs	r4, r1
 8007e4e:	0015      	movs	r5, r2
 8007e50:	2900      	cmp	r1, #0
 8007e52:	d105      	bne.n	8007e60 <_realloc_r+0x18>
 8007e54:	0011      	movs	r1, r2
 8007e56:	f7ff fc51 	bl	80076fc <_malloc_r>
 8007e5a:	0004      	movs	r4, r0
 8007e5c:	0020      	movs	r0, r4
 8007e5e:	bdfe      	pop	{r1, r2, r3, r4, r5, r6, r7, pc}
 8007e60:	2a00      	cmp	r2, #0
 8007e62:	d103      	bne.n	8007e6c <_realloc_r+0x24>
 8007e64:	f7ff fbde 	bl	8007624 <_free_r>
 8007e68:	2400      	movs	r4, #0
 8007e6a:	e7f7      	b.n	8007e5c <_realloc_r+0x14>
 8007e6c:	f000 f81b 	bl	8007ea6 <_malloc_usable_size_r>
 8007e70:	0007      	movs	r7, r0
 8007e72:	4285      	cmp	r5, r0
 8007e74:	d802      	bhi.n	8007e7c <_realloc_r+0x34>
 8007e76:	0843      	lsrs	r3, r0, #1
 8007e78:	42ab      	cmp	r3, r5
 8007e7a:	d3ef      	bcc.n	8007e5c <_realloc_r+0x14>
 8007e7c:	0029      	movs	r1, r5
 8007e7e:	0030      	movs	r0, r6
 8007e80:	f7ff fc3c 	bl	80076fc <_malloc_r>
 8007e84:	9001      	str	r0, [sp, #4]
 8007e86:	2800      	cmp	r0, #0
 8007e88:	d0ee      	beq.n	8007e68 <_realloc_r+0x20>
 8007e8a:	002a      	movs	r2, r5
 8007e8c:	42bd      	cmp	r5, r7
 8007e8e:	d900      	bls.n	8007e92 <_realloc_r+0x4a>
 8007e90:	003a      	movs	r2, r7
 8007e92:	0021      	movs	r1, r4
 8007e94:	9801      	ldr	r0, [sp, #4]
 8007e96:	f7ff ffce 	bl	8007e36 <memcpy>
 8007e9a:	0021      	movs	r1, r4
 8007e9c:	0030      	movs	r0, r6
 8007e9e:	f7ff fbc1 	bl	8007624 <_free_r>
 8007ea2:	9c01      	ldr	r4, [sp, #4]
 8007ea4:	e7da      	b.n	8007e5c <_realloc_r+0x14>

08007ea6 <_malloc_usable_size_r>:
 8007ea6:	1f0b      	subs	r3, r1, #4
 8007ea8:	681b      	ldr	r3, [r3, #0]
 8007eaa:	1f18      	subs	r0, r3, #4
 8007eac:	2b00      	cmp	r3, #0
 8007eae:	da01      	bge.n	8007eb4 <_malloc_usable_size_r+0xe>
 8007eb0:	580b      	ldr	r3, [r1, r0]
 8007eb2:	18c0      	adds	r0, r0, r3
 8007eb4:	4770      	bx	lr
	...

08007eb8 <round>:
 8007eb8:	b570      	push	{r4, r5, r6, lr}
 8007eba:	4b1f      	ldr	r3, [pc, #124]	@ (8007f38 <round+0x80>)
 8007ebc:	004d      	lsls	r5, r1, #1
 8007ebe:	0d6d      	lsrs	r5, r5, #21
 8007ec0:	18eb      	adds	r3, r5, r3
 8007ec2:	000a      	movs	r2, r1
 8007ec4:	0004      	movs	r4, r0
 8007ec6:	2b13      	cmp	r3, #19
 8007ec8:	dc18      	bgt.n	8007efc <round+0x44>
 8007eca:	2b00      	cmp	r3, #0
 8007ecc:	da0a      	bge.n	8007ee4 <round+0x2c>
 8007ece:	0fc9      	lsrs	r1, r1, #31
 8007ed0:	07c9      	lsls	r1, r1, #31
 8007ed2:	000a      	movs	r2, r1
 8007ed4:	3301      	adds	r3, #1
 8007ed6:	d101      	bne.n	8007edc <round+0x24>
 8007ed8:	4a18      	ldr	r2, [pc, #96]	@ (8007f3c <round+0x84>)
 8007eda:	430a      	orrs	r2, r1
 8007edc:	2300      	movs	r3, #0
 8007ede:	0011      	movs	r1, r2
 8007ee0:	0018      	movs	r0, r3
 8007ee2:	e015      	b.n	8007f10 <round+0x58>
 8007ee4:	4d16      	ldr	r5, [pc, #88]	@ (8007f40 <round+0x88>)
 8007ee6:	000e      	movs	r6, r1
 8007ee8:	411d      	asrs	r5, r3
 8007eea:	402e      	ands	r6, r5
 8007eec:	4334      	orrs	r4, r6
 8007eee:	d00f      	beq.n	8007f10 <round+0x58>
 8007ef0:	2180      	movs	r1, #128	@ 0x80
 8007ef2:	0309      	lsls	r1, r1, #12
 8007ef4:	4119      	asrs	r1, r3
 8007ef6:	188a      	adds	r2, r1, r2
 8007ef8:	43aa      	bics	r2, r5
 8007efa:	e7ef      	b.n	8007edc <round+0x24>
 8007efc:	2b33      	cmp	r3, #51	@ 0x33
 8007efe:	dd08      	ble.n	8007f12 <round+0x5a>
 8007f00:	2280      	movs	r2, #128	@ 0x80
 8007f02:	00d2      	lsls	r2, r2, #3
 8007f04:	4293      	cmp	r3, r2
 8007f06:	d103      	bne.n	8007f10 <round+0x58>
 8007f08:	0002      	movs	r2, r0
 8007f0a:	000b      	movs	r3, r1
 8007f0c:	f7f8 f9b0 	bl	8000270 <__aeabi_dadd>
 8007f10:	bd70      	pop	{r4, r5, r6, pc}
 8007f12:	4e0c      	ldr	r6, [pc, #48]	@ (8007f44 <round+0x8c>)
 8007f14:	19ae      	adds	r6, r5, r6
 8007f16:	2501      	movs	r5, #1
 8007f18:	426d      	negs	r5, r5
 8007f1a:	40f5      	lsrs	r5, r6
 8007f1c:	4228      	tst	r0, r5
 8007f1e:	d0f7      	beq.n	8007f10 <round+0x58>
 8007f20:	2133      	movs	r1, #51	@ 0x33
 8007f22:	1ac9      	subs	r1, r1, r3
 8007f24:	2301      	movs	r3, #1
 8007f26:	408b      	lsls	r3, r1
 8007f28:	181b      	adds	r3, r3, r0
 8007f2a:	4283      	cmp	r3, r0
 8007f2c:	41a4      	sbcs	r4, r4
 8007f2e:	4264      	negs	r4, r4
 8007f30:	1912      	adds	r2, r2, r4
 8007f32:	43ab      	bics	r3, r5
 8007f34:	e7d3      	b.n	8007ede <round+0x26>
 8007f36:	46c0      	nop			@ (mov r8, r8)
 8007f38:	fffffc01 	.word	0xfffffc01
 8007f3c:	3ff00000 	.word	0x3ff00000
 8007f40:	000fffff 	.word	0x000fffff
 8007f44:	fffffbed 	.word	0xfffffbed

08007f48 <_init>:
 8007f48:	b5f8      	push	{r3, r4, r5, r6, r7, lr}
 8007f4a:	46c0      	nop			@ (mov r8, r8)
 8007f4c:	bcf8      	pop	{r3, r4, r5, r6, r7}
 8007f4e:	bc08      	pop	{r3}
 8007f50:	469e      	mov	lr, r3
 8007f52:	4770      	bx	lr

08007f54 <_fini>:
 8007f54:	b5f8      	push	{r3, r4, r5, r6, r7, lr}
 8007f56:	46c0      	nop			@ (mov r8, r8)
 8007f58:	bcf8      	pop	{r3, r4, r5, r6, r7}
 8007f5a:	bc08      	pop	{r3}
 8007f5c:	469e      	mov	lr, r3
 8007f5e:	4770      	bx	lr
